(dp0
S'apwsE960207.0124-2-2-0.perm-13.txt.pipe'
p1
(dp2
sS'apwsE951024.0072-2-2-0.perm-10.txt.pipe'
p3
(dp4
(NS'Comparison.2'
p5
tp6
F0.16666666666666666
s(NS'Comparison.1'
p7
tp8
F0.16666666666666666
s(NS'Explicit'
p9
tp10
F0.3333333333333333
s(S'Comparison.2'
p11
Ntp12
F0.14583333333333334
s(S'Comparison.1'
p13
S'Comparison.2'
p14
tp15
F0.020833333333333332
s(S'Explicit'
p16
g9
tp17
F0.020833333333333332
s(NNtp18
F0.3958333333333333
s(S'Comparison.1'
p19
Ntp20
F0.10416666666666667
s(g16
Ntp21
F0.25
ssS'apwsE960313.0026-2-2-0.perm-13.txt.pipe'
p22
(dp23
sS'apwsE960313.0250-0-1.perm-12.txt.pipe'
p24
(dp25
sS'apwsE960313.0250-0-1.perm-11.txt.pipe'
p26
(dp27
sS'apwsE951001.0279-2-2-0.perm-13.txt.pipe'
p28
(dp29
(S'Implicit'
p30
Ntp31
F0.062193126022913256
s(NS'Temporal.2'
p32
tp33
F0.007598784194528876
s(NS'EntRel'
p34
tp35
F0.040098199672667756
s(NS'Temporal.1'
p36
tp37
F0.0060790273556231
s(g34
Ntp38
F0.028641571194762683
s(Ng30
tp39
F0.057283142389525366
s(S'Implicit'
p40
S'EntRel'
p41
tp42
F0.0032733224222585926
s(S'.1'
p43
S'.1'
p44
tp45
F0.0022796352583586625
s(NNtp46
F0.7643207855973814
s(NS'.1'
p47
tp48
F0.020516717325227963
s(S'Explicit'
p49
S'Implicit'
p50
tp51
F0.004091653027823241
s(S'Expansion.2'
p52
Ntp53
F0.041033434650455926
s(NS'Expansion.1'
p54
tp55
F0.03723404255319149
s(g34
S'Implicit'
p56
tp57
F0.0024549918166939444
s(g47
Ntp58
F0.02127659574468085
s(S'Expansion.2'
p59
S'.2'
p60
tp61
F0.0022796352583586625
s(S'.2'
p62
S'.1'
p63
tp64
F0.0007598784194528875
s(g54
Ntp65
F0.04179331306990881
s(S'Temporal.2'
p66
S'Expansion.2'
p67
tp68
F0.003799392097264438
s(g56
g50
tp69
F0.007364975450081833
s(NS'.2'
p70
tp71
F0.02735562310030395
s(S'EntRel'
p72
S'EntRel'
p73
tp74
F0.004909983633387889
s(Ng49
tp75
F0.014729950900163666
s(g49
Ntp76
F0.010638297872340425
s(S'.2'
p77
S'.2'
p78
tp79
F0.0022796352583586625
s(g32
Ntp80
F0.003799392097264438
s(S'.2'
p81
S'Expansion.2'
p82
tp83
F0.0022796352583586625
s(S'Expansion.2'
p84
g67
tp85
F0.006838905775075988
s(g70
Ntp86
F0.015197568389057751
s(g36
Ntp87
F0.0060790273556231
s(S'Expansion.1'
p88
S'.1'
p89
tp90
F0.0007598784194528875
s(Ng52
tp91
F0.041033434650455926
ssS'apwsE951001.0279-2-2-0.perm-1.txt.pipe'
p92
(dp93
(S'Expansion.2'
p94
S'.1'
p95
tp96
F0.0007616146230007616
s(S'.1'
p97
S'Expansion.1'
p98
tp99
F0.0015232292460015233
s(S'Expansion.1'
p100
S'Expansion.1'
p101
tp102
F0.0007616146230007616
s(S'.2'
p103
S'.2'
p104
tp105
F0.013709063214013708
s(S'EntRel'
p106
Ntp107
F0.08205953338696702
s(S'Expansion.2'
p108
g98
tp109
F0.0007616146230007616
s(S'Implicit'
p110
S'EntRel'
p111
tp112
F0.006436041834271922
s(S'.1'
p113
S'.1'
p114
tp115
F0.00913937547600914
s(NNtp116
F0.7192276749798874
s(S'.1'
p117
Ntp118
F0.04493526275704494
s(Ng106
tp119
F0.06757843925985518
s(S'Implicit'
p120
Ntp121
F0.03459372485921158
s(S'Expansion.2'
p122
Ntp123
F0.015993907083015995
s(S'Explicit'
p124
S'EntRel'
p125
tp126
F0.0056315366049879325
s(NS'Expansion.1'
p127
tp128
F0.019801980198019802
s(g111
g120
tp129
F0.006436041834271922
s(Ng117
tp130
F0.03351104341203351
s(S'Expansion.2'
p131
S'.2'
p132
tp133
F0.00456968773800457
s(S'.2'
p134
g114
tp135
F0.003808073115003808
s(S'Temporal.2'
p136
S'.2'
p137
tp138
F0.003808073115003808
s(g127
Ntp139
F0.019801980198019802
s(Ng120
tp140
F0.04022526146419952
s(S'Temporal.1'
p141
S'.1'
p142
tp143
F0.0015232292460015233
s(S'Implicit'
p144
g110
tp145
F0.004022526146419952
s(NS'.2'
p146
tp147
F0.053313023610053314
s(S'EntRel'
p148
g125
tp149
F0.0249396621078037
s(g124
Ntp150
F0.008849557522123894
s(S'Temporal.2'
p151
Ntp152
F0.003808073115003808
s(S'.2'
p153
S'Expansion.2'
p154
tp155
F0.00456968773800457
s(S'Expansion.2'
p156
S'Expansion.2'
p157
tp158
F0.002284843869002285
s(g146
Ntp159
F0.053313023610053314
s(S'Temporal.1'
p160
Ntp161
F0.00456968773800457
s(S'Expansion.1'
p162
S'.1'
p163
tp164
F0.0015232292460015233
s(Ng122
tp165
F0.021325209444021324
ssS'apwsE951009.0226-2-2-0.perm-10.txt.pipe'
p166
(dp167
sS'apwsE951221.0001-0-1.perm-11.txt.pipe'
p168
(dp169
sS'apwsE960109.0130-2-2-0.perm-10.txt.pipe'
p170
(dp171
(S'.1'
p172
S'Expansion.1'
p173
tp174
F0.0008136696501220504
s(NS'EntRel'
p175
tp176
F0.10318949343339587
s(S'.2'
p177
S'.2'
p178
tp179
F0.02115541090317331
s(g175
Ntp180
F0.11163227016885553
s(S'Comparison.2'
p181
Ntp182
F0.0040683482506102524
s(S'.1'
p183
S'Comparison.2'
p184
tp185
F0.0016273393002441008
s(g183
S'.1'
p186
tp187
F0.007323026851098454
s(NNtp188
F0.702626641651032
s(S'.1'
p189
Ntp190
F0.07648494711147275
s(Ng181
tp191
F0.0024410089503661514
s(S'Implicit'
p192
Ntp193
F0.0028142589118198874
s(S'Contingency.2'
p194
Ntp195
F0.005695687550854353
s(NS'Expansion.1'
p196
tp197
F0.0016273393002441008
s(g196
Ntp198
F0.0024410089503661514
s(S'EntRel'
p199
g192
tp200
F0.001876172607879925
s(Ng189
tp201
F0.06834825061025224
s(S'.2'
p202
g184
tp203
F0.0008136696501220504
s(g202
g186
tp204
F0.0040683482506102524
s(S'Contingency.1'
p205
Ntp206
F0.0008136696501220504
s(Ng192
tp207
F0.0150093808630394
s(NS'.2'
p208
tp209
F0.0870626525630594
s(S'EntRel'
p210
S'EntRel'
p211
tp212
F0.03283302063789869
s(NS'Explicit'
p213
tp214
F0.009380863039399626
s(g213
Ntp215
F0.01876172607879925
s(S'EntRel'
p216
g213
tp217
F0.001876172607879925
s(S'.2'
p218
S'Expansion.2'
p219
tp220
F0.0008136696501220504
s(NS'Comparison.1'
p221
tp222
F0.005695687550854353
s(g208
Ntp223
F0.0821806346623271
s(NS'Expansion.2'
p224
tp225
F0.011391375101708706
s(g221
Ntp226
F0.005695687550854353
ssS'apwsE960102.0206-0-1.perm-12.txt.pipe'
p227
(dp228
sS'apwsE950914.0074-0-1.perm-10.txt.pipe'
p229
(dp230
sS'apwsE951221.0049-2-2-0.perm-11.txt.pipe'
p231
(dp232
sS'apwsE950827.0022-2-2-0.perm-10.txt.pipe'
p233
(dp234
sS'apwsE951125.0054-2-2-0.perm-11.txt.pipe'
p235
(dp236
(S'Implicit'
p237
Ntp238
F0.0871559633027523
s(NS'EntRel'
p239
tp240
F0.07339449541284404
s(g239
Ntp241
F0.03211009174311927
s(S'Comparison.2'
p242
Ntp243
F0.06880733944954129
s(NNtp244
F0.4724770642201835
s(NS'.1'
p245
tp246
F0.027522935779816515
s(Ng242
tp247
F0.07339449541284404
s(S'Expansion.2'
p248
Ntp249
F0.022935779816513763
s(S'Comparison.1'
p250
S'.1'
p251
tp252
F0.0045871559633027525
s(g245
Ntp253
F0.03211009174311927
s(S'Comparison.2'
p254
g248
tp255
F0.013761467889908258
s(S'Expansion.1'
p256
Ntp257
F0.06422018348623854
s(Ng237
tp258
F0.009174311926605505
s(NS'.2'
p259
tp260
F0.045871559633027525
s(NS'Explicit'
p261
tp262
F0.12385321100917432
s(S'Comparison.2'
p263
S'.2'
p264
tp265
F0.022935779816513763
s(NS'Comparison.1'
p266
tp267
F0.05045871559633028
s(S'Explicit'
p268
g237
tp269
F0.013761467889908258
s(g261
g239
tp270
F0.027522935779816515
s(NS'Expansion.2'
p271
tp272
F0.009174311926605505
s(g261
Ntp273
F0.16055045871559634
s(S'Comparison.1'
p274
Ntp275
F0.09174311926605505
ssS'apwsE951215.0060-2-2-0.perm-13.txt.pipe'
p276
(dp277
sS'apwsE950914.0071-0-1.perm-12.txt.pipe'
p278
(dp279
sS'apwsE950307.0067-0-1.perm-12.txt.pipe'
p280
(dp281
sS'apwsE951222.0206-2-2-0.perm-12.txt.pipe'
p282
(dp283
sS'apwsE950827.0022-2-2-0.perm-12.txt.pipe'
p284
(dp285
(S'Contingency.1'
p286
Ntp287
F0.05555555555555555
s(S'Explicit'
p288
S'Explicit'
p289
tp290
F0.07692307692307693
s(NS'Temporal.2'
p291
tp292
F0.16666666666666666
s(NS'Temporal.1'
p293
tp294
F0.08333333333333333
s(NS'Explicit'
p295
tp296
F0.46153846153846156
s(g288
Ntp297
F0.46153846153846156
s(S'Contingency.2'
p298
S'Temporal.2'
p299
tp300
F0.027777777777777776
s(NS'Comparison.2'
p301
tp302
F0.16666666666666666
s(NS'Comparison.1'
p303
tp304
F0.16666666666666666
s(S'Contingency.2'
p305
Ntp306
F0.2777777777777778
s(g298
S'Comparison.1'
p307
tp308
F0.027777777777777776
s(S'Contingency.1'
p309
S'Comparison.2'
p310
tp311
F0.027777777777777776
ssS'apwsE951101.0026-0-1.perm-10.txt.pipe'
p312
(dp313
sS'apwsE951009.0244-2-2-0.perm-13.txt.pipe'
p314
(dp315
(S'Implicit'
p316
Ntp317
F0.04044117647058824
s(NS'Temporal.2'
p318
tp319
F0.006920415224913495
s(S'Expansion.2'
p320
Ntp321
F0.05190311418685121
s(NS'Temporal.1'
p322
tp323
F0.0034602076124567475
s(S'EntRel'
p324
Ntp325
F0.03676470588235294
s(S'Comparison.2'
p326
Ntp327
F0.031141868512110725
s(S'Explicit'
p328
S'Explicit'
p329
tp330
F0.007352941176470588
s(g316
g324
tp331
F0.007352941176470588
s(NNtp332
F0.7095588235294118
s(NS'.1'
p333
tp334
F0.03460207612456748
s(Ng324
tp335
F0.04411764705882353
s(S'Contingency.2'
p336
Ntp337
F0.031141868512110725
s(NS'Expansion.1'
p338
tp339
F0.0034602076124567475
s(S'Expansion.1'
p340
Ntp341
F0.01384083044982699
s(g333
Ntp342
F0.03460207612456748
s(S'Expansion.2'
p343
S'.2'
p344
tp345
F0.006920415224913495
s(S'Contingency.1'
p346
Ntp347
F0.02768166089965398
s(Ng316
tp348
F0.04779411764705882
s(NS'.2'
p349
tp350
F0.006920415224913495
s(Ng329
tp351
F0.011029411764705883
s(S'Explicit'
p352
Ntp353
F0.09558823529411764
s(S'Expansion.1'
p354
S'Temporal.2'
p355
tp356
F0.006920415224913495
s(Ng320
tp357
F0.04152249134948097
s(S'Comparison.1'
p358
Ntp359
F0.031141868512110725
ssS'apwsE951122.0012-0-1.perm-11.txt.pipe'
p360
(dp361
sS'apwsE951009.0216-2-2-0.perm-1.txt.pipe'
p362
(dp363
sS'apwsE951009.0228-2-2-0.perm-13.txt.pipe'
p364
(dp365
(S'Expansion.2'
p366
S'.1'
p367
tp368
F0.0019267822736030828
s(S'Implicit'
p369
Ntp370
F0.08902691511387163
s(S'Contingency.2'
p371
Ntp372
F0.011560693641618497
s(S'.2'
p373
S'.2'
p374
tp375
F0.009633911368015413
s(S'EntRel'
p376
Ntp377
F0.035196687370600416
s(S'Comparison.2'
p378
Ntp379
F0.015414258188824663
s(S'Contingency.2'
p380
S'Expansion.1'
p381
tp382
F0.0019267822736030828
s(g369
g376
tp383
F0.006211180124223602
s(S'.1'
p384
g367
tp385
F0.0019267822736030828
s(NNtp386
F0.7060041407867494
s(S'.1'
p387
Ntp388
F0.030828516377649325
s(Ng376
tp389
F0.060041407867494824
s(Ng378
tp390
F0.023121387283236993
s(S'Expansion.2'
p391
Ntp392
F0.017341040462427744
s(NS'Contingency.1'
p393
tp394
F0.0019267822736030828
s(NS'Expansion.1'
p395
tp396
F0.007707129094412331
s(Ng387
tp397
F0.030828516377649325
s(S'Expansion.2'
p398
g373
tp399
F0.0038535645472061657
s(S'Contingency.1'
p400
Ntp401
F0.01348747591522158
s(S'Comparison.1'
p402
g381
tp403
F0.0019267822736030828
s(Ng369
tp404
F0.07246376811594203
s(S'Implicit'
p405
g369
tp406
F0.002070393374741201
s(NS'.2'
p407
tp408
F0.036608863198458574
s(g376
S'EntRel'
p409
tp410
F0.012422360248447204
s(NS'Explicit'
p411
tp412
F0.016563146997929608
s(NS'Contingency.2'
p413
tp414
F0.028901734104046242
s(g395
Ntp415
F0.009633911368015413
s(S'.2'
p416
Ntp417
F0.01348747591522158
s(NS'Comparison.1'
p418
tp419
F0.02119460500963391
s(Ng391
tp420
F0.023121387283236993
s(S'Comparison.1'
p421
Ntp422
F0.036608863198458574
ssS'apwsE951024.0005-2-2-0.perm-1.txt.pipe'
p423
(dp424
(S'Expansion.1'
p425
Ntp426
F0.13043478260869565
s(NS'Explicit'
p427
tp428
F0.34782608695652173
s(S'Explicit'
p429
Ntp430
F0.2608695652173913
s(g429
S'Explicit'
p431
tp432
F0.043478260869565216
s(NNtp433
F0.34782608695652173
s(NS'Comparison.2'
p434
tp435
F0.13043478260869565
s(S'Expansion.2'
p436
S'Expansion.2'
p437
tp438
F0.021739130434782608
s(NS'Comparison.1'
p439
tp440
F0.08695652173913043
s(S'Expansion.2'
p441
Ntp442
F0.13043478260869565
s(NS'Expansion.1'
p443
tp444
F0.08695652173913043
s(g437
S'Comparison.1'
p445
tp446
F0.021739130434782608
s(NS'Expansion.2'
p447
tp448
F0.043478260869565216
ssS'apwsE951018.0070-2-2-0.perm-12.txt.pipe'
p449
(dp450
sS'apwsE950425.0109-0-1.perm-12.txt.pipe'
p451
(dp452
sS'apwsE951121.0032-2-2-0.perm-10.txt.pipe'
p453
(dp454
sS'apwsE951201.0010-0-1.perm-10.txt.pipe'
p455
(dp456
sS'apwsE951221.0056-2-2-0.perm-10.txt.pipe'
p457
(dp458
sS'apwsE950425.0109-0-1.perm-11.txt.pipe'
p459
(dp460
sS'apwsE951216.0211-2-2-0.perm-1.txt.pipe'
p461
(dp462
sS'apwsE951006.0493-2-2-0.perm-1.txt.pipe'
p463
(dp464
(S'Comparison.2'
p465
S'Expansion.2'
p466
tp467
F0.0043541364296081275
s(S'Explicit'
p468
S'Explicit'
p469
tp470
F0.019417475728155338
s(S'Expansion.2'
p471
Ntp472
F0.023222060957910014
s(S'Contingency.1'
p473
Ntp474
F0.0043541364296081275
s(S'Comparison.2'
p475
Ntp476
F0.013062409288824383
s(S'Expansion.2'
p477
S'Expansion.1'
p478
tp479
F0.001451378809869376
s(S'Comparison.1'
p480
S'Expansion.2'
p481
tp482
F0.001451378809869376
s(NNtp483
F0.7216828478964401
s(Ng475
tp484
F0.06531204644412192
s(S'Temporal.2'
p485
S'Comparison.1'
p486
tp487
F0.002902757619738752
s(S'Contingency.2'
p488
Ntp489
F0.018867924528301886
s(NS'Expansion.1'
p490
tp491
F0.02902757619738752
s(S'Expansion.1'
p492
S'Comparison.1'
p493
tp494
F0.0043541364296081275
s(g490
Ntp495
F0.02177068214804064
s(S'Comparison.1'
p496
g478
tp497
F0.001451378809869376
s(S'Comparison.2'
p498
g493
tp499
F0.002902757619738752
s(S'Explicit'
p500
Ntp501
F0.1407766990291262
s(S'Temporal.2'
p502
Ntp503
F0.013062409288824383
s(Ng500
tp504
F0.11812297734627832
s(S'Contingency.2'
p505
S'Comparison.2'
p506
tp507
F0.002902757619738752
s(NS'Comparison.1'
p508
tp509
F0.03918722786647315
s(S'Temporal.1'
p510
Ntp511
F0.013062409288824383
s(g485
S'Expansion.2'
p512
tp513
F0.002902757619738752
s(NS'Expansion.2'
p514
tp515
F0.027576197387518143
s(S'Comparison.1'
p516
Ntp517
F0.059506531204644414
ssS'apwsE960108.0194-2-2-0.perm-1.txt.pipe'
p518
(dp519
sS'apwsE951009.0216-2-2-0.perm-11.txt.pipe'
p520
(dp521
sS'apwsE960207.0124-2-2-0.perm-12.txt.pipe'
p522
(dp523
sS'apwsE960207.0018-2-2-0.perm-13.txt.pipe'
p524
(dp525
(S'Expansion.1'
p526
Ntp527
F0.14814814814814814
s(NS'Explicit'
p528
tp529
F0.45454545454545453
s(S'Explicit'
p530
Ntp531
F0.18181818181818182
s(NNtp532
F0.36363636363636365
s(NS'Comparison.2'
p533
tp534
F0.037037037037037035
s(NS'Comparison.1'
p535
tp536
F0.18518518518518517
s(NS'Expansion.2'
p537
tp538
F0.3333333333333333
ssS'apwsE950119.0186-0-1.perm-1.txt.pipe'
p539
(dp540
sS'apwsE960122.0410-0-1.perm-10.txt.pipe'
p541
(dp542
(NS'Comparison.2'
p543
tp544
F0.2608695652173913
s(S'Comparison.1'
p545
S'Comparison.1'
p546
tp547
F0.08695652173913043
s(NS'Comparison.1'
p548
tp549
F0.17391304347826086
s(S'Comparison.2'
p550
S'Comparison.1'
p551
tp552
F0.043478260869565216
s(S'Comparison.2'
p553
Ntp554
F0.34782608695652173
s(S'Explicit'
p555
Ntp556
F0.43478260869565216
s(g555
S'Explicit'
p557
tp558
F0.13043478260869565
s(Ng557
tp559
F0.43478260869565216
s(S'Comparison.1'
p560
Ntp561
F0.08695652173913043
ssS'apwsE951020.0432-2-2-0.perm-12.txt.pipe'
p562
(dp563
(S'Comparison.1'
p564
S'Comparison.1'
p565
tp566
F0.0010235414534288639
s(S'Expansion.1'
p567
S'Contingency.1'
p568
tp569
F0.0010235414534288639
s(S'.2'
p570
S'.2'
p571
tp572
F0.012282497441146366
s(S'Comparison.2'
p573
Ntp574
F0.014329580348004094
s(S'Explicit'
p575
S'Explicit'
p576
tp577
F0.006521739130434782
s(S'Implicit'
p578
S'EntRel'
p579
tp580
F0.008695652173913044
s(S'.1'
p581
S'.1'
p582
tp583
F0.0010235414534288639
s(S'.1'
p584
Ntp585
F0.0255885363357216
s(Ng573
tp586
F0.028659160696008188
s(g578
S'Explicit'
p587
tp588
F0.002173913043478261
s(S'.1'
p589
S'Expansion.1'
p590
tp591
F0.0010235414534288639
s(NS'Contingency.1'
p592
tp593
F0.0020470829068577278
s(S'Expansion.2'
p594
S'Comparison.1'
p595
tp596
F0.0010235414534288639
s(S'Comparison.2'
p597
S'Comparison.2'
p598
tp599
F0.0030706243602865915
s(NS'.2'
p600
tp601
F0.04503582395087001
s(S'Explicit'
p602
Ntp603
F0.051086956521739134
s(g602
g578
tp604
F0.002173913043478261
s(NS'Expansion.2'
p605
tp606
F0.0368474923234391
s(S'Comparison.1'
p607
Ntp608
F0.014329580348004094
s(S'Comparison.2'
p609
S'Expansion.2'
p610
tp611
F0.0020470829068577278
s(g578
Ntp612
F0.03369565217391304
s(g568
Ntp613
F0.0030706243602865915
s(S'EntRel'
p614
Ntp615
F0.06086956521739131
s(g605
Ntp616
F0.022517911975435005
s(NNtp617
F0.6358695652173914
s(Ng584
tp618
F0.02456499488229273
s(Ng614
tp619
F0.058695652173913045
s(S'.2'
p620
g590
tp621
F0.0010235414534288639
s(S'Contingency.2'
p622
Ntp623
F0.0030706243602865915
s(g564
g581
tp624
F0.0020470829068577278
s(NS'Expansion.1'
p625
tp626
F0.027635619242579325
s(Ng578
tp627
F0.035869565217391305
s(S'Expansion.2'
p628
S'.2'
p629
tp630
F0.006141248720573183
s(S'Expansion.1'
p631
S'Comparison.1'
p632
tp633
F0.0020470829068577278
s(g625
Ntp634
F0.033776867963152504
s(g579
S'EntRel'
p635
tp636
F0.014130434782608696
s(S'Comparison.2'
p637
g595
tp638
F0.0010235414534288639
s(Ng622
tp639
F0.0030706243602865915
s(S'Comparison.2'
p640
g629
tp641
F0.006141248720573183
s(g614
S'Explicit'
p642
tp643
F0.006521739130434782
s(g567
g598
tp644
F0.0010235414534288639
s(g600
S'Expansion.2'
p645
tp646
F0.00511770726714432
s(S'Expansion.2'
p647
S'Comparison.2'
p648
tp649
F0.0020470829068577278
s(g597
S'.1'
p650
tp651
F0.0010235414534288639
s(Ng607
tp652
F0.01842374616171955
s(Ng602
tp653
F0.07391304347826087
s(S'.2'
p654
Ntp655
F0.04503582395087001
s(g587
g579
tp656
F0.009782608695652175
s(S'Expansion.1'
p657
g581
tp658
F0.0020470829068577278
s(g597
g568
tp659
F0.0010235414534288639
ssS'apwsE960109.0412-0-1.perm-1.txt.pipe'
p660
(dp661
sS'apwsE951018.0182-2-2-0.perm-13.txt.pipe'
p662
(dp663
(S'Temporal.1'
p664
Ntp665
F0.20689655172413793
s(NS'Explicit'
p666
tp667
F0.5517241379310345
s(NS'Contingency.1'
p668
tp669
F0.06896551724137931
s(S'Explicit'
p670
Ntp671
F0.4482758620689655
s(NS'Contingency.2'
p672
tp673
F0.4827586206896552
s(S'Temporal.2'
p674
Ntp675
F0.2413793103448276
ssS'apwsE950112.0297-0-1.perm-1.txt.pipe'
p676
(dp677
sS'apwsE951024.0005-2-2-0.perm-10.txt.pipe'
p678
(dp679
(NS'EntRel'
p680
tp681
F0.15030060120240482
s(S'.2'
p682
S'.2'
p683
tp684
F0.03350083752093802
s(S'EntRel'
p685
Ntp686
F0.16633266533066132
s(S'Comparison.2'
p687
Ntp688
F0.010050251256281407
s(NNtp689
F0.5731462925851704
s(NS'.1'
p690
tp691
F0.09045226130653267
s(S'.1'
p692
S'.1'
p693
tp694
F0.01675041876046901
s(S'Expansion.2'
p695
Ntp696
F0.0033500837520938024
s(S'Comparison.1'
p697
S'.1'
p698
tp699
F0.0016750418760469012
s(NS'Expansion.1'
p700
tp701
F0.006700167504187605
s(g690
Ntp702
F0.10887772194304858
s(S'Expansion.2'
p703
S'.2'
p704
tp705
F0.0016750418760469012
s(S'.2'
p706
S'.1'
p707
tp708
F0.005025125628140704
s(g700
Ntp709
F0.006700167504187605
s(Ng682
tp710
F0.11725293132328309
s(g680
g685
tp711
F0.06012024048096192
s(NS'Explicit'
p712
tp713
F0.014028056112224449
s(S'Explicit'
p714
Ntp715
F0.03206412825651302
s(g683
Ntp716
F0.10720268006700168
s(g714
g685
tp717
F0.004008016032064128
s(Ng695
tp718
F0.005025125628140704
s(S'Comparison.1'
p719
Ntp720
F0.006700167504187605
ssS'apwsE951009.0294-2-2-0.perm-11.txt.pipe'
p721
(dp722
sS'apwsE951009.0294-2-2-0.perm-10.txt.pipe'
p723
(dp724
sS'apwsE951003.0004-2-2-0.perm-1.txt.pipe'
p725
(dp726
(S'Expansion.1'
p727
Ntp728
F0.2647058823529412
s(NS'Explicit'
p729
tp730
F0.3235294117647059
s(S'Explicit'
p731
Ntp732
F0.2647058823529412
s(NS'Expansion.2'
p733
tp734
F0.3235294117647059
s(NNtp735
F0.4117647058823529
ssS'apwsE950827.0022-2-2-0.perm-1.txt.pipe'
p736
(dp737
(S'Explicit'
p738
S'Explicit'
p739
tp740
F0.07692307692307693
s(Ng739
tp741
F0.46153846153846156
s(S'Comparison.2'
p742
Ntp743
F0.16666666666666666
s(g738
Ntp744
F0.46153846153846156
s(S'Comparison.1'
p745
S'Contingency.2'
p746
tp747
F0.027777777777777776
s(S'Temporal.2'
p748
Ntp749
F0.16666666666666666
s(NS'Contingency.1'
p750
tp751
F0.05555555555555555
s(S'Temporal.1'
p752
Ntp753
F0.08333333333333333
s(S'Temporal.2'
p754
g746
tp755
F0.027777777777777776
s(NS'Contingency.2'
p756
tp757
F0.2777777777777778
s(S'Comparison.2'
p758
S'Contingency.1'
p759
tp760
F0.027777777777777776
s(S'Comparison.1'
p761
Ntp762
F0.16666666666666666
ssS'apwsE950925.0091-0-1.perm-10.txt.pipe'
p763
(dp764
(NS'Explicit'
p765
tp766
F0.5833333333333334
s(S'Expansion.1'
p767
Ntp768
F0.4166666666666667
s(g765
Ntp769
F0.4166666666666667
s(NS'Expansion.2'
p770
tp771
F0.5833333333333334
ssS'apwsE951009.0245-2-2-0.perm-12.txt.pipe'
p772
(dp773
(S'Implicit'
p774
Ntp775
F0.08059981255857544
s(S'Expansion.1'
p776
S'Expansion.1'
p777
tp778
F0.0008583690987124463
s(S'Expansion.1'
p779
Ntp780
F0.04291845493562232
s(S'Comparison.2'
p781
Ntp782
F0.013733905579399141
s(S'Explicit'
p783
S'Explicit'
p784
tp785
F0.0009372071227741331
s(S'Implicit'
p786
S'EntRel'
p787
tp788
F0.0018744142455482662
s(S'.1'
p789
Ntp790
F0.00944206008583691
s(Ng781
tp791
F0.018025751072961373
s(S'Implicit'
p792
S'Explicit'
p793
tp794
F0.0009372071227741331
s(Ng779
tp795
F0.04034334763948498
s(g787
S'Implicit'
p796
tp797
F0.0018744142455482662
s(g786
g774
tp798
F0.016869728209934397
s(NS'.2'
p799
tp800
F0.004291845493562232
s(g799
S'Expansion.2'
p801
tp802
F0.0017167381974248926
s(S'Explicit'
p803
Ntp804
F0.044048734770384255
s(S'Expansion.2'
p805
S'Expansion.2'
p806
tp807
F0.014592274678111588
s(g793
S'Implicit'
p808
tp809
F0.006560449859418931
s(Ng805
tp810
F0.06351931330472103
s(S'Comparison.1'
p811
Ntp812
F0.01888412017167382
s(S'Expansion.2'
p813
S'.1'
p814
tp815
F0.0008583690987124463
s(NS'Temporal.2'
p816
tp817
F0.002575107296137339
s(S'Contingency.1'
p818
Ntp819
F0.0068669527896995704
s(g787
Ntp820
F0.014058106841611996
s(NNtp821
F0.7000937207122774
s(S'Contingency.2'
p822
Ntp823
F0.005150214592274678
s(Ng789
tp824
F0.008583690987124463
s(Ng787
tp825
F0.014058106841611996
s(g806
Ntp826
F0.06609442060085836
s(Ng818
tp827
F0.0068669527896995704
s(Ng786
tp828
F0.07966260543580131
s(S'.2'
p829
S'Comparison.2'
p830
tp831
F0.0008583690987124463
s(S'Expansion.2'
p832
g829
tp833
F0.0008583690987124463
s(S'Comparison.2'
p834
S'Expansion.2'
p835
tp836
F0.005150214592274678
s(NS'Temporal.1'
p837
tp838
F0.0008583690987124463
s(Ng803
tp839
F0.03748828491096532
s(Ng822
tp840
F0.0068669527896995704
s(S'Expansion.2'
p841
S'Temporal.2'
p842
tp843
F0.0008583690987124463
s(g787
g803
tp844
F0.0009372071227741331
s(g829
S'Contingency.2'
p845
tp846
F0.0008583690987124463
s(S'Contingency.2'
p847
S'Expansion.2'
p848
tp849
F0.002575107296137339
s(NS'Comparison.1'
p850
tp851
F0.010300429184549357
s(S'.2'
p852
Ntp853
F0.0034334763948497852
s(S'Expansion.1'
p854
g814
tp855
F0.0008583690987124463
ssS'apwsE960313.0036-2-2-0.perm-1.txt.pipe'
p856
(dp857
sS'apwsE960102.0206-0-1.perm-1.txt.pipe'
p858
(dp859
(S'EntRel'
p860
Ntp861
F0.6470588235294118
s(Ng860
tp862
F0.35294117647058826
s(NS'.2'
p863
tp864
F0.35294117647058826
s(S'.1'
p865
Ntp866
F0.6470588235294118
ssS'apwsE951009.0305-2-2-0.perm-11.txt.pipe'
p867
(dp868
(S'Contingency.1'
p869
Ntp870
F0.015238095238095238
s(S'Contingency.2'
p871
Ntp872
F0.017142857142857144
s(S'Expansion.1'
p873
Ntp874
F0.024761904761904763
s(NS'Explicit'
p875
tp876
F0.122
s(S'Comparison.2'
p877
Ntp878
F0.017142857142857144
s(S'Explicit'
p879
Ntp880
F0.11
s(S'Explicit'
p881
g875
tp882
F0.004
s(NNtp883
F0.764
s(S'Temporal.2'
p884
Ntp885
F0.007619047619047619
s(NS'Comparison.2'
p886
tp887
F0.024761904761904763
s(S'Expansion.2'
p888
Ntp889
F0.009523809523809525
s(S'Temporal.1'
p890
Ntp891
F0.0019047619047619048
s(Ng873
tp892
F0.04380952380952381
s(NS'Expansion.2'
p893
tp894
F0.06285714285714286
s(S'Comparison.1'
p895
Ntp896
F0.04380952380952381
s(S'Expansion.1'
p897
S'Expansion.1'
p898
tp899
F0.0038095238095238095
ssS'apwsE960108.0238-2-2-0.perm-1.txt.pipe'
p900
(dp901
sS'apwsE960303.0079-2-2-0.perm-12.txt.pipe'
p902
(dp903
sS'apwsE950919.0202-2-2-0.perm-13.txt.pipe'
p904
(dp905
sS'apwsE951023.0362-2-2-0.perm-10.txt.pipe'
p906
(dp907
sS'apwsE960313.0250-0-1.perm-13.txt.pipe'
p908
(dp909
sS'apwsE951001.0302-2-2-0.perm-11.txt.pipe'
p910
(dp911
(S'Expansion.2'
p912
S'.1'
p913
tp914
F0.0006218905472636816
s(S'.1'
p915
S'Expansion.1'
p916
tp917
F0.0012437810945273632
s(NS'Temporal.2'
p918
tp919
F0.004353233830845771
s(S'Expansion.1'
p920
S'Expansion.1'
p921
tp922
F0.0006218905472636816
s(S'.2'
p923
S'.2'
p924
tp925
F0.007462686567164179
s(S'EntRel'
p926
Ntp927
F0.05727762803234501
s(NS'Implicit'
p928
tp929
F0.04649595687331536
s(S'Implicit'
p930
S'EntRel'
p931
tp932
F0.0020215633423180594
s(S'.1'
p933
S'.1'
p934
tp935
F0.0037313432835820895
s(NNtp936
F0.7540431266846361
s(S'.1'
p937
Ntp938
F0.03669154228855721
s(Ng926
tp939
F0.05525606469002695
s(S'Explicit'
p940
S'Implicit'
p941
tp942
F0.0033692722371967657
s(S'Implicit'
p943
g940
tp944
F0.0020215633423180594
s(S'Implicit'
p945
Ntp946
F0.03504043126684636
s(S'Expansion.2'
p947
Ntp948
F0.023009950248756218
s(NS'Expansion.1'
p949
tp950
F0.022388059701492536
s(S'EntRel'
p951
g945
tp952
F0.005390835579514825
s(Ng937
tp953
F0.03109452736318408
s(S'Expansion.2'
p954
S'.2'
p955
tp956
F0.0006218905472636816
s(S'.2'
p957
g934
tp958
F0.0024875621890547263
s(g949
Ntp959
F0.023009950248756218
s(S'Temporal.2'
p960
S'Expansion.2'
p961
tp962
F0.003109452736318408
s(g945
g943
tp963
F0.007412398921832884
s(NS'.2'
p964
tp965
F0.04477611940298507
s(S'EntRel'
p966
S'EntRel'
p967
tp968
F0.012803234501347708
s(Ng940
tp969
F0.010107816711590296
s(g940
Ntp970
F0.00876010781671159
s(S'Expansion.2'
p971
g960
tp972
F0.0012437810945273632
s(S'Temporal.2'
p973
Ntp974
F0.003109452736318408
s(g920
g973
tp975
F0.0006218905472636816
s(S'.2'
p976
S'Expansion.2'
p977
tp978
F0.0037313432835820895
s(S'Expansion.2'
p979
S'Expansion.2'
p980
tp981
F0.006218905472636816
s(NS'Temporal.1'
p982
tp983
F0.004975124378109453
s(g964
Ntp984
F0.03917910447761194
s(g982
Ntp985
F0.004975124378109453
s(S'Expansion.1'
p986
S'.1'
p987
tp988
F0.0006218905472636816
s(NS'Expansion.2'
p989
tp990
F0.034203980099502485
ssS'apwsE950919.0594-2-2-0.perm-12.txt.pipe'
p991
(dp992
sS'apwsE951221.0001-0-1.perm-12.txt.pipe'
p993
(dp994
(NS'Comparison.2'
p995
tp996
F0.3333333333333333
s(S'Comparison.1'
p997
S'Comparison.1'
p998
tp999
F0.09523809523809523
s(NS'Comparison.1'
p1000
tp1001
F0.047619047619047616
s(NS'Explicit'
p1002
tp1003
F0.38095238095238093
s(S'Comparison.2'
p1004
Ntp1005
F0.2857142857142857
s(S'Comparison.1'
p1006
S'Comparison.2'
p1007
tp1008
F0.047619047619047616
s(S'Explicit'
p1009
g1002
tp1010
F0.14285714285714285
s(g1009
Ntp1011
F0.47619047619047616
s(S'Comparison.1'
p1012
Ntp1013
F0.19047619047619047
ssS'apwsE951024.0072-2-2-0.perm-11.txt.pipe'
p1014
(dp1015
(S'Comparison.1'
p1016
S'Expansion.1'
p1017
tp1018
F0.010416666666666666
s(NS'Explicit'
p1019
tp1020
F0.25
s(S'Comparison.2'
p1021
Ntp1022
F0.16666666666666666
s(S'Explicit'
p1023
Ntp1024
F0.2916666666666667
s(g1023
S'Explicit'
p1025
tp1026
F0.020833333333333332
s(NNtp1027
F0.4375
s(NS'Comparison.2'
p1028
tp1029
F0.08333333333333333
s(NS'Comparison.1'
p1030
tp1031
F0.08333333333333333
s(NS'Expansion.1'
p1032
tp1033
F0.03125
s(S'Comparison.1'
p1034
S'Comparison.2'
p1035
tp1036
F0.010416666666666666
s(NS'Expansion.2'
p1037
tp1038
F0.052083333333333336
s(S'Comparison.1'
p1039
Ntp1040
F0.125
ssS'apwsE951006.0493-2-2-0.perm-13.txt.pipe'
p1041
(dp1042
(S'Contingency.1'
p1043
S'Comparison.1'
p1044
tp1045
F0.0008635578583765112
s(NS'Temporal.2'
p1046
tp1047
F0.008635578583765112
s(S'Expansion.2'
p1048
Ntp1049
F0.017271157167530225
s(NS'Temporal.1'
p1050
tp1051
F0.0069084628670120895
s(S'Comparison.2'
p1052
Ntp1053
F0.04058721934369603
s(S'Explicit'
p1054
S'Explicit'
p1055
tp1056
F0.010101010101010102
s(NNtp1057
F0.7704315886134068
s(NS'Comparison.2'
p1058
tp1059
F0.046632124352331605
s(S'Contingency.2'
p1060
Ntp1061
F0.012953367875647668
s(NS'Expansion.1'
p1062
tp1063
F0.007772020725388601
s(S'Comparison.2'
p1064
S'Temporal.2'
p1065
tp1066
F0.0008635578583765112
s(S'Expansion.1'
p1067
Ntp1068
F0.016407599309153715
s(S'Comparison.2'
p1069
S'Expansion.2'
p1070
tp1071
F0.004317789291882556
s(S'Contingency.1'
p1072
Ntp1073
F0.0017271157167530224
s(g1043
S'Expansion.2'
p1074
tp1075
F0.0008635578583765112
s(S'Explicit'
p1076
Ntp1077
F0.11019283746556474
s(NS'Explicit'
p1078
tp1079
F0.10927456382001836
s(S'Expansion.2'
p1080
S'Comparison.2'
p1081
tp1082
F0.0025906735751295338
s(NS'Comparison.1'
p1083
tp1084
F0.038860103626943004
s(S'Comparison.2'
p1085
S'Temporal.1'
p1086
tp1087
F0.0008635578583765112
s(NS'Expansion.2'
p1088
tp1089
F0.02158894645941278
s(S'Comparison.1'
p1090
Ntp1091
F0.045768566493955096
ssS'apwsE950331.0603-0-1.perm-13.txt.pipe'
p1092
(dp1093
sS'apwsE951010.0048-2-2-0.perm-10.txt.pipe'
p1094
(dp1095
(S'Expansion.1'
p1096
Ntp1097
F0.007478632478632479
s(NS'Temporal.2'
p1098
tp1099
F0.042735042735042736
s(NS'Temporal.1'
p1100
tp1101
F0.024572649572649572
s(NS'Explicit'
p1102
tp1103
F0.11473565804274466
s(S'Comparison.2'
p1104
Ntp1105
F0.014957264957264958
s(S'Temporal.2'
p1106
S'Comparison.2'
p1107
tp1108
F0.003205128205128205
s(S'Explicit'
p1109
g1102
tp1110
F0.003374578177727784
s(NNtp1111
F0.7772778402699663
s(S'Temporal.2'
p1112
Ntp1113
F0.03632478632478633
s(Ng1104
tp1114
F0.03418803418803419
s(NS'Comparison.1'
p1115
tp1116
F0.02564102564102564
s(S'Expansion.2'
p1117
Ntp1118
F0.00641025641025641
s(S'Temporal.1'
p1119
Ntp1120
F0.035256410256410256
s(g1102
Ntp1121
F0.1046119235095613
s(g1115
Ntp1122
F0.030982905982905984
ssS'apwsE960313.0026-2-2-0.perm-12.txt.pipe'
p1123
(dp1124
sS'apwsE951003.0485-2-2-0.perm-13.txt.pipe'
p1125
(dp1126
sS'apwsE951203.0078-2-2-0.perm-13.txt.pipe'
p1127
(dp1128
(NS'Comparison.2'
p1129
tp1130
F0.3125
s(NS'Comparison.1'
p1131
tp1132
F0.0625
s(S'Comparison.2'
p1133
S'Comparison.1'
p1134
tp1135
F0.125
s(S'Comparison.2'
p1136
Ntp1137
F0.125
s(S'Comparison.1'
p1138
S'Comparison.2'
p1139
tp1140
F0.0625
s(S'Explicit'
p1141
S'Explicit'
p1142
tp1143
F0.1875
s(Ng1142
tp1144
F0.375
s(S'Comparison.1'
p1145
Ntp1146
F0.3125
s(g1141
Ntp1147
F0.4375
ssS'apwsE960508.0041-2-2-0.perm-11.txt.pipe'
p1148
(dp1149
sS'apwsE951010.0048-2-2-0.perm-11.txt.pipe'
p1150
(dp1151
(NS'Temporal.1'
p1152
tp1153
F0.028192371475953566
s(NS'Temporal.2'
p1154
tp1155
F0.05306799336650083
s(S'Temporal.1'
p1156
S'Temporal.1'
p1157
tp1158
F0.003316749585406302
s(NS'Explicit'
p1159
tp1160
F0.1152542372881356
s(S'Comparison.2'
p1161
Ntp1162
F0.013266998341625208
s(S'Explicit'
p1163
Ntp1164
F0.061016949152542375
s(g1163
g1159
tp1165
F0.005084745762711864
s(NNtp1166
F0.8186440677966101
s(S'Temporal.2'
p1167
Ntp1168
F0.01824212271973466
s(Ng1161
tp1169
F0.03150912106135987
s(NS'Expansion.1'
p1170
tp1171
F0.011608623548922056
s(g1152
Ntp1172
F0.02321724709784411
s(S'Temporal.2'
p1173
S'Temporal.1'
p1174
tp1175
F0.001658374792703151
s(NS'Expansion.2'
p1176
tp1177
F0.009950248756218905
s(S'Comparison.1'
p1178
Ntp1179
F0.004975124378109453
ssS'apwsE951003.0004-2-2-0.perm-12.txt.pipe'
p1180
(dp1181
(S'Implicit'
p1182
Ntp1183
F0.05381944444444445
s(S'Contingency.2'
p1184
Ntp1185
F0.009966777408637873
s(S'.2'
p1186
S'.2'
p1187
tp1188
F0.006644518272425249
s(S'EntRel'
p1189
Ntp1190
F0.06597222222222222
s(Ng1182
tp1191
F0.057291666666666664
s(NNtp1192
F0.6666666666666666
s(NS'.1'
p1193
tp1194
F0.023255813953488372
s(Ng1189
tp1195
F0.052083333333333336
s(S'Explicit'
p1196
S'Implicit'
p1197
tp1198
F0.003472222222222222
s(g1182
g1196
tp1199
F0.008680555555555556
s(S'Expansion.2'
p1200
Ntp1201
F0.03820598006644518
s(S'Expansion.2'
p1202
S'Contingency.2'
p1203
tp1204
F0.0033222591362126247
s(NS'Contingency.1'
p1205
tp1206
F0.006644518272425249
s(g1189
g1182
tp1207
F0.001736111111111111
s(S'.1'
p1208
Ntp1209
F0.03820598006644518
s(S'Expansion.1'
p1210
Ntp1211
F0.03322259136212625
s(S'Expansion.2'
p1212
S'Expansion.2'
p1213
tp1214
F0.008305647840531562
s(g1197
S'Implicit'
p1215
tp1216
F0.003472222222222222
s(NS'.2'
p1217
tp1218
F0.04152823920265781
s(S'EntRel'
p1219
S'EntRel'
p1220
tp1221
F0.006944444444444444
s(Ng1196
tp1222
F0.04861111111111111
s(Ng1184
tp1223
F0.009966777408637873
s(g1196
Ntp1224
F0.03125
s(S'.2'
p1225
S'Expansion.2'
p1226
tp1227
F0.0016611295681063123
s(S'Contingency.2'
p1228
S'Expansion.2'
p1229
tp1230
F0.0033222591362126247
s(g1217
Ntp1231
F0.03986710963455149
s(g1205
Ntp1232
F0.006644518272425249
s(Ng1200
tp1233
F0.05813953488372093
s(Ng1210
tp1234
F0.03322259136212625
ssS'apwsE951010.0048-2-2-0.perm-12.txt.pipe'
p1235
(dp1236
(NS'Temporal.1'
p1237
tp1238
F0.027777777777777776
s(S'Temporal.2'
p1239
S'Temporal.2'
p1240
tp1241
F0.003968253968253968
s(NS'Temporal.2'
p1242
tp1243
F0.05291005291005291
s(NS'Explicit'
p1244
tp1245
F0.1284153005464481
s(S'Comparison.2'
p1246
Ntp1247
F0.03439153439153439
s(g1244
Ntp1248
F0.09016393442622951
s(S'Explicit'
p1249
S'Explicit'
p1250
tp1251
F0.00819672131147541
s(NNtp1252
F0.773224043715847
s(S'Temporal.2'
p1253
Ntp1254
F0.021164021164021163
s(NS'Comparison.2'
p1255
tp1256
F0.046296296296296294
s(NS'Comparison.1'
p1257
tp1258
F0.010582010582010581
s(S'Comparison.2'
p1259
S'Temporal.1'
p1260
tp1261
F0.003968253968253968
s(g1259
S'Temporal.2'
p1262
tp1263
F0.0026455026455026454
s(g1237
Ntp1264
F0.031746031746031744
s(S'Comparison.1'
p1265
Ntp1266
F0.015873015873015872
ssS'apwsE960203.0270-2-2-0.perm-1.txt.pipe'
p1267
(dp1268
sS'apwsE950928.0080-0-1.perm-13.txt.pipe'
p1269
(dp1270
sS'apwsE951210.0051-2-2-0.perm-11.txt.pipe'
p1271
(dp1272
sS'apwsE960207.0488-2-2-0.perm-10.txt.pipe'
p1273
(dp1274
(S'Expansion.1'
p1275
Ntp1276
F0.3
s(S'Expansion.1'
p1277
S'Expansion.1'
p1278
tp1279
F0.03333333333333333
s(NS'Explicit'
p1280
tp1281
F0.6296296296296297
s(NS'Expansion.1'
p1282
tp1283
F0.13333333333333333
s(S'Explicit'
p1284
Ntp1285
F0.3333333333333333
s(g1284
g1280
tp1286
F0.037037037037037035
s(NS'Expansion.2'
p1287
tp1288
F0.5333333333333333
ssS'apwsE960109.0412-0-1.perm-10.txt.pipe'
p1289
(dp1290
sS'apwsE960313.0036-2-2-0.perm-10.txt.pipe'
p1291
(dp1292
(S'Contingency.1'
p1293
Ntp1294
F0.010638297872340425
s(NS'Explicit'
p1295
tp1296
F0.3191489361702128
s(S'Explicit'
p1297
Ntp1298
F0.3191489361702128
s(S'Explicit'
p1299
g1295
tp1300
F0.010638297872340425
s(NNtp1301
F0.35106382978723405
s(S'Temporal.2'
p1302
Ntp1303
F0.1276595744680851
s(NS'Comparison.2'
p1304
tp1305
F0.07446808510638298
s(NS'Comparison.1'
p1306
tp1307
F0.11702127659574468
s(S'Contingency.2'
p1308
Ntp1309
F0.10638297872340426
s(Ng1293
tp1310
F0.02127659574468085
s(S'Temporal.1'
p1311
Ntp1312
F0.07446808510638298
s(Ng1308
tp1313
F0.10638297872340426
s(S'Contingency.1'
p1314
S'Comparison.2'
p1315
tp1316
F0.010638297872340425
ssS'apwsE951023.0357-2-2-0.perm-11.txt.pipe'
p1317
(dp1318
sS'apwsE951020.0432-2-2-0.perm-11.txt.pipe'
p1319
(dp1320
(S'.1'
p1321
S'Expansion.1'
p1322
tp1323
F0.002702702702702703
s(S'Expansion.1'
p1324
S'Contingency.1'
p1325
tp1326
F0.0005405405405405405
s(S'.2'
p1327
S'.2'
p1328
tp1329
F0.005945945945945946
s(S'Comparison.2'
p1330
Ntp1331
F0.0075675675675675675
s(S'Explicit'
p1332
S'Explicit'
p1333
tp1334
F0.002824858757062147
s(S'Implicit'
p1335
S'EntRel'
p1336
tp1337
F0.011864406779661017
s(S'.1'
p1338
S'.1'
p1339
tp1340
F0.0005405405405405405
s(S'.1'
p1341
Ntp1342
F0.01945945945945946
s(NS'Comparison.2'
p1343
tp1344
F0.016216216216216217
s(S'Implicit'
p1345
S'Explicit'
p1346
tp1347
F0.002824858757062147
s(S'Comparison.1'
p1348
S'Comparison.1'
p1349
tp1350
F0.0005405405405405405
s(NS'Contingency.1'
p1351
tp1352
F0.001081081081081081
s(S'EntRel'
p1353
g1335
tp1354
F0.003389830508474576
s(S'Expansion.2'
p1355
S'Comparison.1'
p1356
tp1357
F0.0005405405405405405
s(S'Comparison.2'
p1358
S'Comparison.2'
p1359
tp1360
F0.0005405405405405405
s(S'.1'
p1361
g1348
tp1362
F0.001081081081081081
s(g1345
S'Implicit'
p1363
tp1364
F0.0022598870056497176
s(NS'.2'
p1365
tp1366
F0.03567567567567568
s(S'Expansion.1'
p1367
S'Expansion.1'
p1368
tp1369
F0.0016216216216216215
s(S'Explicit'
p1370
Ntp1371
F0.031638418079096044
s(g1359
S'Expansion.1'
p1372
tp1373
F0.0005405405405405405
s(g1325
g1372
tp1374
F0.0005405405405405405
s(S'Explicit'
p1375
g1335
tp1376
F0.0062146892655367235
s(NS'Expansion.2'
p1377
tp1378
F0.0372972972972973
s(S'Comparison.1'
p1379
Ntp1380
F0.007027027027027027
s(S'Expansion.2'
p1381
g1361
tp1382
F0.001081081081081081
s(S'Expansion.1'
p1383
S'Comparison.1'
p1384
tp1385
F0.0016216216216216215
s(S'Explicit'
p1386
g1336
tp1387
F0.005084745762711864
s(g1335
Ntp1388
F0.0384180790960452
s(g1351
Ntp1389
F0.001081081081081081
s(S'EntRel'
p1390
Ntp1391
F0.04915254237288136
s(S'Expansion.2'
p1392
S'Expansion.1'
p1393
tp1394
F0.001081081081081081
s(g1358
S'.1'
p1395
tp1396
F0.0005405405405405405
s(NNtp1397
F0.6988700564971752
s(S'Contingency.2'
p1398
Ntp1399
F0.0016216216216216215
s(Ng1341
tp1400
F0.01945945945945946
s(Ng1336
tp1401
F0.04745762711864407
s(S'.2'
p1402
g1325
tp1403
F0.0005405405405405405
s(S'Expansion.2'
p1404
Ntp1405
F0.025405405405405406
s(S'.2'
p1406
g1368
tp1407
F0.0016216216216216215
s(g1348
S'.1'
p1408
tp1409
F0.001081081081081081
s(NS'Expansion.1'
p1410
tp1411
F0.02918918918918919
s(Ng1335
tp1412
F0.04180790960451977
s(g1402
g1359
tp1413
F0.0005405405405405405
s(S'Expansion.2'
p1414
S'.2'
p1415
tp1416
F0.008648648648648649
s(g1402
g1395
tp1417
F0.0005405405405405405
s(g1343
g1414
tp1418
F0.002162162162162162
s(g1410
Ntp1419
F0.03189189189189189
s(S'Comparison.1'
p1420
g1393
tp1421
F0.0005405405405405405
s(S'EntRel'
p1422
g1390
tp1423
F0.007344632768361582
s(Ng1375
tp1424
F0.04293785310734463
s(Ng1398
tp1425
F0.0016216216216216215
s(S'Comparison.2'
p1426
S'.2'
p1427
tp1428
F0.003243243243243243
s(g1336
g1370
tp1429
F0.007909604519774011
s(g1324
g1359
tp1430
F0.0005405405405405405
s(g1365
g1404
tp1431
F0.004864864864864865
s(S'Expansion.2'
p1432
S'Expansion.2'
p1433
tp1434
F0.0037837837837837837
s(Ng1379
tp1435
F0.008648648648648649
s(g1328
Ntp1436
F0.036756756756756756
s(S'.2'
p1437
g1384
tp1438
F0.0005405405405405405
s(S'Expansion.1'
p1439
g1361
tp1440
F0.002702702702702703
s(g1358
g1325
tp1441
F0.0005405405405405405
ssS'apwsE951009.0305-2-2-0.perm-13.txt.pipe'
p1442
(dp1443
(S'Explicit'
p1444
S'Explicit'
p1445
tp1446
F0.009523809523809525
s(S'Comparison.2'
p1447
Ntp1448
F0.018433179723502304
s(S'Expansion.2'
p1449
S'Expansion.1'
p1450
tp1451
F0.002304147465437788
s(S'Comparison.1'
p1452
g1449
tp1453
F0.002304147465437788
s(NNtp1454
F0.7690476190476191
s(NS'Comparison.2'
p1455
tp1456
F0.03686635944700461
s(S'Temporal.2'
p1457
S'Comparison.1'
p1458
tp1459
F0.002304147465437788
s(S'Expansion.2'
p1460
Ntp1461
F0.004608294930875576
s(NS'Expansion.1'
p1462
tp1463
F0.03225806451612903
s(S'Comparison.2'
p1464
S'Expansion.2'
p1465
tp1466
F0.002304147465437788
s(S'Expansion.1'
p1467
Ntp1468
F0.03225806451612903
s(NS'Explicit'
p1469
tp1470
F0.1523809523809524
s(S'Explicit'
p1471
Ntp1472
F0.06904761904761905
s(S'Temporal.2'
p1473
Ntp1474
F0.0069124423963133645
s(S'Expansion.2'
p1475
g1465
tp1476
F0.002304147465437788
s(NS'Comparison.1'
p1477
tp1478
F0.0069124423963133645
s(S'Temporal.1'
p1479
Ntp1480
F0.002304147465437788
s(NS'Expansion.2'
p1481
tp1482
F0.08755760368663594
s(S'Comparison.1'
p1483
Ntp1484
F0.016129032258064516
ssS'apwsE951009.0278-2-2-0.perm-10.txt.pipe'
p1485
(dp1486
(S'Expansion.1'
p1487
Ntp1488
F0.041666666666666664
s(S'Expansion.1'
p1489
S'Expansion.1'
p1490
tp1491
F0.002777777777777778
s(NS'.2'
p1492
tp1493
F0.019444444444444445
s(NS'Explicit'
p1494
tp1495
F0.11666666666666667
s(S'Expansion.2'
p1496
S'Expansion.1'
p1497
tp1498
F0.002777777777777778
s(g1494
S'Explicit'
p1499
tp1500
F0.008333333333333333
s(NNtp1501
F0.7555555555555555
s(S'Temporal.2'
p1502
Ntp1503
F0.008333333333333333
s(S'.1'
p1504
Ntp1505
F0.005555555555555556
s(NS'EntRel'
p1506
tp1507
F0.019444444444444445
s(g1506
Ntp1508
F0.025
s(S'Expansion.2'
p1509
Ntp1510
F0.022222222222222223
s(S'Temporal.1'
p1511
Ntp1512
F0.002777777777777778
s(g1492
Ntp1513
F0.019444444444444445
s(Ng1487
tp1514
F0.05277777777777778
s(S'Temporal.2'
p1515
g1496
tp1516
F0.002777777777777778
s(NS'Expansion.2'
p1517
tp1518
F0.06388888888888888
s(g1494
Ntp1519
F0.075
ssS'apwsE950928.0094-0-1.perm-13.txt.pipe'
p1520
(dp1521
sS'apwsE951018.0070-2-2-0.perm-10.txt.pipe'
p1522
(dp1523
sS'apwsE951201.0010-0-1.perm-13.txt.pipe'
p1524
(dp1525
(NS'Comparison.2'
p1526
tp1527
F0.21428571428571427
s(S'Comparison.1'
p1528
S'Comparison.1'
p1529
tp1530
F0.07142857142857142
s(NS'Comparison.1'
p1531
tp1532
F0.14285714285714285
s(S'Comparison.2'
p1533
S'Comparison.1'
p1534
tp1535
F0.03571428571428571
s(S'Comparison.2'
p1536
Ntp1537
F0.35714285714285715
s(S'Explicit'
p1538
Ntp1539
F0.5357142857142857
s(g1538
S'Explicit'
p1540
tp1541
F0.10714285714285714
s(Ng1540
tp1542
F0.35714285714285715
s(S'Comparison.1'
p1543
Ntp1544
F0.17857142857142858
ssS'apwsE960104.0037-0-1.perm-1.txt.pipe'
p1545
(dp1546
sS'apwsE950919.0564-2-2-0.perm-11.txt.pipe'
p1547
(dp1548
(S'Contingency.1'
p1549
Ntp1550
F0.13333333333333333
s(S'Contingency.1'
p1551
S'Expansion.1'
p1552
tp1553
F0.03333333333333333
s(S'Contingency.2'
p1554
Ntp1555
F0.16666666666666666
s(NS'Explicit'
p1556
tp1557
F0.2
s(NS'Expansion.1'
p1558
tp1559
F0.06666666666666667
s(S'Explicit'
p1560
Ntp1561
F0.3
s(g1560
g1556
tp1562
F0.03333333333333333
s(NS'Expansion.2'
p1563
tp1564
F0.13333333333333333
s(NNtp1565
F0.4666666666666667
ssS'apwsE951122.0012-0-1.perm-13.txt.pipe'
p1566
(dp1567
sS'apwsE951210.0356-2-2-0.perm-12.txt.pipe'
p1568
(dp1569
sS'apwsE951001.0242-2-2-0.perm-12.txt.pipe'
p1570
(dp1571
sS'apwsE960313.0026-2-2-0.perm-10.txt.pipe'
p1572
(dp1573
sS'apwsE951024.0005-2-2-0.perm-13.txt.pipe'
p1574
(dp1575
sS'apwsE951201.0010-0-1.perm-12.txt.pipe'
p1576
(dp1577
sS'apwsE960122.0410-0-1.perm-13.txt.pipe'
p1578
(dp1579
(NS'Comparison.2'
p1580
tp1581
F0.3793103448275862
s(S'Comparison.1'
p1582
S'Comparison.1'
p1583
tp1584
F0.06896551724137931
s(NS'Comparison.1'
p1585
tp1586
F0.1724137931034483
s(NS'Explicit'
p1587
tp1588
F0.5517241379310345
s(S'Comparison.2'
p1589
Ntp1590
F0.20689655172413793
s(S'Comparison.1'
p1591
S'Comparison.2'
p1592
tp1593
F0.034482758620689655
s(S'Explicit'
p1594
g1587
tp1595
F0.10344827586206896
s(g1594
Ntp1596
F0.3448275862068966
s(S'Comparison.1'
p1597
Ntp1598
F0.13793103448275862
ssS'apwsE950914.0074-0-1.perm-1.txt.pipe'
p1599
(dp1600
sS'apwsE950119.0186-0-1.perm-12.txt.pipe'
p1601
(dp1602
sS'apwsE951020.0432-2-2-0.perm-1.txt.pipe'
p1603
(dp1604
(S'Expansion.1'
p1605
Ntp1606
F0.1258741258741259
s(S'Expansion.1'
p1607
S'Expansion.1'
p1608
tp1609
F0.013986013986013986
s(NS'Explicit'
p1610
tp1611
F0.16923076923076924
s(g1610
Ntp1612
F0.17692307692307693
s(g1610
S'Explicit'
p1613
tp1614
F0.06153846153846154
s(NNtp1615
F0.5923076923076923
s(NS'Comparison.2'
p1616
tp1617
F0.027972027972027972
s(S'Expansion.2'
p1618
S'Expansion.2'
p1619
tp1620
F0.03496503496503497
s(NS'Comparison.1'
p1621
tp1622
F0.03496503496503497
s(S'Expansion.2'
p1623
Ntp1624
F0.04895104895104895
s(NS'Expansion.1'
p1625
tp1626
F0.02097902097902098
s(Ng1618
tp1627
F0.14685314685314685
s(S'Expansion.1'
p1628
S'Comparison.2'
p1629
tp1630
F0.006993006993006993
ssS'apwsE951024.0123-2-2-0.perm-1.txt.pipe'
p1631
(dp1632
(S'Expansion.1'
p1633
Ntp1634
F0.019230769230769232
s(S'Comparison.1'
p1635
S'Comparison.1'
p1636
tp1637
F0.028846153846153848
s(S'Comparison.2'
p1638
S'Comparison.2'
p1639
tp1640
F0.009615384615384616
s(NS'Explicit'
p1641
tp1642
F0.20192307692307693
s(S'Comparison.2'
p1643
Ntp1644
F0.057692307692307696
s(S'Explicit'
p1645
Ntp1646
F0.125
s(g1645
g1641
tp1647
F0.04807692307692308
s(NNtp1648
F0.625
s(NS'Comparison.2'
p1649
tp1650
F0.09615384615384616
s(NS'Comparison.1'
p1651
tp1652
F0.10576923076923077
s(S'Expansion.2'
p1653
Ntp1654
F0.028846153846153848
s(S'Comparison.1'
p1655
S'Comparison.2'
p1656
tp1657
F0.009615384615384616
s(S'Comparison.1'
p1658
Ntp1659
F0.019230769230769232
ssS'apwsE951009.0305-2-2-0.perm-12.txt.pipe'
p1660
(dp1661
(S'Expansion.1'
p1662
S'Comparison.1'
p1663
tp1664
F0.0022123893805309734
s(S'Expansion.1'
p1665
Ntp1666
F0.030973451327433628
s(NS'Explicit'
p1667
tp1668
F0.11711711711711711
s(S'Comparison.2'
p1669
Ntp1670
F0.015486725663716814
s(S'Explicit'
p1671
Ntp1672
F0.09009009009009009
s(S'Explicit'
p1673
S'Explicit'
p1674
tp1675
F0.0045045045045045045
s(NNtp1676
F0.7882882882882883
s(NS'Comparison.2'
p1677
tp1678
F0.02654867256637168
s(NS'Comparison.1'
p1679
tp1680
F0.00663716814159292
s(S'Expansion.2'
p1681
Ntp1682
F0.011061946902654867
s(NS'Expansion.1'
p1683
tp1684
F0.022123893805309734
s(NS'Expansion.2'
p1685
tp1686
F0.07743362831858407
s(S'Expansion.1'
p1687
S'Comparison.2'
p1688
tp1689
F0.0022123893805309734
s(S'Comparison.1'
p1690
Ntp1691
F0.030973451327433628
ssS'apwsE951001.0302-2-2-0.perm-10.txt.pipe'
p1692
(dp1693
(S'.1'
p1694
S'Expansion.1'
p1695
tp1696
F0.0005359056806002144
s(NS'Temporal.2'
p1697
tp1698
F0.0053590568060021436
s(S'Temporal.2'
p1699
S'.2'
p1700
tp1701
F0.0026795284030010718
s(S'.2'
p1702
S'.2'
p1703
tp1704
F0.013933547695605574
s(S'EntRel'
p1705
Ntp1706
F0.06058890147225368
s(S'Implicit'
p1707
S'EntRel'
p1708
tp1709
F0.004530011325028313
s(S'.1'
p1710
S'.1'
p1711
tp1712
F0.0037513397642015005
s(NNtp1713
F0.7661381653454133
s(S'.1'
p1714
Ntp1715
F0.03965702036441586
s(Ng1705
tp1716
F0.06568516421291053
s(NS'NoRel.2'
p1717
tp1718
F0.0037513397642015005
s(S'Implicit'
p1719
Ntp1720
F0.02944507361268403
s(g1705
g1719
tp1721
F0.0016987542468856172
s(S'Expansion.2'
p1722
Ntp1723
F0.012861736334405145
s(S'Explicit'
p1724
g1708
tp1725
F0.0028312570781426952
s(NS'Expansion.1'
p1726
tp1727
F0.0053590568060021436
s(NS'NoRel.1'
p1728
tp1729
F0.005894962486602358
s(Ng1714
tp1730
F0.04019292604501608
s(S'Expansion.2'
p1731
g1700
tp1732
F0.004287245444801715
s(S'.2'
p1733
g1711
tp1734
F0.0005359056806002144
s(g1726
Ntp1735
F0.009110396570203644
s(Ng1719
tp1736
F0.03284258210645526
s(NS'.2'
p1737
tp1738
F0.04876741693461951
s(S'EntRel'
p1739
S'EntRel'
p1740
tp1741
F0.01868629671574179
s(Ng1724
tp1742
F0.010192525481313703
s(NS'Temporal.1'
p1743
tp1744
F0.004287245444801715
s(g1724
Ntp1745
F0.007361268403171008
s(g1697
Ntp1746
F0.0026795284030010718
s(S'.2'
p1747
S'Expansion.2'
p1748
tp1749
F0.0010718113612004287
s(g1728
Ntp1750
F0.005894962486602358
s(g1737
Ntp1751
F0.04394426580921758
s(g1743
Ntp1752
F0.004287245444801715
s(Ng1722
tp1753
F0.01607717041800643
ssS'apwsE950620.0596-0-1.perm-11.txt.pipe'
p1754
(dp1755
sS'apwsE960109.0103-2-2-0.perm-13.txt.pipe'
p1756
(dp1757
sS'apwsE951210.0051-2-2-0.perm-13.txt.pipe'
p1758
(dp1759
sS'apwsE950112.0297-0-1.perm-13.txt.pipe'
p1760
(dp1761
sS'apwsE960104.0037-0-1.perm-12.txt.pipe'
p1762
(dp1763
sS'apwsE951024.0020-2-2-0.perm-11.txt.pipe'
p1764
(dp1765
(S'Expansion.1'
p1766
Ntp1767
F0.02857142857142857
s(S'Comparison.1'
p1768
S'Expansion.1'
p1769
tp1770
F0.014285714285714285
s(S'Explicit'
p1771
S'Explicit'
p1772
tp1773
F0.07142857142857142
s(Ng1772
tp1774
F0.2857142857142857
s(S'Comparison.2'
p1775
Ntp1776
F0.07142857142857142
s(S'Explicit'
p1777
Ntp1778
F0.2
s(S'Comparison.1'
p1779
S'Expansion.2'
p1780
tp1781
F0.014285714285714285
s(NNtp1782
F0.44285714285714284
s(Ng1775
tp1783
F0.1
s(NS'Comparison.1'
p1784
tp1785
F0.05714285714285714
s(S'Expansion.2'
p1786
Ntp1787
F0.05714285714285714
s(NS'Expansion.1'
p1788
tp1789
F0.1
s(S'Expansion.2'
p1790
g1779
tp1791
F0.014285714285714285
s(NS'Expansion.2'
p1792
tp1793
F0.02857142857142857
s(S'Comparison.2'
p1794
S'Expansion.1'
p1795
tp1796
F0.02857142857142857
s(g1784
Ntp1797
F0.04285714285714286
ssS'apwsE960216.0269-2-2-0.perm-11.txt.pipe'
p1798
(dp1799
(NS'Comparison.2'
p1800
tp1801
F0.10526315789473684
s(NS'Temporal.2'
p1802
tp1803
F0.2982456140350877
s(S'Temporal.1'
p1804
S'Comparison.2'
p1805
tp1806
F0.017543859649122806
s(S'Temporal.1'
p1807
Ntp1808
F0.07017543859649122
s(NS'Explicit'
p1809
tp1810
F0.45
s(NS'Comparison.1'
p1811
tp1812
F0.21052631578947367
s(S'Explicit'
p1813
Ntp1814
F0.1
s(g1813
g1809
tp1815
F0.025
s(NNtp1816
F0.425
ssS'apwsE950331.0603-0-1.perm-1.txt.pipe'
p1817
(dp1818
sS'apwsE951106.0072-2-2-0.perm-11.txt.pipe'
p1819
(dp1820
sS'apwsE951221.0056-2-2-0.perm-1.txt.pipe'
p1821
(dp1822
sS'apwsE960508.0041-2-2-0.perm-10.txt.pipe'
p1823
(dp1824
sS'apwsE951203.0078-2-2-0.perm-1.txt.pipe'
p1825
(dp1826
sS'apwsE951024.0072-2-2-0.perm-12.txt.pipe'
p1827
(dp1828
(S'Expansion.1'
p1829
Ntp1830
F0.08333333333333333
s(NS'Explicit'
p1831
tp1832
F0.2708333333333333
s(S'Explicit'
p1833
Ntp1834
F0.14583333333333334
s(NNtp1835
F0.5833333333333334
s(NS'Comparison.2'
p1836
tp1837
F0.14583333333333334
s(NS'Comparison.1'
p1838
tp1839
F0.125
s(S'Expansion.2'
p1840
Ntp1841
F0.0625
ssS'apwsE950331.0603-0-1.perm-10.txt.pipe'
p1842
(dp1843
sS'apwsE951009.0294-2-2-0.perm-13.txt.pipe'
p1844
(dp1845
sS'apwsE960313.0061-2-2-0.perm-1.txt.pipe'
p1846
(dp1847
sS'apwsE951006.0493-2-2-0.perm-11.txt.pipe'
p1848
(dp1849
(S'Explicit'
p1850
S'Explicit'
p1851
tp1852
F0.03260869565217391
s(S'Expansion.2'
p1853
Ntp1854
F0.011538461538461539
s(S'Expansion.1'
p1855
Ntp1856
F0.013461538461538462
s(S'Comparison.2'
p1857
Ntp1858
F0.023076923076923078
s(S'Comparison.1'
p1859
S'Expansion.2'
p1860
tp1861
F0.0057692307692307696
s(NNtp1862
F0.7195652173913043
s(S'Temporal.1'
p1863
S'Expansion.2'
p1864
tp1865
F0.0019230769230769232
s(NS'Comparison.2'
p1866
tp1867
F0.05576923076923077
s(S'Contingency.2'
p1868
Ntp1869
F0.019230769230769232
s(NS'Expansion.1'
p1870
tp1871
F0.0038461538461538464
s(NS'Contingency.1'
p1872
tp1873
F0.0038461538461538464
s(g1851
Ntp1874
F0.11739130434782609
s(S'Comparison.2'
p1875
S'Contingency.2'
p1876
tp1877
F0.0019230769230769232
s(S'Contingency.1'
p1878
Ntp1879
F0.0057692307692307696
s(S'Comparison.1'
p1880
S'Expansion.1'
p1881
tp1882
F0.0019230769230769232
s(g1866
S'Comparison.1'
p1883
tp1884
F0.0019230769230769232
s(NS'Contingency.2'
p1885
tp1886
F0.026923076923076925
s(S'Temporal.2'
p1887
S'Comparison.2'
p1888
tp1889
F0.007692307692307693
s(S'Temporal.1'
p1890
g1881
tp1891
F0.0019230769230769232
s(S'Temporal.2'
p1892
Ntp1893
F0.013461538461538462
s(Ng1850
tp1894
F0.13043478260869565
s(g1885
S'Comparison.2'
p1895
tp1896
F0.009615384615384616
s(NS'Comparison.1'
p1897
tp1898
F0.026923076923076925
s(S'Temporal.1'
p1899
Ntp1900
F0.013461538461538462
s(S'Temporal.2'
p1901
S'Expansion.2'
p1902
tp1903
F0.0019230769230769232
s(NS'Expansion.2'
p1904
tp1905
F0.03076923076923077
s(g1866
g1878
tp1906
F0.0019230769230769232
s(g1883
Ntp1907
F0.07884615384615384
ssS'apwsE951216.0211-2-2-0.perm-13.txt.pipe'
p1908
(dp1909
sS'apwsE960106.0047-2-2-0.perm-13.txt.pipe'
p1910
(dp1911
sS'apwsE951218.0398-0-1.perm-1.txt.pipe'
p1912
(dp1913
sS'apwsE950919.0580-2-2-0.perm-12.txt.pipe'
p1914
(dp1915
sS'apwsE951024.0072-2-2-0.perm-13.txt.pipe'
p1916
(dp1917
(S'Expansion.1'
p1918
Ntp1919
F0.0625
s(NS'Explicit'
p1920
tp1921
F0.22916666666666666
s(S'Explicit'
p1922
Ntp1923
F0.14583333333333334
s(g1922
g1920
tp1924
F0.041666666666666664
s(NNtp1925
F0.5833333333333334
s(NS'Comparison.2'
p1926
tp1927
F0.125
s(NS'Comparison.1'
p1928
tp1929
F0.10416666666666667
s(S'Expansion.2'
p1930
Ntp1931
F0.08333333333333333
s(S'Expansion.2'
p1932
S'Comparison.1'
p1933
tp1934
F0.020833333333333332
s(S'Expansion.1'
p1935
S'Comparison.2'
p1936
tp1937
F0.020833333333333332
ssS'apwsE960207.0018-2-2-0.perm-1.txt.pipe'
p1938
(dp1939
(S'Expansion.1'
p1940
S'Comparison.1'
p1941
tp1942
F0.029411764705882353
s(S'Expansion.1'
p1943
Ntp1944
F0.4411764705882353
s(NS'Comparison.1'
p1945
tp1946
F0.11764705882352941
s(NS'Comparison.2'
p1947
tp1948
F0.029411764705882353
s(NS'Explicit'
p1949
tp1950
F0.16666666666666666
s(S'Explicit'
p1951
Ntp1952
F0.5
s(g1951
g1949
tp1953
F0.03333333333333333
s(NS'Expansion.2'
p1954
tp1955
F0.11764705882352941
s(NNtp1956
F0.3
ssS'apwsE951221.0001-0-1.perm-10.txt.pipe'
p1957
(dp1958
sS'apwsE951001.0302-2-2-0.perm-1.txt.pipe'
p1959
(dp1960
(S'Expansion.2'
p1961
S'.1'
p1962
tp1963
F0.00047709923664122136
s(S'.1'
p1964
S'Expansion.1'
p1965
tp1966
F0.0014312977099236641
s(NS'Temporal.2'
p1967
tp1968
F0.004770992366412214
s(S'Temporal.2'
p1969
S'.2'
p1970
tp1971
F0.002385496183206107
s(S'.2'
p1972
S'.2'
p1973
tp1974
F0.010019083969465648
s(S'EntRel'
p1975
Ntp1976
F0.05885311871227364
s(S'Expansion.2'
p1977
g1965
tp1978
F0.00047709923664122136
s(S'Implicit'
p1979
S'EntRel'
p1980
tp1981
F0.004527162977867203
s(S'.1'
p1982
S'.1'
p1983
tp1984
F0.00715648854961832
s(NNtp1985
F0.790241448692153
s(S'.1'
p1986
Ntp1987
F0.03625954198473282
s(Ng1975
tp1988
F0.05734406438631791
s(S'Implicit'
p1989
Ntp1990
F0.019617706237424547
s(S'Expansion.2'
p1991
Ntp1992
F0.009541984732824428
s(S'Explicit'
p1993
S'EntRel'
p1994
tp1995
F0.0035211267605633804
s(NS'Expansion.1'
p1996
tp1997
F0.01097328244274809
s(S'EntRel'
p1998
g1979
tp1999
F0.004527162977867203
s(Ng1986
tp2000
F0.0357824427480916
s(S'Expansion.2'
p2001
S'.2'
p2002
tp2003
F0.0028625954198473282
s(S'.2'
p2004
g1983
tp2005
F0.003816793893129771
s(g1996
Ntp2006
F0.011450381679389313
s(Ng1989
tp2007
F0.02665995975855131
s(S'Temporal.1'
p2008
S'.1'
p2009
tp2010
F0.0009541984732824427
s(g1979
g1989
tp2011
F0.001006036217303823
s(NS'.2'
p2012
tp2013
F0.04150763358778626
s(g1994
S'EntRel'
p2014
tp2015
F0.019114688128772636
s(Ng1993
tp2016
F0.009054325955734407
s(g1993
Ntp2017
F0.005533199195171026
s(g1967
Ntp2018
F0.002385496183206107
s(S'.2'
p2019
S'Expansion.2'
p2020
tp2021
F0.0028625954198473282
s(S'Expansion.2'
p2022
S'Expansion.2'
p2023
tp2024
F0.00047709923664122136
s(NS'Temporal.1'
p2025
tp2026
F0.003816793893129771
s(g2012
Ntp2027
F0.04007633587786259
s(g2025
Ntp2028
F0.0028625954198473282
s(S'Expansion.1'
p2029
S'.1'
p2030
tp2031
F0.0014312977099236641
s(Ng1991
tp2032
F0.016698473282442748
ssS'apwsE960102.0206-0-1.perm-10.txt.pipe'
p2033
(dp2034
sS'apwsE960313.0024-2-2-0.perm-10.txt.pipe'
p2035
(dp2036
sS'apwsE951201.0003-2-2-0.perm-10.txt.pipe'
p2037
(dp2038
sS'apwsE951222.0206-2-2-0.perm-13.txt.pipe'
p2039
(dp2040
(S'Expansion.1'
p2041
Ntp2042
F0.031073446327683617
s(S'.1'
p2043
S'Expansion.1'
p2044
tp2045
F0.002824858757062147
s(NS'.2'
p2046
tp2047
F0.1327683615819209
s(S'.2'
p2048
S'.2'
p2049
tp2050
F0.03672316384180791
s(S'EntRel'
p2051
Ntp2052
F0.14516129032258066
s(NS'Implicit'
p2053
tp2054
F0.08709677419354839
s(g2051
S'EntRel'
p2055
tp2056
F0.04838709677419355
s(NNtp2057
F0.5064516129032258
s(NS'.1'
p2058
tp2059
F0.06497175141242938
s(S'.1'
p2060
S'.1'
p2061
tp2062
F0.005649717514124294
s(S'.2'
p2063
S'Expansion.2'
p2064
tp2065
F0.01694915254237288
s(g2053
Ntp2066
F0.035483870967741936
s(Ng2051
tp2067
F0.15483870967741936
s(g2046
Ntp2068
F0.11016949152542373
s(Ng2041
tp2069
F0.02824858757062147
s(S'EntRel'
p2070
g2053
tp2071
F0.02258064516129032
s(S'.1'
p2072
Ntp2073
F0.07344632768361582
s(NS'Expansion.2'
p2074
tp2075
F0.0480225988700565
s(S'.2'
p2076
g2061
tp2077
F0.005649717514124294
ssS'apwsE950827.0035-2-2-0.perm-12.txt.pipe'
p2078
(dp2079
sS'apwsE950827.0022-2-2-0.perm-13.txt.pipe'
p2080
(dp2081
(S'Contingency.1'
p2082
Ntp2083
F0.05555555555555555
s(S'Explicit'
p2084
S'Explicit'
p2085
tp2086
F0.07692307692307693
s(NS'Temporal.2'
p2087
tp2088
F0.16666666666666666
s(NS'Temporal.1'
p2089
tp2090
F0.08333333333333333
s(NS'Explicit'
p2091
tp2092
F0.46153846153846156
s(g2084
Ntp2093
F0.46153846153846156
s(S'Contingency.2'
p2094
S'Temporal.2'
p2095
tp2096
F0.027777777777777776
s(NS'Comparison.2'
p2097
tp2098
F0.16666666666666666
s(NS'Comparison.1'
p2099
tp2100
F0.16666666666666666
s(S'Contingency.2'
p2101
Ntp2102
F0.2777777777777778
s(g2094
S'Comparison.1'
p2103
tp2104
F0.027777777777777776
s(S'Contingency.1'
p2105
S'Comparison.2'
p2106
tp2107
F0.027777777777777776
ssS'apwsE951009.0226-2-2-0.perm-12.txt.pipe'
p2108
(dp2109
sS'apwsE951201.0010-0-1.perm-1.txt.pipe'
p2110
(dp2111
sS'apwsE950905.0546-2-2-0.perm-10.txt.pipe'
p2112
(dp2113
sS'apwsE951201.0003-2-2-0.perm-12.txt.pipe'
p2114
(dp2115
sS'apwsE951218.0398-0-1.perm-10.txt.pipe'
p2116
(dp2117
sS'apwsE951201.0003-2-2-0.perm-1.txt.pipe'
p2118
(dp2119
sS'apwsE951023.0362-2-2-0.perm-12.txt.pipe'
p2120
(dp2121
sS'apwsE951215.0060-2-2-0.perm-11.txt.pipe'
p2122
(dp2123
sS'apwsE951101.0026-0-1.perm-13.txt.pipe'
p2124
(dp2125
sS'apwsE951009.0226-2-2-0.perm-11.txt.pipe'
p2126
(dp2127
sS'apwsE951122.0004-0-1.perm-1.txt.pipe'
p2128
(dp2129
sS'apwsE951009.0244-2-2-0.perm-10.txt.pipe'
p2130
(dp2131
(S'.1'
p2132
S'Expansion.1'
p2133
tp2134
F0.0013192612137203166
s(S'Expansion.1'
p2135
S'Contingency.1'
p2136
tp2137
F0.0006596306068601583
s(S'.2'
p2138
S'.2'
p2139
tp2140
F0.006596306068601583
s(S'Comparison.2'
p2141
Ntp2142
F0.0079155672823219
s(S'Implicit'
p2143
S'EntRel'
p2144
tp2145
F0.00625
s(S'.1'
p2146
S'.1'
p2147
tp2148
F0.0006596306068601583
s(S'.1'
p2149
Ntp2150
F0.029023746701846966
s(Ng2141
tp2151
F0.011213720316622692
s(g2143
S'Explicit'
p2152
tp2153
F0.0020833333333333333
s(S'Comparison.2'
p2154
g2147
tp2155
F0.0013192612137203166
s(NS'Contingency.1'
p2156
tp2157
F0.004617414248021108
s(S'EntRel'
p2158
S'Implicit'
p2159
tp2160
F0.004166666666666667
s(S'Expansion.1'
p2161
S'Expansion.1'
p2162
tp2163
F0.0006596306068601583
s(S'Implicit'
p2164
g2159
tp2165
F0.001388888888888889
s(NS'.2'
p2166
tp2167
F0.040237467018469655
s(S'.2'
p2168
S'Expansion.2'
p2169
tp2170
F0.001978891820580475
s(S'Explicit'
p2171
Ntp2172
F0.020833333333333332
s(S'Contingency.2'
p2173
S'.2'
p2174
tp2175
F0.001978891820580475
s(S'Explicit'
p2176
g2159
tp2177
F0.0006944444444444445
s(NS'Contingency.2'
p2178
tp2179
F0.004617414248021108
s(S'Comparison.1'
p2180
Ntp2181
F0.009234828496042216
s(S'Expansion.2'
p2182
g2132
tp2183
F0.0006596306068601583
s(S'Implicit'
p2184
Ntp2185
F0.041666666666666664
s(S'Expansion.1'
p2186
Ntp2187
F0.01978891820580475
s(S'EntRel'
p2188
Ntp2189
F0.04583333333333333
s(S'Expansion.2'
p2190
Ntp2191
F0.021767810026385226
s(NNtp2192
F0.71875
s(Ng2149
tp2193
F0.02836411609498681
s(Ng2188
tp2194
F0.05694444444444444
s(S'.2'
p2195
g2162
tp2196
F0.001978891820580475
s(g2178
Ntp2197
F0.00395778364116095
s(NS'Expansion.1'
p2198
tp2199
F0.017810026385224276
s(Ng2159
tp2200
F0.052083333333333336
s(g2168
S'Comparison.2'
p2201
tp2202
F0.0013192612137203166
s(S'Expansion.2'
p2203
S'.2'
p2204
tp2205
F0.00395778364116095
s(g2135
S'Comparison.1'
p2206
tp2207
F0.0006596306068601583
s(g2156
Ntp2208
F0.005277044854881266
s(S'EntRel'
p2209
S'EntRel'
p2210
tp2211
F0.007638888888888889
s(Ng2171
tp2212
F0.034722222222222224
s(NS'Expansion.2'
p2213
tp2214
F0.04551451187335093
s(S'Comparison.2'
p2215
g2204
tp2216
F0.004617414248021108
s(g2158
g2176
tp2217
F0.0020833333333333333
s(g2168
g2173
tp2218
F0.0013192612137203166
s(S'Expansion.2'
p2219
S'Expansion.2'
p2220
tp2221
F0.0006596306068601583
s(Ng2180
tp2222
F0.007255936675461741
s(g2166
Ntp2223
F0.02836411609498681
s(g2152
S'EntRel'
p2224
tp2225
F0.004861111111111111
s(S'Expansion.1'
p2226
g2146
tp2227
F0.0013192612137203166
s(g2226
g2154
tp2228
F0.0006596306068601583
ssS'apwsE960108.0238-2-2-0.perm-12.txt.pipe'
p2229
(dp2230
(S'Expansion.1'
p2231
Ntp2232
F0.1346153846153846
s(S'.1'
p2233
S'Expansion.1'
p2234
tp2235
F0.038461538461538464
s(S'Implicit'
p2236
S'Implicit'
p2237
tp2238
F0.010638297872340425
s(NS'.2'
p2239
tp2240
F0.09615384615384616
s(S'EntRel'
p2241
Ntp2242
F0.13829787234042554
s(NNtp2243
F0.32978723404255317
s(S'.1'
p2244
Ntp2245
F0.0673076923076923
s(Ng2241
tp2246
F0.10638297872340426
s(S'.2'
p2247
S'Expansion.2'
p2248
tp2249
F0.038461538461538464
s(S'Expansion.2'
p2250
S'Expansion.2'
p2251
tp2252
F0.009615384615384616
s(g2236
Ntp2253
F0.19148936170212766
s(g2248
Ntp2254
F0.08653846153846154
s(g2239
Ntp2255
F0.057692307692307696
s(Ng2231
tp2256
F0.09615384615384616
s(g2241
g2236
tp2257
F0.0851063829787234
s(Ng2236
tp2258
F0.13829787234042554
s(NS'Expansion.2'
p2259
tp2260
F0.07692307692307693
ssS'apwsE951010.0087-2-2-0.perm-10.txt.pipe'
p2261
(dp2262
(NS'Temporal.1'
p2263
tp2264
F0.01800327332242226
s(S'Comparison.2'
p2265
S'Temporal.2'
p2266
tp2267
F0.0016366612111292963
s(NS'Temporal.2'
p2268
tp2269
F0.06546644844517185
s(NS'Explicit'
p2270
tp2271
F0.12241379310344827
s(S'Comparison.2'
p2272
Ntp2273
F0.03436988543371522
s(S'Temporal.2'
p2274
S'Comparison.2'
p2275
tp2276
F0.019639934533551555
s(S'Explicit'
p2277
g2270
tp2278
F0.02413793103448276
s(NNtp2279
F0.7344827586206897
s(g2268
Ntp2280
F0.03927986906710311
s(NS'Comparison.2'
p2281
tp2282
F0.03600654664484452
s(NS'Comparison.1'
p2283
tp2284
F0.011456628477905073
s(S'Temporal.1'
p2285
S'Comparison.1'
p2286
tp2287
F0.0016366612111292963
s(S'Temporal.1'
p2288
Ntp2289
F0.02127659574468085
s(g2270
Ntp2290
F0.11896551724137931
s(g2283
Ntp2291
F0.054009819967266774
ssS'apwsE951001.0242-2-2-0.perm-13.txt.pipe'
p2292
(dp2293
sS'apwsE950425.0109-0-1.perm-10.txt.pipe'
p2294
(dp2295
sS'apwsE950213.0175-0-1.perm-1.txt.pipe'
p2296
(dp2297
sS'apwsE960102.0206-0-1.perm-13.txt.pipe'
p2298
(dp2299
sS'apwsE951001.0257-2-2-0.perm-1.txt.pipe'
p2300
(dp2301
(S'.1'
p2302
S'Expansion.1'
p2303
tp2304
F0.0029211295034079843
s(S'Temporal.2'
p2305
S'.2'
p2306
tp2307
F0.004868549172346641
s(S'.2'
p2308
S'.2'
p2309
tp2310
F0.016553067185978577
s(S'EntRel'
p2311
Ntp2312
F0.10414452709883103
s(NS'Implicit'
p2313
tp2314
F0.02975557917109458
s(g2313
g2311
tp2315
F0.003188097768331562
s(S'.1'
p2316
S'.1'
p2317
tp2318
F0.011684518013631937
s(NNtp2319
F0.6695005313496281
s(NS'.1'
p2320
tp2321
F0.05160662122687439
s(Ng2311
tp2322
F0.08607863974495218
s(S'Explicit'
p2323
S'Implicit'
p2324
tp2325
F0.0010626992561105207
s(g2313
Ntp2326
F0.024442082890541977
s(S'Expansion.2'
p2327
Ntp2328
F0.01557935735150925
s(g2323
S'EntRel'
p2329
tp2330
F0.011689691817215728
s(NS'Expansion.1'
p2331
tp2332
F0.014605647517039922
s(S'EntRel'
p2333
g2313
tp2334
F0.004250797024442083
s(g2320
Ntp2335
F0.06621226874391431
s(S'Expansion.2'
p2336
g2309
tp2337
F0.004868549172346641
s(S'.2'
p2338
g2317
tp2339
F0.004868549172346641
s(g2303
S'Expansion.1'
p2340
tp2341
F0.0009737098344693282
s(g2331
Ntp2342
F0.014605647517039922
s(S'Temporal.1'
p2343
S'.1'
p2344
tp2345
F0.0019474196689386564
s(NS'.2'
p2346
tp2347
F0.0691333982473223
s(g2311
g2329
tp2348
F0.031880977683315624
s(Ng2323
tp2349
F0.011689691817215728
s(S'Explicit'
p2350
Ntp2351
F0.020191285866099893
s(g2311
g2323
tp2352
F0.0021253985122210413
s(S'Temporal.2'
p2353
Ntp2354
F0.004868549172346641
s(S'.2'
p2355
S'Expansion.2'
p2356
tp2357
F0.0029211295034079843
s(g2346
Ntp2358
F0.06718597857838364
s(S'Temporal.1'
p2359
Ntp2360
F0.005842259006815969
s(S'Expansion.1'
p2361
S'.1'
p2362
tp2363
F0.0019474196689386564
s(Ng2327
tp2364
F0.023369036027263874
ssS'apwsE950620.0596-0-1.perm-1.txt.pipe'
p2365
(dp2366
sS'apwsE960508.0041-2-2-0.perm-1.txt.pipe'
p2367
(dp2368
sS'apwsE951024.0123-2-2-0.perm-11.txt.pipe'
p2369
(dp2370
(S'Expansion.1'
p2371
Ntp2372
F0.03205128205128205
s(NS'Explicit'
p2373
tp2374
F0.21153846153846154
s(S'Comparison.2'
p2375
Ntp2376
F0.03205128205128205
s(S'Explicit'
p2377
Ntp2378
F0.14743589743589744
s(S'Explicit'
p2379
S'Explicit'
p2380
tp2381
F0.01282051282051282
s(NNtp2382
F0.6282051282051282
s(NS'Comparison.2'
p2383
tp2384
F0.09615384615384616
s(NS'Comparison.1'
p2385
tp2386
F0.08333333333333333
s(S'Expansion.2'
p2387
Ntp2388
F0.03205128205128205
s(NS'Expansion.1'
p2389
tp2390
F0.01282051282051282
s(S'Expansion.2'
p2391
S'Comparison.1'
p2392
tp2393
F0.00641025641025641
s(Ng2387
tp2394
F0.019230769230769232
s(S'Expansion.1'
p2395
S'Comparison.2'
p2396
tp2397
F0.00641025641025641
s(S'Comparison.1'
p2398
Ntp2399
F0.05128205128205128
ssS'apwsE950919.0202-2-2-0.perm-1.txt.pipe'
p2400
(dp2401
sS'apwsE960313.0036-2-2-0.perm-11.txt.pipe'
p2402
(dp2403
sS'apwsE950914.0074-0-1.perm-12.txt.pipe'
p2404
(dp2405
sS'apwsE951020.0430-2-2-0.perm-12.txt.pipe'
p2406
(dp2407
(S'Comparison.2'
p2408
S'Expansion.2'
p2409
tp2410
F0.009950248756218905
s(S'Expansion.1'
p2411
Ntp2412
F0.08955223880597014
s(NS'Explicit'
p2413
tp2414
F0.1638418079096045
s(S'Comparison.2'
p2415
Ntp2416
F0.06467661691542288
s(S'Explicit'
p2417
Ntp2418
F0.1751412429378531
s(g2417
S'Explicit'
p2419
tp2420
F0.01694915254237288
s(NNtp2421
F0.6440677966101694
s(NS'Comparison.2'
p2422
tp2423
F0.024875621890547265
s(NS'Expansion.2'
p2424
tp2425
F0.10945273631840796
s(NS'Comparison.1'
p2426
tp2427
F0.03980099502487562
s(NS'Contingency.1'
p2428
tp2429
F0.014925373134328358
s(S'Comparison.2'
p2430
S'Contingency.2'
p2431
tp2432
F0.004975124378109453
s(NS'Contingency.2'
p2433
tp2434
F0.014925373134328358
s(S'Comparison.1'
p2435
Ntp2436
F0.05970149253731343
ssS'apwsE951003.0004-2-2-0.perm-13.txt.pipe'
p2437
(dp2438
(S'Expansion.2'
p2439
S'.1'
p2440
tp2441
F0.0014970059880239522
s(S'.1'
p2442
S'Expansion.1'
p2443
tp2444
F0.0014970059880239522
s(NS'EntRel'
p2445
tp2446
F0.11147540983606558
s(S'.2'
p2447
S'.2'
p2448
tp2449
F0.020958083832335328
s(g2445
Ntp2450
F0.10819672131147541
s(S'.1'
p2451
g2440
tp2452
F0.005988023952095809
s(NNtp2453
F0.6770491803278689
s(NS'.1'
p2454
tp2455
F0.058383233532934134
s(S'Expansion.2'
p2456
Ntp2457
F0.011976047904191617
s(NS'Expansion.1'
p2458
tp2459
F0.005988023952095809
s(g2454
Ntp2460
F0.06736526946107785
s(S'Expansion.2'
p2461
S'.2'
p2462
tp2463
F0.005988023952095809
s(S'.2'
p2464
S'.1'
p2465
tp2466
F0.005988023952095809
s(S'Expansion.1'
p2467
Ntp2468
F0.010479041916167664
s(NS'.2'
p2469
tp2470
F0.08682634730538923
s(S'EntRel'
p2471
S'EntRel'
p2472
tp2473
F0.03114754098360656
s(NS'Explicit'
p2474
tp2475
F0.036065573770491806
s(g2474
Ntp2476
F0.02459016393442623
s(S'EntRel'
p2477
g2474
tp2478
F0.001639344262295082
s(g2469
Ntp2479
F0.07035928143712575
s(g2474
g2445
tp2480
F0.009836065573770493
s(S'Expansion.1'
p2481
S'.1'
p2482
tp2483
F0.0014970059880239522
s(Ng2461
tp2484
F0.02694610778443114
ssS'apwsE950925.0091-0-1.perm-12.txt.pipe'
p2485
(dp2486
(NS'Explicit'
p2487
tp2488
F0.875
s(S'Expansion.1'
p2489
Ntp2490
F0.125
s(g2487
Ntp2491
F0.125
s(NS'Expansion.2'
p2492
tp2493
F0.875
ssS'apwsE951024.0123-2-2-0.perm-12.txt.pipe'
p2494
(dp2495
(S'Expansion.1'
p2496
Ntp2497
F0.03205128205128205
s(S'Explicit'
p2498
S'Explicit'
p2499
tp2500
F0.019230769230769232
s(NS'Explicit'
p2501
tp2502
F0.23076923076923078
s(S'Comparison.2'
p2503
Ntp2504
F0.03205128205128205
s(S'Explicit'
p2505
Ntp2506
F0.14102564102564102
s(S'Comparison.1'
p2507
S'Expansion.2'
p2508
tp2509
F0.00641025641025641
s(NNtp2510
F0.6089743589743589
s(NS'Comparison.2'
p2511
tp2512
F0.09615384615384616
s(NS'Comparison.1'
p2513
tp2514
F0.08333333333333333
s(S'Expansion.2'
p2515
Ntp2516
F0.03205128205128205
s(NS'Expansion.1'
p2517
tp2518
F0.02564102564102564
s(S'Expansion.2'
p2519
S'Comparison.1'
p2520
tp2521
F0.00641025641025641
s(NS'Expansion.2'
p2522
tp2523
F0.02564102564102564
s(S'Expansion.1'
p2524
S'Comparison.2'
p2525
tp2526
F0.00641025641025641
s(S'Comparison.1'
p2527
Ntp2528
F0.04487179487179487
ssS'apwsE960303.0090-2-2-0.perm-11.txt.pipe'
p2529
(dp2530
sS'apwsE950112.0297-0-1.perm-10.txt.pipe'
p2531
(dp2532
sS'apwsE951001.0328-2-2-0.perm-11.txt.pipe'
p2533
(dp2534
sS'apwsE951001.0328-2-2-0.perm-1.txt.pipe'
p2535
(dp2536
(NS'EntRel'
p2537
tp2538
F0.375
s(NS'.2'
p2539
tp2540
F0.375
s(g2537
Ntp2541
F0.2
s(NNtp2542
F0.425
s(S'.1'
p2543
Ntp2544
F0.2
ssS'apwsE950424.0128-0-1.perm-11.txt.pipe'
p2545
(dp2546
sS'apwsE951108.0165-2-2-0.perm-12.txt.pipe'
p2547
(dp2548
(S'Expansion.1'
p2549
Ntp2550
F0.07222222222222222
s(NS'Comparison.1'
p2551
tp2552
F0.03888888888888889
s(S'Expansion.2'
p2553
Ntp2554
F0.03888888888888889
s(NS'Comparison.2'
p2555
tp2556
F0.08333333333333333
s(NS'Explicit'
p2557
tp2558
F0.18888888888888888
s(S'Explicit'
p2559
Ntp2560
F0.15
s(NS'Expansion.2'
p2561
tp2562
F0.06666666666666667
s(NNtp2563
F0.6611111111111111
s(g2551
Ntp2564
F0.03888888888888889
ssS'apwsE951221.0056-2-2-0.perm-13.txt.pipe'
p2565
(dp2566
sS'apwsE951221.0049-2-2-0.perm-10.txt.pipe'
p2567
(dp2568
sS'apwsE960303.0090-2-2-0.perm-10.txt.pipe'
p2569
(dp2570
sS'apwsE950919.0580-2-2-0.perm-13.txt.pipe'
p2571
(dp2572
sS'apwsE951221.0049-2-2-0.perm-12.txt.pipe'
p2573
(dp2574
sS'apwsE960221.0036-0-1.perm-12.txt.pipe'
p2575
(dp2576
sS'apwsE960303.0079-2-2-0.perm-11.txt.pipe'
p2577
(dp2578
sS'apwsE951221.0001-0-1.perm-1.txt.pipe'
p2579
(dp2580
sS'apwsE951009.0244-2-2-0.perm-1.txt.pipe'
p2581
(dp2582
(S'.1'
p2583
S'Expansion.1'
p2584
tp2585
F0.0003795066413662239
s(S'Expansion.1'
p2586
S'Contingency.1'
p2587
tp2588
F0.0003795066413662239
s(S'.2'
p2589
S'.2'
p2590
tp2591
F0.0064516129032258064
s(S'Comparison.2'
p2592
Ntp2593
F0.003795066413662239
s(S'.1'
p2594
S'Comparison.2'
p2595
tp2596
F0.0003795066413662239
s(S'Implicit'
p2597
S'EntRel'
p2598
tp2599
F0.006392329204954055
s(S'.1'
p2600
S'.1'
p2601
tp2602
F0.0018975332068311196
s(S'.1'
p2603
Ntp2604
F0.023908918406072108
s(Ng2592
tp2605
F0.004933586337760911
s(S'Implicit'
p2606
S'Explicit'
p2607
tp2608
F0.0015980823012385138
s(S'Implicit'
p2609
Ntp2610
F0.044746304434678384
s(NS'Expansion.1'
p2611
tp2612
F0.020872865275142316
s(S'EntRel'
p2613
S'Implicit'
p2614
tp2615
F0.003995205753096284
s(S'Expansion.2'
p2616
S'Comparison.1'
p2617
tp2618
F0.0003795066413662239
s(g2586
S'Expansion.1'
p2619
tp2620
F0.0003795066413662239
s(g2606
g2609
tp2621
F0.006392329204954055
s(NS'.2'
p2622
tp2623
F0.02808349146110057
s(S'Explicit'
p2624
Ntp2625
F0.013983220135836995
s(S'Contingency.2'
p2626
S'Expansion.2'
p2627
tp2628
F0.0011385199240986717
s(NS'Temporal.1'
p2629
tp2630
F0.0003795066413662239
s(S'Explicit'
p2631
S'Implicit'
p2632
tp2633
F0.0015980823012385138
s(NS'Contingency.2'
p2634
tp2635
F0.0026565464895635673
s(g2616
g2587
tp2636
F0.0003795066413662239
s(S'Comparison.1'
p2637
Ntp2638
F0.004554079696394687
s(g2586
g2617
tp2639
F0.0003795066413662239
s(NS'Temporal.2'
p2640
tp2641
F0.0015180265654648956
s(S'Contingency.1'
p2642
Ntp2643
F0.0030360531309297912
s(S'EntRel'
p2644
Ntp2645
F0.044746304434678384
s(S'Expansion.2'
p2646
g2584
tp2647
F0.0007590132827324478
s(S'Expansion.2'
p2648
Ntp2649
F0.03149905123339659
s(NNtp2650
F0.7502996404314822
s(Ng2603
tp2651
F0.022770398481973434
s(Ng2644
tp2652
F0.04314822213343987
s(g2634
Ntp2653
F0.0022770398481973433
s(Ng2642
tp2654
F0.0026565464895635673
s(S'.1'
p2655
S'Expansion.2'
p2656
tp2657
F0.0003795066413662239
s(Ng2606
tp2658
F0.044746304434678384
s(S'Expansion.2'
p2659
S'.2'
p2660
tp2661
F0.007969639468690701
s(S'.2'
p2662
S'.1'
p2663
tp2664
F0.0015180265654648956
s(S'Comparison.2'
p2665
g2627
tp2666
F0.0011385199240986717
s(g2611
Ntp2667
F0.024667931688804556
s(S'Expansion.2'
p2668
g2648
tp2669
F0.0060721062618595825
s(S'EntRel'
p2670
S'EntRel'
p2671
tp2672
F0.009588493807431082
s(Ng2624
tp2673
F0.021574111066719935
s(Ng2668
tp2674
F0.039468690702087285
s(S'Comparison.2'
p2675
S'.2'
p2676
tp2677
F0.0011385199240986717
s(g2671
S'Explicit'
p2678
tp2679
F0.0007990411506192569
s(g2622
S'Expansion.2'
p2680
tp2681
F0.003415559772296015
s(S'Expansion.2'
p2682
g2665
tp2683
F0.0007590132827324478
s(g2682
g2626
tp2684
F0.0007590132827324478
s(Ng2637
tp2685
F0.004174573055028463
s(S'.2'
p2686
Ntp2687
F0.027703984819734344
s(g2631
S'EntRel'
p2688
tp2689
F0.006392329204954055
s(S'Expansion.1'
p2690
g2663
tp2691
F0.0022770398481973433
ssS'apwsE951018.0182-2-2-0.perm-12.txt.pipe'
p2692
(dp2693
sS'apwsE951215.0060-2-2-0.perm-10.txt.pipe'
p2694
(dp2695
(S'Expansion.1'
p2696
Ntp2697
F0.1875
s(S'Expansion.2'
p2698
Ntp2699
F0.4375
s(NS'Explicit'
p2700
tp2701
F0.375
s(NS'Contingency.1'
p2702
tp2703
F0.1875
s(S'Explicit'
p2704
Ntp2705
F0.625
s(NS'Contingency.2'
p2706
tp2707
F0.1875
ssS'apwsE950119.0186-0-1.perm-13.txt.pipe'
p2708
(dp2709
sS'apwsE960207.0018-2-2-0.perm-11.txt.pipe'
p2710
(dp2711
(S'Expansion.1'
p2712
S'Comparison.1'
p2713
tp2714
F0.014705882352941176
s(S'Expansion.1'
p2715
Ntp2716
F0.25
s(NS'Explicit'
p2717
tp2718
F0.34375
s(S'Comparison.2'
p2719
Ntp2720
F0.07352941176470588
s(S'Explicit'
p2721
Ntp2722
F0.421875
s(S'Explicit'
p2723
g2721
tp2724
F0.03125
s(NNtp2725
F0.203125
s(NS'Comparison.2'
p2726
tp2727
F0.014705882352941176
s(NS'Comparison.1'
p2728
tp2729
F0.058823529411764705
s(Ng2715
tp2730
F0.25
s(NS'Expansion.2'
p2731
tp2732
F0.058823529411764705
s(S'Comparison.2'
p2733
g2712
tp2734
F0.014705882352941176
s(S'Comparison.1'
p2735
Ntp2736
F0.07352941176470588
ssS'apwsE951221.0056-2-2-0.perm-12.txt.pipe'
p2737
(dp2738
sS'apwsE951009.0278-2-2-0.perm-1.txt.pipe'
p2739
(dp2740
(S'Expansion.1'
p2741
Ntp2742
F0.06338028169014084
s(NS'Temporal.2'
p2743
tp2744
F0.028169014084507043
s(S'Expansion.2'
p2745
Ntp2746
F0.02112676056338028
s(NS'Temporal.1'
p2747
tp2748
F0.007042253521126761
s(NS'Explicit'
p2749
tp2750
F0.10655737704918032
s(S'Comparison.2'
p2751
Ntp2752
F0.06338028169014084
s(S'Explicit'
p2753
Ntp2754
F0.22131147540983606
s(g2753
g2749
tp2755
F0.04918032786885246
s(NNtp2756
F0.6229508196721312
s(S'Expansion.2'
p2757
S'Expansion.2'
p2758
tp2759
F0.04225352112676056
s(S'Contingency.2'
p2760
Ntp2761
F0.06338028169014084
s(S'Contingency.1'
p2762
Ntp2763
F0.056338028169014086
s(NS'Expansion.2'
p2764
tp2765
F0.056338028169014086
s(S'Comparison.1'
p2766
Ntp2767
F0.06338028169014084
ssS'apwsE951010.0048-2-2-0.perm-1.txt.pipe'
p2768
(dp2769
(NS'Temporal.1'
p2770
tp2771
F0.0032414910858995136
s(NS'Temporal.2'
p2772
tp2773
F0.03727714748784441
s(S'Expansion.1'
p2774
Ntp2775
F0.011345218800648298
s(NS'Explicit'
p2776
tp2777
F0.09830508474576272
s(S'Comparison.2'
p2778
Ntp2779
F0.012965964343598054
s(S'Temporal.2'
p2780
S'Comparison.2'
p2781
tp2782
F0.0016207455429497568
s(S'Explicit'
p2783
S'Explicit'
p2784
tp2785
F0.001694915254237288
s(NNtp2786
F0.8203389830508474
s(S'Temporal.2'
p2787
Ntp2788
F0.017828200972447326
s(NS'Comparison.2'
p2789
tp2790
F0.04051863857374392
s(S'Expansion.2'
p2791
g2781
tp2792
F0.0016207455429497568
s(NS'Comparison.1'
p2793
tp2794
F0.012965964343598054
s(S'Expansion.2'
p2795
Ntp2796
F0.008103727714748784
s(S'Temporal.1'
p2797
Ntp2798
F0.027552674230145867
s(S'Explicit'
p2799
Ntp2800
F0.07966101694915254
s(S'Comparison.1'
p2801
Ntp2802
F0.04051863857374392
ssS'apwsE950827.0035-2-2-0.perm-11.txt.pipe'
p2803
(dp2804
sS'apwsE950119.0186-0-1.perm-11.txt.pipe'
p2805
(dp2806
sS'apwsE951222.0206-2-2-0.perm-11.txt.pipe'
p2807
(dp2808
(S'EntRel'
p2809
Ntp2810
F0.19594594594594594
s(S'EntRel'
p2811
g2809
tp2812
F0.04054054054054054
s(Ng2809
tp2813
F0.25675675675675674
s(NS'.2'
p2814
tp2815
F0.20652173913043478
s(S'.2'
p2816
S'.2'
p2817
tp2818
F0.03260869565217391
s(g2814
Ntp2819
F0.125
s(S'.1'
p2820
Ntp2821
F0.13043478260869565
s(NNtp2822
F0.5067567567567568
s(Ng2820
tp2823
F0.09782608695652174
ssS'apwsE960104.0037-0-1.perm-11.txt.pipe'
p2824
(dp2825
sS'apwsE951004.0060-2-2-0.perm-13.txt.pipe'
p2826
(dp2827
sS'apwsE960108.0238-2-2-0.perm-11.txt.pipe'
p2828
(dp2829
(S'Expansion.1'
p2830
Ntp2831
F0.125
s(S'Expansion.1'
p2832
S'.1'
p2833
tp2834
F0.025
s(NS'EntRel'
p2835
tp2836
F0.2
s(NS'.2'
p2837
tp2838
F0.1
s(g2835
Ntp2839
F0.125
s(NS'Implicit'
p2840
tp2841
F0.15
s(g2840
g2835
tp2842
F0.05
s(NNtp2843
F0.225
s(NS'.1'
p2844
tp2845
F0.1
s(g2840
Ntp2846
F0.25
s(S'Expansion.2'
p2847
Ntp2848
F0.125
s(g2844
Ntp2849
F0.125
s(Ng2847
tp2850
F0.15
s(S'Expansion.2'
p2851
S'.2'
p2852
tp2853
F0.025
ssS'apwsE960104.0037-0-1.perm-10.txt.pipe'
p2854
(dp2855
sS'apwsE950331.0603-0-1.perm-12.txt.pipe'
p2856
(dp2857
sS'apwsE960108.0194-2-2-0.perm-12.txt.pipe'
p2858
(dp2859
sS'apwsE951018.0170-2-2-0.perm-13.txt.pipe'
p2860
(dp2861
sS'apwsE951021.0001-2-2-0.perm-1.txt.pipe'
p2862
(dp2863
(S'Expansion.1'
p2864
Ntp2865
F0.04365079365079365
s(S'Comparison.2'
p2866
S'Comparison.1'
p2867
tp2868
F0.003968253968253968
s(S'Comparison.2'
p2869
Ntp2870
F0.01984126984126984
s(S'Explicit'
p2871
Ntp2872
F0.10683760683760683
s(g2871
S'Explicit'
p2873
tp2874
F0.004273504273504274
s(NNtp2875
F0.7649572649572649
s(Ng2869
tp2876
F0.051587301587301584
s(NS'Comparison.1'
p2877
tp2878
F0.027777777777777776
s(S'Expansion.2'
p2879
Ntp2880
F0.047619047619047616
s(Ng2864
tp2881
F0.01984126984126984
s(S'Expansion.2'
p2882
g2867
tp2883
F0.003968253968253968
s(Ng2879
tp2884
F0.051587301587301584
s(Ng2871
tp2885
F0.12393162393162394
s(g2877
Ntp2886
F0.01984126984126984
ssS'apwsE950822.0071-0-1.perm-10.txt.pipe'
p2887
(dp2888
sS'apwsE951024.0110-2-2-0.perm-1.txt.pipe'
p2889
(dp2890
(S'Expansion.1'
p2891
Ntp2892
F0.019230769230769232
s(S'Comparison.1'
p2893
S'Comparison.1'
p2894
tp2895
F0.028846153846153848
s(S'Comparison.2'
p2896
S'Comparison.2'
p2897
tp2898
F0.009615384615384616
s(NS'Explicit'
p2899
tp2900
F0.20192307692307693
s(S'Comparison.2'
p2901
Ntp2902
F0.057692307692307696
s(S'Explicit'
p2903
Ntp2904
F0.125
s(g2903
g2899
tp2905
F0.04807692307692308
s(NNtp2906
F0.625
s(NS'Comparison.2'
p2907
tp2908
F0.09615384615384616
s(NS'Comparison.1'
p2909
tp2910
F0.10576923076923077
s(S'Expansion.2'
p2911
Ntp2912
F0.028846153846153848
s(S'Comparison.1'
p2913
S'Comparison.2'
p2914
tp2915
F0.009615384615384616
s(S'Comparison.1'
p2916
Ntp2917
F0.019230769230769232
ssS'apwsE960303.0079-2-2-0.perm-1.txt.pipe'
p2918
(dp2919
sS'apwsE951203.0078-2-2-0.perm-11.txt.pipe'
p2920
(dp2921
sS'apwsE950307.0067-0-1.perm-1.txt.pipe'
p2922
(dp2923
sS'apwsE950307.0067-0-1.perm-11.txt.pipe'
p2924
(dp2925
sS'apwsE951001.0328-2-2-0.perm-10.txt.pipe'
p2926
(dp2927
(S'Expansion.1'
p2928
Ntp2929
F0.125
s(S'Implicit'
p2930
Ntp2931
F0.125
s(Ng2930
tp2932
F0.375
s(NS'Expansion.2'
p2933
tp2934
F0.375
s(NNtp2935
F0.5
ssS'apwsE950919.0594-2-2-0.perm-11.txt.pipe'
p2936
(dp2937
sS'apwsE960216.0241-2-2-0.perm-11.txt.pipe'
p2938
(dp2939
sS'apwsE951203.0078-2-2-0.perm-12.txt.pipe'
p2940
(dp2941
(NS'Comparison.2'
p2942
tp2943
F0.3125
s(NS'Comparison.1'
p2944
tp2945
F0.0625
s(S'Comparison.2'
p2946
S'Comparison.1'
p2947
tp2948
F0.125
s(S'Comparison.2'
p2949
Ntp2950
F0.125
s(S'Comparison.1'
p2951
S'Comparison.2'
p2952
tp2953
F0.0625
s(S'Explicit'
p2954
S'Explicit'
p2955
tp2956
F0.1875
s(Ng2955
tp2957
F0.375
s(S'Comparison.1'
p2958
Ntp2959
F0.3125
s(g2954
Ntp2960
F0.4375
ssS'apwsE950424.0128-0-1.perm-1.txt.pipe'
p2961
(dp2962
sS'apwsE951226.0004-2-2-0.perm-11.txt.pipe'
p2963
(dp2964
(NS'Explicit'
p2965
tp2966
F0.4827586206896552
s(S'Expansion.1'
p2967
Ntp2968
F0.5172413793103449
s(g2965
Ntp2969
F0.5172413793103449
s(NS'Expansion.2'
p2970
tp2971
F0.4827586206896552
ssS'apwsE950925.0091-0-1.perm-13.txt.pipe'
p2972
(dp2973
(NS'Explicit'
p2974
tp2975
F0.5909090909090909
s(S'Expansion.1'
p2976
Ntp2977
F0.4090909090909091
s(g2974
Ntp2978
F0.4090909090909091
s(NS'Expansion.2'
p2979
tp2980
F0.5909090909090909
ssS'apwsE951125.0054-2-2-0.perm-10.txt.pipe'
p2981
(dp2982
(S'Comparison.2'
p2983
S'Expansion.2'
p2984
tp2985
F0.04054054054054054
s(S'Expansion.1'
p2986
Ntp2987
F0.1891891891891892
s(S'Implicit'
p2988
Ntp2989
F0.1891891891891892
s(NS'Explicit'
p2990
tp2991
F0.16216216216216217
s(S'Comparison.2'
p2992
Ntp2993
F0.05405405405405406
s(S'Explicit'
p2994
Ntp2995
F0.20270270270270271
s(NNtp2996
F0.3783783783783784
s(NS'Comparison.2'
p2997
tp2998
F0.16216216216216217
s(g2994
g2988
tp2999
F0.04054054054054054
s(Ng2988
tp3000
F0.02702702702702703
s(NS'Expansion.2'
p3001
tp3002
F0.02702702702702703
s(S'Comparison.1'
p3003
Ntp3004
F0.14864864864864866
ssS'apwsE960102.0206-0-1.perm-11.txt.pipe'
p3005
(dp3006
(S'Expansion.1'
p3007
Ntp3008
F0.7
s(NS'Implicit'
p3009
tp3010
F0.3
s(NS'Expansion.2'
p3011
tp3012
F0.3
s(g3009
Ntp3013
F0.7
ssS'apwsE951010.0087-2-2-0.perm-12.txt.pipe'
p3014
(dp3015
(NS'Temporal.1'
p3016
tp3017
F0.018425460636515914
s(NS'Temporal.2'
p3018
tp3019
F0.048576214405360134
s(S'Comparison.1'
p3020
Ntp3021
F0.021775544388609715
s(NS'Comparison.2'
p3022
tp3023
F0.04020100502512563
s(NS'Explicit'
p3024
tp3025
F0.10756302521008404
s(S'Temporal.1'
p3026
Ntp3027
F0.031825795644891124
s(S'Explicit'
p3028
Ntp3029
F0.08067226890756303
s(NNtp3030
F0.8117647058823529
s(S'Temporal.2'
p3031
Ntp3032
F0.03015075376884422
ssS'apwsE951003.0485-2-2-0.perm-11.txt.pipe'
p3033
(dp3034
sS'apwsE950919.0202-2-2-0.perm-12.txt.pipe'
p3035
(dp3036
sS'apwsE951010.0048-2-2-0.perm-13.txt.pipe'
p3037
(dp3038
(S'Temporal.2'
p3039
S'Temporal.2'
p3040
tp3041
F0.001669449081803005
s(NS'Temporal.2'
p3042
tp3043
F0.041736227045075125
s(S'Comparison.2'
p3044
S'Comparison.2'
p3045
tp3046
F0.001669449081803005
s(S'Expansion.1'
p3047
Ntp3048
F0.011686143572621035
s(S'Temporal.1'
p3049
S'Temporal.2'
p3050
tp3051
F0.001669449081803005
s(S'Comparison.2'
p3052
Ntp3053
F0.01669449081803005
s(S'Explicit'
p3054
S'Explicit'
p3055
tp3056
F0.00909090909090909
s(NNtp3057
F0.7672727272727272
s(g3049
S'Expansion.2'
p3058
tp3059
F0.001669449081803005
s(NS'Comparison.2'
p3060
tp3061
F0.038397328881469114
s(S'Expansion.2'
p3062
Ntp3063
F0.008347245409015025
s(Ng3047
tp3064
F0.01001669449081803
s(NS'Temporal.1'
p3065
tp3066
F0.02003338898163606
s(S'Temporal.1'
p3067
S'Temporal.1'
p3068
tp3069
F0.00333889816360601
s(NS'Explicit'
p3070
tp3071
F0.11636363636363636
s(S'Temporal.2'
p3072
g3052
tp3073
F0.001669449081803005
s(S'Expansion.2'
p3074
g3040
tp3075
F0.001669449081803005
s(g3067
S'Expansion.1'
p3076
tp3077
F0.001669449081803005
s(S'Temporal.2'
p3078
Ntp3079
F0.03672787979966611
s(NS'Comparison.1'
p3080
tp3081
F0.01335559265442404
s(S'Temporal.1'
p3082
Ntp3083
F0.038397328881469114
s(Ng3062
tp3084
F0.008347245409015025
s(S'Explicit'
p3085
Ntp3086
F0.10727272727272727
s(S'Comparison.1'
p3087
Ntp3088
F0.03672787979966611
ssS'apwsE960203.0270-2-2-0.perm-12.txt.pipe'
p3089
(dp3090
sS'apwsE950827.0035-2-2-0.perm-1.txt.pipe'
p3091
(dp3092
(S'Comparison.1'
p3093
S'Contingency.1'
p3094
tp3095
F0.02702702702702703
s(S'Explicit'
p3096
S'Explicit'
p3097
tp3098
F0.11538461538461539
s(Ng3097
tp3099
F0.4230769230769231
s(S'Comparison.2'
p3100
Ntp3101
F0.16216216216216217
s(g3096
Ntp3102
F0.46153846153846156
s(S'Comparison.1'
p3103
S'Contingency.2'
p3104
tp3105
F0.02702702702702703
s(S'Temporal.1'
p3106
g3094
tp3107
F0.02702702702702703
s(S'Temporal.2'
p3108
Ntp3109
F0.16216216216216217
s(S'Temporal.1'
p3110
Ntp3111
F0.08108108108108109
s(NS'Contingency.1'
p3112
tp3113
F0.02702702702702703
s(S'Temporal.2'
p3114
g3104
tp3115
F0.02702702702702703
s(NS'Contingency.2'
p3116
tp3117
F0.2702702702702703
s(S'Comparison.2'
p3118
S'Contingency.1'
p3119
tp3120
F0.02702702702702703
s(S'Comparison.1'
p3121
Ntp3122
F0.16216216216216217
ssS'apwsE960216.0241-2-2-0.perm-12.txt.pipe'
p3123
(dp3124
sS'apwsE951106.0072-2-2-0.perm-13.txt.pipe'
p3125
(dp3126
sS'apwsE951009.0216-2-2-0.perm-13.txt.pipe'
p3127
(dp3128
sS'apwsE951020.0430-2-2-0.perm-13.txt.pipe'
p3129
(dp3130
(S'Expansion.1'
p3131
Ntp3132
F0.06060606060606061
s(S'Expansion.1'
p3133
S'Expansion.1'
p3134
tp3135
F0.005050505050505051
s(NS'Explicit'
p3136
tp3137
F0.18333333333333332
s(S'Comparison.2'
p3138
Ntp3139
F0.030303030303030304
s(S'Explicit'
p3140
Ntp3141
F0.16111111111111112
s(S'Explicit'
p3142
g3136
tp3143
F0.03888888888888889
s(NNtp3144
F0.6166666666666667
s(NS'Comparison.2'
p3145
tp3146
F0.020202020202020204
s(S'Expansion.2'
p3147
S'Expansion.2'
p3148
tp3149
F0.025252525252525252
s(NS'Comparison.1'
p3150
tp3151
F0.04040404040404041
s(S'Expansion.2'
p3152
Ntp3153
F0.030303030303030304
s(Ng3131
tp3154
F0.06565656565656566
s(NS'Expansion.2'
p3155
tp3156
F0.11616161616161616
s(S'Expansion.1'
p3157
S'Comparison.2'
p3158
tp3159
F0.005050505050505051
s(S'Comparison.1'
p3160
Ntp3161
F0.04040404040404041
ssS'apwsE951125.0054-2-2-0.perm-13.txt.pipe'
p3162
(dp3163
(NS'Comparison.2'
p3164
tp3165
F0.38235294117647056
s(NS'Explicit'
p3166
tp3167
F0.38235294117647056
s(g3166
Ntp3168
F0.2647058823529412
s(NNtp3169
F0.35294117647058826
s(S'Comparison.1'
p3170
Ntp3171
F0.2647058823529412
ssS'apwsE960109.0130-2-2-0.perm-13.txt.pipe'
p3172
(dp3173
(S'.1'
p3174
S'Contingency.1'
p3175
tp3176
F0.0007627765064836003
s(S'Contingency.2'
p3177
Ntp3178
F0.005339435545385202
s(g3175
Ntp3179
F0.0007627765064836003
s(S'EntRel'
p3180
Ntp3181
F0.09631490787269682
s(S'Implicit'
p3182
S'EntRel'
p3183
tp3184
F0.007537688442211055
s(g3174
S'.1'
p3185
tp3186
F0.006102212051868803
s(NNtp3187
F0.7093802345058626
s(NS'.1'
p3188
tp3189
F0.05568268497330282
s(Ng3183
tp3190
F0.09547738693467336
s(NS'Comparison.2'
p3191
tp3192
F0.0038138825324180014
s(g3182
Ntp3193
F0.020100502512562814
s(S'.2'
p3194
g3175
tp3195
F0.0007627765064836003
s(S'Expansion.2'
p3196
Ntp3197
F0.012967200610221205
s(NS'Expansion.1'
p3198
tp3199
F0.005339435545385202
s(S'EntRel'
p3200
S'Implicit'
p3201
tp3202
F0.0033500837520938024
s(S'.1'
p3203
Ntp3204
F0.06559877955758962
s(S'Expansion.2'
p3205
S'.2'
p3206
tp3207
F0.006864988558352402
s(g3194
g3185
tp3208
F0.0030511060259344014
s(g3198
Ntp3209
F0.005339435545385202
s(Ng3182
tp3210
F0.024288107202680067
s(NS'.2'
p3211
tp3212
F0.07551487414187644
s(S'EntRel'
p3213
S'EntRel'
p3214
tp3215
F0.020100502512562814
s(NS'Explicit'
p3216
tp3217
F0.015912897822445562
s(Ng3177
tp3218
F0.005339435545385202
s(S'Explicit'
p3219
Ntp3220
F0.006700167504187605
s(S'.2'
p3221
S'.2'
p3222
tp3223
F0.012204424103737605
s(g3213
g3219
tp3224
F0.0008375209380234506
s(S'.2'
p3225
S'Expansion.2'
p3226
tp3227
F0.0030511060259344014
s(NS'Comparison.1'
p3228
tp3229
F0.005339435545385202
s(S'.2'
p3230
Ntp3231
F0.06331045003813883
s(Ng3205
tp3232
F0.016781083142639208
ssS'apwsE951122.0004-0-1.perm-11.txt.pipe'
p3233
(dp3234
sS'apwsE960122.0410-0-1.perm-12.txt.pipe'
p3235
(dp3236
sS'apwsE951121.0037-2-2-0.perm-1.txt.pipe'
p3237
(dp3238
(NS'Explicit'
p3239
tp3240
F0.5555555555555556
s(NS'Comparison.2'
p3241
tp3242
F0.5555555555555556
s(NNtp3243
F0.4444444444444444
ssS'apwsE960313.0036-2-2-0.perm-13.txt.pipe'
p3244
(dp3245
sS'apwsE960122.0410-0-1.perm-11.txt.pipe'
p3246
(dp3247
(NS'Comparison.2'
p3248
tp3249
F0.2608695652173913
s(S'Comparison.1'
p3250
S'Comparison.1'
p3251
tp3252
F0.08695652173913043
s(NS'Comparison.1'
p3253
tp3254
F0.17391304347826086
s(S'Comparison.2'
p3255
S'Comparison.1'
p3256
tp3257
F0.043478260869565216
s(S'Comparison.2'
p3258
Ntp3259
F0.34782608695652173
s(S'Explicit'
p3260
Ntp3261
F0.43478260869565216
s(g3260
S'Explicit'
p3262
tp3263
F0.13043478260869565
s(Ng3262
tp3264
F0.43478260869565216
s(S'Comparison.1'
p3265
Ntp3266
F0.08695652173913043
ssS'apwsE951222.0206-2-2-0.perm-1.txt.pipe'
p3267
(dp3268
sS'apwsE951021.0001-2-2-0.perm-11.txt.pipe'
p3269
(dp3270
(S'Explicit'
p3271
S'Explicit'
p3272
tp3273
F0.03424657534246575
s(S'Expansion.2'
p3274
Ntp3275
F0.020066889632107024
s(S'Expansion.1'
p3276
Ntp3277
F0.023411371237458192
s(S'Comparison.2'
p3278
Ntp3279
F0.043478260869565216
s(S'Contingency.2'
p3280
S'Expansion.1'
p3281
tp3282
F0.0033444816053511705
s(S'Comparison.1'
p3283
S'Contingency.2'
p3284
tp3285
F0.0033444816053511705
s(NNtp3286
F0.6643835616438356
s(NS'Comparison.2'
p3287
tp3288
F0.026755852842809364
s(S'Contingency.2'
p3289
Ntp3290
F0.030100334448160536
s(NS'Contingency.1'
p3291
tp3292
F0.006688963210702341
s(NS'Expansion.1'
p3293
tp3294
F0.013377926421404682
s(S'Expansion.2'
p3295
S'Comparison.1'
p3296
tp3297
F0.0033444816053511705
s(S'Contingency.1'
p3298
S'Expansion.1'
p3299
tp3300
F0.0033444816053511705
s(S'Comparison.2'
p3301
S'Expansion.2'
p3302
tp3303
F0.010033444816053512
s(S'Contingency.1'
p3304
Ntp3305
F0.013377926421404682
s(NS'Explicit'
p3306
tp3307
F0.136986301369863
s(NS'Expansion.2'
p3308
tp3309
F0.033444816053511704
s(g3306
Ntp3310
F0.1643835616438356
s(g3302
g3278
tp3311
F0.006688963210702341
s(NS'Comparison.1'
p3312
tp3313
F0.043478260869565216
s(NS'Contingency.2'
p3314
tp3315
F0.010033444816053512
s(g3287
S'Contingency.1'
p3316
tp3317
F0.0033444816053511705
s(g3312
Ntp3318
F0.05351170568561873
ssS'apwsE951226.0004-2-2-0.perm-10.txt.pipe'
p3319
(dp3320
(NS'Explicit'
p3321
tp3322
F0.6470588235294118
s(S'Expansion.1'
p3323
Ntp3324
F0.35294117647058826
s(g3321
Ntp3325
F0.35294117647058826
s(NS'Expansion.2'
p3326
tp3327
F0.6470588235294118
ssS'apwsE950213.0175-0-1.perm-11.txt.pipe'
p3328
(dp3329
sS'apwsE951009.0245-2-2-0.perm-10.txt.pipe'
p3330
(dp3331
(S'.1'
p3332
S'Expansion.1'
p3333
tp3334
F0.0027491408934707906
s(S'Expansion.1'
p3335
g3333
tp3336
F0.002061855670103093
s(S'.2'
p3337
S'.2'
p3338
tp3339
F0.002061855670103093
s(S'Comparison.2'
p3340
Ntp3341
F0.006872852233676976
s(S'Implicit'
p3342
S'EntRel'
p3343
tp3344
F0.009034051424600417
s(S'.1'
p3345
S'.1'
p3346
tp3347
F0.0006872852233676976
s(S'.1'
p3348
Ntp3349
F0.010309278350515464
s(Ng3340
tp3350
F0.008934707903780068
s(S'Implicit'
p3351
Ntp3352
F0.043085476025017375
s(NS'Contingency.1'
p3353
tp3354
F0.005498281786941581
s(S'EntRel'
p3355
S'Implicit'
p3356
tp3357
F0.004864489228630994
s(S'Implicit'
p3358
S'Implicit'
p3359
tp3360
F0.006949270326615705
s(NS'.2'
p3361
tp3362
F0.017869415807560136
s(S'Explicit'
p3363
Ntp3364
F0.020847810979847115
s(S'Temporal.2'
p3365
Ntp3366
F0.0027491408934707906
s(S'Explicit'
p3367
g3356
tp3368
F0.0020847810979847115
s(S'Temporal.1'
p3369
Ntp3370
F0.0006872852233676976
s(NS'Expansion.2'
p3371
tp3372
F0.03436426116838488
s(S'Comparison.1'
p3373
Ntp3374
F0.004810996563573883
s(S'Expansion.2'
p3375
g3345
tp3376
F0.0006872852233676976
s(Ng3365
tp3377
F0.0027491408934707906
s(Ng3369
tp3378
F0.0006872852233676976
s(S'EntRel'
p3379
Ntp3380
F0.02849200833912439
s(S'Expansion.2'
p3381
g3333
tp3382
F0.0013745704467353953
s(NNtp3383
F0.7699791521890201
s(Ng3348
tp3384
F0.012371134020618556
s(Ng3379
tp3385
F0.024322446143154968
s(S'.2'
p3386
S'Expansion.1'
p3387
tp3388
F0.0013745704467353953
s(S'Expansion.2'
p3389
Ntp3390
F0.017869415807560136
s(NS'Expansion.1'
p3391
tp3392
F0.017869415807560136
s(Ng3351
tp3393
F0.04586518415566365
s(S'Expansion.2'
p3394
S'.2'
p3395
tp3396
F0.008247422680412371
s(g3391
Ntp3397
F0.029553264604810996
s(g3379
g3355
tp3398
F0.002779708130646282
s(NS'Explicit'
p3399
tp3400
F0.034051424600416956
s(NS'Contingency.2'
p3401
tp3402
F0.006872852233676976
s(g3379
g3367
tp3403
F0.001389854065323141
s(S'.2'
p3404
S'Expansion.2'
p3405
tp3406
F0.002061855670103093
s(S'Expansion.2'
p3407
g3405
tp3408
F0.004810996563573883
s(NS'Comparison.1'
p3409
tp3410
F0.008934707903780068
s(g3361
Ntp3411
F0.02268041237113402
s(g3363
g3343
tp3412
F0.006254343293954135
s(S'Expansion.1'
p3413
g3345
tp3414
F0.0006872852233676976
ssS'apwsE951021.0001-2-2-0.perm-10.txt.pipe'
p3415
(dp3416
(S'Comparison.2'
p3417
S'Expansion.2'
p3418
tp3419
F0.01090909090909091
s(S'Expansion.1'
p3420
Ntp3421
F0.08727272727272728
s(S'Implicit'
p3422
Ntp3423
F0.06563706563706563
s(NS'Explicit'
p3424
tp3425
F0.06563706563706563
s(S'Comparison.2'
p3426
Ntp3427
F0.014545454545454545
s(S'Explicit'
p3428
Ntp3429
F0.10038610038610038
s(S'Explicit'
p3430
g3428
tp3431
F0.011583011583011582
s(NNtp3432
F0.7297297297297297
s(S'Temporal.2'
p3433
Ntp3434
F0.014545454545454545
s(NS'Comparison.2'
p3435
tp3436
F0.02181818181818182
s(NS'Comparison.1'
p3437
tp3438
F0.01818181818181818
s(g3418
Ntp3439
F0.03272727272727273
s(S'Temporal.1'
p3440
Ntp3441
F0.02181818181818182
s(NS'Expansion.1'
p3442
tp3443
F0.01818181818181818
s(Ng3422
tp3444
F0.02702702702702703
s(NS'Expansion.2'
p3445
tp3446
F0.06181818181818182
s(S'Comparison.1'
p3447
Ntp3448
F0.01090909090909091
ssS'apwsE951021.0001-2-2-0.perm-13.txt.pipe'
p3449
(dp3450
(S'Comparison.2'
p3451
S'Expansion.2'
p3452
tp3453
F0.016304347826086956
s(S'Contingency.1'
p3454
Ntp3455
F0.010869565217391304
s(NS'Implicit'
p3456
tp3457
F0.03409090909090909
s(g3456
Ntp3458
F0.022727272727272728
s(g3451
S'Comparison.2'
p3459
tp3460
F0.008152173913043478
s(S'Expansion.1'
p3461
Ntp3462
F0.04076086956521739
s(NS'Explicit'
p3463
tp3464
F0.09375
s(S'Comparison.2'
p3465
Ntp3466
F0.029891304347826088
s(S'Explicit'
p3467
Ntp3468
F0.10795454545454546
s(S'Explicit'
p3469
g3467
tp3470
F0.03125
s(NNtp3471
F0.7102272727272727
s(Ng3451
tp3472
F0.029891304347826088
s(S'Contingency.2'
p3473
S'Comparison.2'
p3474
tp3475
F0.005434782608695652
s(NS'Comparison.1'
p3476
tp3477
F0.043478260869565216
s(S'Contingency.2'
p3478
Ntp3479
F0.016304347826086956
s(NS'Expansion.1'
p3480
tp3481
F0.01358695652173913
s(S'Contingency.2'
p3482
S'Comparison.1'
p3483
tp3484
F0.005434782608695652
s(NS'Expansion.2'
p3485
tp3486
F0.051630434782608696
s(S'Contingency.1'
p3487
S'Comparison.1'
p3488
tp3489
F0.002717391304347826
s(g3483
Ntp3490
F0.04619565217391304
ssS'apwsE960214.0448-2-2-0.perm-11.txt.pipe'
p3491
(dp3492
sS'apwsE951122.0004-0-1.perm-10.txt.pipe'
p3493
(dp3494
sS'apwsE960214.0448-2-2-0.perm-1.txt.pipe'
p3495
(dp3496
sS'apwsE951023.0357-2-2-0.perm-12.txt.pipe'
p3497
(dp3498
sS'apwsE951023.0362-2-2-0.perm-13.txt.pipe'
p3499
(dp3500
sS'apwsE951018.0182-2-2-0.perm-10.txt.pipe'
p3501
(dp3502
sS'apwsE951108.0165-2-2-0.perm-13.txt.pipe'
p3503
(dp3504
(S'Expansion.1'
p3505
S'Comparison.1'
p3506
tp3507
F0.005291005291005291
s(S'Expansion.1'
p3508
Ntp3509
F0.07936507936507936
s(NS'Explicit'
p3510
tp3511
F0.164021164021164
s(S'Explicit'
p3512
Ntp3513
F0.15343915343915343
s(g3512
S'Explicit'
p3514
tp3515
F0.005291005291005291
s(NNtp3516
F0.6772486772486772
s(NS'Comparison.2'
p3517
tp3518
F0.07936507936507936
s(NS'Comparison.1'
p3519
tp3520
F0.031746031746031744
s(S'Expansion.2'
p3521
Ntp3522
F0.037037037037037035
s(NS'Expansion.2'
p3523
tp3524
F0.05291005291005291
s(g3519
Ntp3525
F0.037037037037037035
ssS'apwsE951023.0357-2-2-0.perm-1.txt.pipe'
p3526
(dp3527
sS'apwsE951226.0004-2-2-0.perm-12.txt.pipe'
p3528
(dp3529
(NS'Explicit'
p3530
tp3531
F0.9130434782608695
s(S'Expansion.1'
p3532
Ntp3533
F0.08695652173913043
s(g3530
Ntp3534
F0.08695652173913043
s(NS'Expansion.2'
p3535
tp3536
F0.9130434782608695
ssS'apwsE951210.0356-2-2-0.perm-13.txt.pipe'
p3537
(dp3538
sS'apwsE951009.0245-2-2-0.perm-11.txt.pipe'
p3539
(dp3540
(S'Implicit'
p3541
Ntp3542
F0.04911479154768703
s(S'Expansion.1'
p3543
S'Contingency.1'
p3544
tp3545
F0.0005330490405117271
s(S'.2'
p3546
S'.2'
p3547
tp3548
F0.0031982942430703624
s(S'Comparison.2'
p3549
Ntp3550
F0.006929637526652452
s(S'Explicit'
p3551
S'Explicit'
p3552
tp3553
F0.0005711022272986865
s(S'Implicit'
p3554
S'EntRel'
p3555
tp3556
F0.002284408909194746
s(S'.1'
p3557
Ntp3558
F0.013859275053304905
s(Ng3549
tp3559
F0.007995735607675906
s(S'Implicit'
p3560
S'Explicit'
p3561
tp3562
F0.0017133066818960593
s(NS'Expansion.1'
p3563
tp3564
F0.023454157782515993
s(S'Comparison.2'
p3565
S'Comparison.2'
p3566
tp3567
F0.0015991471215351812
s(S'Implicit'
p3568
S'Implicit'
p3569
tp3570
F0.009708737864077669
s(NS'.2'
p3571
tp3572
F0.015991471215351813
s(S'Expansion.1'
p3573
S'Expansion.1'
p3574
tp3575
F0.0026652452025586353
s(S'Explicit'
p3576
Ntp3577
F0.02569960022844089
s(g3561
g3569
tp3578
F0.0057110222729868645
s(NS'Contingency.2'
p3579
tp3580
F0.004797441364605544
s(S'Comparison.1'
p3581
Ntp3582
F0.009594882729211088
s(S'Expansion.2'
p3583
S'.1'
p3584
tp3585
F0.0005330490405117271
s(S'Comparison.2'
p3586
S'Expansion.2'
p3587
tp3588
F0.0021321961620469083
s(NS'Temporal.2'
p3589
tp3590
F0.0021321961620469083
s(NS'Temporal.1'
p3591
tp3592
F0.0005330490405117271
s(S'EntRel'
p3593
Ntp3594
F0.017133066818960593
s(S'Expansion.2'
p3595
g3574
tp3596
F0.0021321961620469083
s(NNtp3597
F0.7852655625356939
s(g3579
Ntp3598
F0.0031982942430703624
s(Ng3557
tp3599
F0.013326226012793176
s(Ng3593
tp3600
F0.020559680182752713
s(S'Expansion.2'
p3601
Ntp3602
F0.037846481876332626
s(NS'Contingency.1'
p3603
tp3604
F0.0037313432835820895
s(NS'Implicit'
p3605
tp3606
F0.05653912050256996
s(g3603
Ntp3607
F0.0042643923240938165
s(S'Expansion.2'
p3608
S'.2'
p3609
tp3610
F0.0015991471215351812
s(g3543
S'Comparison.1'
p3611
tp3612
F0.0005330490405117271
s(g3563
Ntp3613
F0.028784648187633263
s(g3593
S'EntRel'
p3614
tp3615
F0.0034266133637921186
s(Ng3576
tp3616
F0.02227298686464877
s(NS'Expansion.2'
p3617
tp3618
F0.04477611940298507
s(S'Comparison.2'
p3619
S'Expansion.1'
p3620
tp3621
F0.0005330490405117271
s(S'Contingency.2'
p3622
g3566
tp3623
F0.0015991471215351812
s(S'Expansion.2'
p3624
S'Expansion.2'
p3625
tp3626
F0.005863539445628998
s(Ng3581
tp3627
F0.00906183368869936
s(g3571
Ntp3628
F0.012260127931769723
s(S'Expansion.1'
p3629
g3584
tp3630
F0.0005330490405117271
s(S'Expansion.1'
p3631
S'Comparison.2'
p3632
tp3633
F0.0010660980810234541
ssS'apwsE951018.0170-2-2-0.perm-11.txt.pipe'
p3634
(dp3635
sS'apwsE951108.0165-2-2-0.perm-11.txt.pipe'
p3636
(dp3637
(S'Expansion.1'
p3638
Ntp3639
F0.0603448275862069
s(NS'Explicit'
p3640
tp3641
F0.19827586206896552
s(g3640
Ntp3642
F0.06896551724137931
s(NNtp3643
F0.7327586206896551
s(NS'Comparison.2'
p3644
tp3645
F0.11206896551724138
s(NS'Expansion.2'
p3646
tp3647
F0.08620689655172414
s(S'Comparison.1'
p3648
Ntp3649
F0.008620689655172414
ssS'apwsE951001.0279-2-2-0.perm-11.txt.pipe'
p3650
(dp3651
(NS'EntRel'
p3652
tp3653
F0.4418604651162791
s(NS'.2'
p3654
tp3655
F0.4418604651162791
s(g3652
Ntp3656
F0.18604651162790697
s(NNtp3657
F0.37209302325581395
s(S'.1'
p3658
Ntp3659
F0.18604651162790697
ssS'apwsE951024.0005-2-2-0.perm-12.txt.pipe'
p3660
(dp3661
(S'Explicit'
p3662
S'Explicit'
p3663
tp3664
F0.043478260869565216
s(NS'Expansion.1'
p3665
tp3666
F0.08695652173913043
s(Ng3663
tp3667
F0.2608695652173913
s(S'Comparison.2'
p3668
Ntp3669
F0.2608695652173913
s(g3662
Ntp3670
F0.43478260869565216
s(S'Comparison.1'
p3671
S'Expansion.2'
p3672
tp3673
F0.043478260869565216
s(NS'Expansion.2'
p3674
tp3675
F0.17391304347826086
s(NNtp3676
F0.2608695652173913
s(S'Comparison.1'
p3677
Ntp3678
F0.17391304347826086
ssS'apwsE951004.0060-2-2-0.perm-11.txt.pipe'
p3679
(dp3680
(S'Comparison.2'
p3681
S'Comparison.2'
p3682
tp3683
F0.07894736842105263
s(NS'Explicit'
p3684
tp3685
F0.4473684210526316
s(S'Comparison.2'
p3686
Ntp3687
F0.34210526315789475
s(S'Explicit'
p3688
Ntp3689
F0.47368421052631576
s(g3688
g3684
tp3690
F0.07894736842105263
s(NS'Comparison.2'
p3691
tp3692
F0.13157894736842105
s(NS'Comparison.1'
p3693
tp3694
F0.3157894736842105
s(S'Comparison.1'
p3695
Ntp3696
F0.13157894736842105
ssS'apwsE951009.0226-2-2-0.perm-1.txt.pipe'
p3697
(dp3698
sS'apwsE960303.0090-2-2-0.perm-12.txt.pipe'
p3699
(dp3700
(S'Expansion.1'
p3701
Ntp3702
F0.08571428571428572
s(NS'Comparison.1'
p3703
tp3704
F0.4
s(S'Expansion.2'
p3705
Ntp3706
F0.2571428571428571
s(NS'Comparison.2'
p3707
tp3708
F0.2571428571428571
s(NS'Explicit'
p3709
tp3710
F0.6571428571428571
s(S'Explicit'
p3711
Ntp3712
F0.34285714285714286
ssS'apwsE960216.0269-2-2-0.perm-12.txt.pipe'
p3713
(dp3714
(S'Implicit'
p3715
Ntp3716
F0.037463976945244955
s(S'Temporal.2'
p3717
S'.2'
p3718
tp3719
F0.007518796992481203
s(S'.2'
p3720
S'.2'
p3721
tp3722
F0.022556390977443608
s(S'Comparison.2'
p3723
Ntp3724
F0.010025062656641603
s(S'Explicit'
p3725
S'Explicit'
p3726
tp3727
F0.01729106628242075
s(S'.2'
p3728
S'Temporal.1'
p3729
tp3730
F0.005012531328320802
s(S'.1'
p3731
S'.1'
p3732
tp3733
F0.007518796992481203
s(g3732
Ntp3734
F0.06265664160401002
s(NS'Comparison.2'
p3735
tp3736
F0.010025062656641603
s(S'.1'
p3737
S'Temporal.2'
p3738
tp3739
F0.005012531328320802
s(S'Temporal.1'
p3740
S'.1'
p3741
tp3742
F0.012531328320802004
s(NS'.2'
p3743
tp3744
F0.08270676691729323
s(g3728
S'Temporal.2'
p3745
tp3746
F0.002506265664160401
s(g3725
Ntp3747
F0.08069164265129683
s(S'Temporal.2'
p3748
Ntp3749
F0.047619047619047616
s(g3715
g3725
tp3750
F0.01440922190201729
s(g3740
S'Comparison.1'
p3751
tp3752
F0.007518796992481203
s(S'Temporal.1'
p3753
Ntp3754
F0.010025062656641603
s(g3737
S'Temporal.1'
p3755
tp3756
F0.005012531328320802
s(NS'Expansion.2'
p3757
tp3758
F0.015037593984962405
s(S'Comparison.1'
p3759
Ntp3760
F0.02756892230576441
s(Ng3748
tp3761
F0.07518796992481203
s(S'Expansion.1'
p3762
Ntp3763
F0.02506265664160401
s(S'EntRel'
p3764
Ntp3765
F0.07780979827089338
s(NNtp3766
F0.414985590778098
s(Ng3731
tp3767
F0.05263157894736842
s(Ng3764
tp3768
F0.13544668587896252
s(S'Expansion.1'
p3769
S'Temporal.1'
p3770
tp3771
F0.005012531328320802
s(g3770
S'Comparison.2'
p3772
tp3773
F0.007518796992481203
s(S'Expansion.2'
p3774
Ntp3775
F0.007518796992481203
s(S'Comparison.1'
p3776
S'.1'
p3777
tp3778
F0.002506265664160401
s(Ng3715
tp3779
F0.01729106628242075
s(NS'Temporal.1'
p3780
tp3781
F0.06015037593984962
s(S'EntRel'
p3782
g3764
tp3783
F0.0345821325648415
s(S'Temporal.2'
p3784
S'.1'
p3785
tp3786
F0.002506265664160401
s(g3735
g3718
tp3787
F0.007518796992481203
s(g3757
S'Temporal.2'
p3788
tp3789
F0.007518796992481203
s(g3764
S'Explicit'
p3790
tp3791
F0.008645533141210375
s(Ng3790
tp3792
F0.13256484149855907
s(Ng3759
tp3793
F0.022556390977443608
s(S'.2'
p3794
Ntp3795
F0.022556390977443608
s(g3725
g3782
tp3796
F0.02881844380403458
ssS'apwsE951018.0182-2-2-0.perm-1.txt.pipe'
p3797
(dp3798
sS'apwsE951024.0110-2-2-0.perm-11.txt.pipe'
p3799
(dp3800
(S'Explicit'
p3801
S'Explicit'
p3802
tp3803
F0.038461538461538464
s(Ng3802
tp3804
F0.1346153846153846
s(S'Comparison.2'
p3805
Ntp3806
F0.11538461538461539
s(g3801
Ntp3807
F0.21153846153846154
s(S'Comparison.1'
p3808
S'Expansion.2'
p3809
tp3810
F0.019230769230769232
s(NNtp3811
F0.6153846153846154
s(NS'Expansion.1'
p3812
tp3813
F0.057692307692307696
s(NS'Expansion.2'
p3814
tp3815
F0.07692307692307693
s(S'Comparison.2'
p3816
S'Expansion.1'
p3817
tp3818
F0.019230769230769232
s(S'Comparison.1'
p3819
Ntp3820
F0.09615384615384616
ssS'apwsE951009.0228-2-2-0.perm-10.txt.pipe'
p3821
(dp3822
(S'Implicit'
p3823
Ntp3824
F0.13448275862068965
s(NS'EntRel'
p3825
tp3826
F0.05862068965517241
s(S'Contingency.1'
p3827
Ntp3828
F0.0033112582781456954
s(g3825
Ntp3829
F0.06551724137931035
s(S'Comparison.2'
p3830
Ntp3831
F0.033112582781456956
s(S'Implicit'
p3832
g3825
tp3833
F0.017241379310344827
s(NNtp3834
F0.593103448275862
s(NS'.1'
p3835
tp3836
F0.023178807947019868
s(NS'Comparison.2'
p3837
tp3838
F0.029801324503311258
s(S'Contingency.2'
p3839
Ntp3840
F0.019867549668874173
s(NS'Expansion.1'
p3841
tp3842
F0.016556291390728478
s(Ng3827
tp3843
F0.0033112582781456954
s(g3825
g3823
tp3844
F0.010344827586206896
s(g3835
Ntp3845
F0.019867549668874173
s(S'.2'
p3846
g3830
tp3847
F0.006622516556291391
s(S'Contingency.2'
p3848
g3846
tp3849
F0.016556291390728478
s(g3837
g3848
tp3850
F0.0033112582781456954
s(g3841
Ntp3851
F0.016556291390728478
s(S'.1'
p3852
S'Comparison.1'
p3853
tp3854
F0.0033112582781456954
s(Ng3823
tp3855
F0.11724137931034483
s(S'Implicit'
p3856
g3832
tp3857
F0.0034482758620689655
s(NS'.2'
p3858
tp3859
F0.033112582781456956
s(NS'Expansion.2'
p3860
tp3861
F0.019867549668874173
s(NS'Comparison.1'
p3862
tp3863
F0.029801324503311258
s(g3858
Ntp3864
F0.04304635761589404
s(NS'Contingency.2'
p3865
tp3866
F0.033112582781456956
s(g3862
Ntp3867
F0.076158940397351
ssS'apwsE950827.0035-2-2-0.perm-13.txt.pipe'
p3868
(dp3869
sS'apwsE950919.0580-2-2-0.perm-11.txt.pipe'
p3870
(dp3871
sS'apwsE951010.0087-2-2-0.perm-11.txt.pipe'
p3872
(dp3873
(S'Comparison.1'
p3874
S'Comparison.1'
p3875
tp3876
F0.0025
s(NS'Temporal.2'
p3877
tp3878
F0.055
s(S'Comparison.2'
p3879
S'Comparison.2'
p3880
tp3881
F0.0075
s(NS'Explicit'
p3882
tp3883
F0.11748633879781421
s(S'Comparison.2'
p3884
Ntp3885
F0.0475
s(g3877
g3884
tp3886
F0.025
s(g3882
S'Explicit'
p3887
tp3888
F0.03825136612021858
s(NNtp3889
F0.7049180327868853
s(S'Temporal.2'
p3890
Ntp3891
F0.03
s(NS'Comparison.2'
p3892
tp3893
F0.0475
s(NS'Comparison.1'
p3894
tp3895
F0.0475
s(S'Temporal.1'
p3896
Ntp3897
F0.045
s(g3887
Ntp3898
F0.13934426229508196
s(g3894
Ntp3899
F0.0475
ssS'apwsE951121.0032-2-2-0.perm-11.txt.pipe'
p3900
(dp3901
sS'apwsE951009.0216-2-2-0.perm-12.txt.pipe'
p3902
(dp3903
sS'apwsE960109.0412-0-1.perm-12.txt.pipe'
p3904
(dp3905
sS'apwsE951218.0398-0-1.perm-12.txt.pipe'
p3906
(dp3907
(NS'Comparison.2'
p3908
tp3909
F0.2608695652173913
s(S'Comparison.1'
p3910
S'Comparison.1'
p3911
tp3912
F0.08695652173913043
s(NS'Comparison.1'
p3913
tp3914
F0.17391304347826086
s(S'Comparison.2'
p3915
S'Comparison.1'
p3916
tp3917
F0.043478260869565216
s(S'Comparison.2'
p3918
Ntp3919
F0.34782608695652173
s(S'Explicit'
p3920
Ntp3921
F0.43478260869565216
s(g3920
S'Explicit'
p3922
tp3923
F0.13043478260869565
s(Ng3922
tp3924
F0.43478260869565216
s(S'Comparison.1'
p3925
Ntp3926
F0.08695652173913043
ssS'apwsE951009.0278-2-2-0.perm-13.txt.pipe'
p3927
(dp3928
(S'Expansion.1'
p3929
Ntp3930
F0.04950495049504951
s(S'Implicit'
p3931
Ntp3932
F0.03333333333333333
s(NS'Temporal.2'
p3933
tp3934
F0.009900990099009901
s(NS'Temporal.1'
p3935
tp3936
F0.0049504950495049506
s(NS'Explicit'
p3937
tp3938
F0.07179487179487179
s(S'Comparison.2'
p3939
Ntp3940
F0.024752475247524754
s(S'Temporal.2'
p3941
S'Comparison.2'
p3942
tp3943
F0.0024752475247524753
s(S'Explicit'
p3944
g3937
tp3945
F0.002564102564102564
s(NNtp3946
F0.7871794871794872
s(g3933
Ntp3947
F0.007425742574257425
s(NS'Comparison.2'
p3948
tp3949
F0.0049504950495049506
s(g3941
S'Expansion.1'
p3950
tp3951
F0.0024752475247524753
s(NS'Comparison.1'
p3952
tp3953
F0.009900990099009901
s(S'Expansion.2'
p3954
Ntp3955
F0.01485148514851485
s(g3935
Ntp3956
F0.0049504950495049506
s(Ng3929
tp3957
F0.04702970297029703
s(Ng3931
tp3958
F0.03333333333333333
s(Ng3954
tp3959
F0.039603960396039604
s(S'Explicit'
p3960
Ntp3961
F0.07179487179487179
s(S'Comparison.1'
p3962
Ntp3963
F0.017326732673267328
ssS'apwsE960109.0130-2-2-0.perm-12.txt.pipe'
p3964
(dp3965
(S'Expansion.2'
p3966
S'.1'
p3967
tp3968
F0.0009242144177449168
s(S'Implicit'
p3969
Ntp3970
F0.03189300411522634
s(S'Contingency.2'
p3971
Ntp3972
F0.006469500924214418
s(S'.2'
p3973
S'.2'
p3974
tp3975
F0.019408502772643253
s(S'EntRel'
p3976
Ntp3977
F0.08847736625514403
s(S'Comparison.2'
p3978
Ntp3979
F0.0046210720887245845
s(S'Implicit'
p3980
S'EntRel'
p3981
tp3982
F0.00411522633744856
s(NNtp3983
F0.6800411522633745
s(NS'.1'
p3984
tp3985
F0.06377079482439926
s(Ng3976
tp3986
F0.10082304526748971
s(S'Explicit'
p3987
g3980
tp3988
F0.00102880658436214
s(S'Expansion.2'
p3989
Ntp3990
F0.014787430683918669
s(NS'Contingency.1'
p3991
tp3992
F0.0009242144177449168
s(NS'Expansion.1'
p3993
tp3994
F0.006469500924214418
s(g3984
Ntp3995
F0.06377079482439926
s(S'Expansion.2'
p3996
S'.2'
p3997
tp3998
F0.0027726432532347504
s(S'.2'
p3999
S'.1'
p4000
tp4001
F0.0018484288354898336
s(S'Expansion.1'
p4002
Ntp4003
F0.01756007393715342
s(S'.1'
p4004
g4000
tp4005
F0.0046210720887245845
s(Ng3980
tp4006
F0.02263374485596708
s(NS'.2'
p4007
tp4008
F0.08040665434380777
s(S'EntRel'
p4009
S'EntRel'
p4010
tp4011
F0.026748971193415638
s(Ng3987
tp4012
F0.01646090534979424
s(Ng3971
tp4013
F0.006469500924214418
s(S'Explicit'
p4014
Ntp4015
F0.026748971193415638
s(S'Expansion.2'
p4016
S'Expansion.2'
p4017
tp4018
F0.0009242144177449168
s(g4007
Ntp4019
F0.06746765249537892
s(S'Explicit'
p4020
g4010
tp4021
F0.00102880658436214
s(g3991
g4000
tp4022
F0.0009242144177449168
s(Ng3989
tp4023
F0.018484288354898338
s(S'Comparison.1'
p4024
Ntp4025
F0.006469500924214418
ssS'apwsE951001.0257-2-2-0.perm-11.txt.pipe'
p4026
(dp4027
(S'Expansion.2'
p4028
S'.1'
p4029
tp4030
F0.001256281407035176
s(S'.1'
p4031
S'Expansion.1'
p4032
tp4033
F0.0037688442211055275
s(NS'Temporal.2'
p4034
tp4035
F0.011306532663316583
s(S'Expansion.1'
p4036
S'Expansion.1'
p4037
tp4038
F0.001256281407035176
s(S'.2'
p4039
S'.2'
p4040
tp4041
F0.002512562814070352
s(S'EntRel'
p4042
Ntp4043
F0.058823529411764705
s(S'Expansion.2'
p4044
S'Expansion.1'
p4045
tp4046
F0.001256281407035176
s(S'Implicit'
p4047
g4042
tp4048
F0.006535947712418301
s(NNtp4049
F0.6078431372549019
s(S'.1'
p4050
Ntp4051
F0.0364321608040201
s(NS'EntRel'
p4052
tp4053
F0.07320261437908497
s(S'Explicit'
p4054
S'Implicit'
p4055
tp4056
F0.011764705882352941
s(S'Implicit'
p4057
S'Explicit'
p4058
tp4059
F0.00261437908496732
s(g4047
Ntp4060
F0.06928104575163399
s(S'.2'
p4061
S'Expansion.1'
p4062
tp4063
F0.002512562814070352
s(S'Expansion.2'
p4064
Ntp4065
F0.04522613065326633
s(g4054
S'EntRel'
p4066
tp4067
F0.00130718954248366
s(NS'Expansion.1'
p4068
tp4069
F0.035175879396984924
s(g4042
g4055
tp4070
F0.013071895424836602
s(Ng4050
tp4071
F0.02763819095477387
s(S'Expansion.2'
p4072
S'.2'
p4073
tp4074
F0.005025125628140704
s(S'.2'
p4075
g4029
tp4076
F0.001256281407035176
s(S'Expansion.1'
p4077
Ntp4078
F0.04271356783919598
s(Ng4047
tp4079
F0.07712418300653595
s(S'Expansion.1'
p4080
g4029
tp4081
F0.001256281407035176
s(g4057
S'Implicit'
p4082
tp4083
F0.00784313725490196
s(NS'.2'
p4084
tp4085
F0.05150753768844221
s(g4066
S'EntRel'
p4086
tp4087
F0.00392156862745098
s(Ng4054
tp4088
F0.036601307189542485
s(g4054
Ntp4089
F0.027450980392156862
s(g4042
g4054
tp4090
F0.00261437908496732
s(S'Temporal.2'
p4091
Ntp4092
F0.00628140703517588
s(g4062
S'Temporal.2'
p4093
tp4094
F0.001256281407035176
s(S'.2'
p4095
S'Expansion.2'
p4096
tp4097
F0.007537688442211055
s(S'Expansion.2'
p4098
S'Expansion.2'
p4099
tp4100
F0.010050251256281407
s(NS'Temporal.1'
p4101
tp4102
F0.010050251256281407
s(S'.2'
p4103
Ntp4104
F0.02763819095477387
s(g4101
Ntp4105
F0.010050251256281407
s(g4093
S'Expansion.2'
p4106
tp4107
F0.00628140703517588
s(Ng4064
tp4108
F0.06658291457286432
ssS'apwsE960207.0124-2-2-0.perm-11.txt.pipe'
p4109
(dp4110
sS'apwsE960109.0412-0-1.perm-13.txt.pipe'
p4111
(dp4112
sS'apwsE951218.0398-0-1.perm-11.txt.pipe'
p4113
(dp4114
sS'apwsE951003.0004-2-2-0.perm-10.txt.pipe'
p4115
(dp4116
(S'Expansion.1'
p4117
Ntp4118
F0.05357142857142857
s(NS'.2'
p4119
tp4120
F0.08482142857142858
s(S'.2'
p4121
S'.2'
p4122
tp4123
F0.022321428571428572
s(S'EntRel'
p4124
Ntp4125
F0.05092592592592592
s(S'Explicit'
p4126
Ntp4127
F0.05555555555555555
s(S'EntRel'
p4128
g4124
tp4129
F0.032407407407407406
s(S'.1'
p4130
S'.1'
p4131
tp4132
F0.008928571428571428
s(NS'.1'
p4133
tp4134
F0.017857142857142856
s(NNtp4135
F0.6666666666666666
s(NS'Explicit'
p4136
tp4137
F0.10648148148148148
s(Ng4124
tp4138
F0.08796296296296297
s(S'.2'
p4139
Ntp4140
F0.022321428571428572
s(g4131
Ntp4141
F0.044642857142857144
s(NS'Expansion.2'
p4142
tp4143
F0.10267857142857142
ssS'apwsE950928.0080-0-1.perm-10.txt.pipe'
p4144
(dp4145
sS'apwsE950914.0071-0-1.perm-10.txt.pipe'
p4146
(dp4147
sS'apwsE951106.0072-2-2-0.perm-12.txt.pipe'
p4148
(dp4149
sS'apwsE951122.0012-0-1.perm-10.txt.pipe'
p4150
(dp4151
(S'Expansion.1'
p4152
Ntp4153
F0.125
s(NS'Comparison.1'
p4154
tp4155
F0.16666666666666666
s(S'Expansion.2'
p4156
Ntp4157
F0.20833333333333334
s(NS'Comparison.2'
p4158
tp4159
F0.10416666666666667
s(NS'Explicit'
p4160
tp4161
F0.34210526315789475
s(NS'Expansion.1'
p4162
tp4163
F0.08333333333333333
s(S'Explicit'
p4164
Ntp4165
F0.42105263157894735
s(NS'Expansion.2'
p4166
tp4167
F0.125
s(NNtp4168
F0.23684210526315788
ssS'apwsE951020.0432-2-2-0.perm-10.txt.pipe'
p4169
(dp4170
(S'.1'
p4171
S'Expansion.1'
p4172
tp4173
F0.0018450184501845018
s(S'Expansion.1'
p4174
S'Expansion.1'
p4175
tp4176
F0.005535055350553505
s(S'.2'
p4177
S'.2'
p4178
tp4179
F0.0036900369003690036
s(S'EntRel'
p4180
Ntp4181
F0.040983606557377046
s(S'Comparison.2'
p4182
Ntp4183
F0.007380073800738007
s(S'Explicit'
p4184
S'Explicit'
p4185
tp4186
F0.020491803278688523
s(NNtp4187
F0.7049180327868853
s(S'.1'
p4188
Ntp4189
F0.016605166051660517
s(Ng4180
tp4190
F0.040983606557377046
s(NS'Comparison.2'
p4191
tp4192
F0.007380073800738007
s(S'Implicit'
p4193
Ntp4194
F0.0389344262295082
s(S'.2'
p4195
g4172
tp4196
F0.0018450184501845018
s(S'Expansion.2'
p4197
Ntp4198
F0.027675276752767528
s(NS'Expansion.1'
p4199
tp4200
F0.03505535055350553
s(g4180
g4193
tp4201
F0.00819672131147541
s(Ng4188
tp4202
F0.01107011070110701
s(S'Comparison.2'
p4203
S'Expansion.2'
p4204
tp4205
F0.0036900369003690036
s(S'Expansion.1'
p4206
Ntp4207
F0.055350553505535055
s(S'Comparison.1'
p4208
g4175
tp4209
F0.0036900369003690036
s(Ng4193
tp4210
F0.06352459016393443
s(g4193
S'Implicit'
p4211
tp4212
F0.012295081967213115
s(NS'.2'
p4213
tp4214
F0.03690036900369004
s(S'EntRel'
p4215
g4180
tp4216
F0.004098360655737705
s(Ng4184
tp4217
F0.03483606557377049
s(g4184
Ntp4218
F0.030737704918032786
s(g4213
S'Expansion.2'
p4219
tp4220
F0.005535055350553505
s(S'Expansion.2'
p4221
S'Expansion.2'
p4222
tp4223
F0.01845018450184502
s(NS'Comparison.1'
p4224
tp4225
F0.00922509225092251
s(S'.2'
p4226
Ntp4227
F0.02952029520295203
s(Ng4197
tp4228
F0.07380073800738007
s(S'Expansion.1'
p4229
S'Comparison.2'
p4230
tp4231
F0.0018450184501845018
s(S'Comparison.1'
p4232
Ntp4233
F0.00922509225092251
ssS'apwsE950928.0080-0-1.perm-1.txt.pipe'
p4234
(dp4235
sS'apwsE960313.0061-2-2-0.perm-12.txt.pipe'
p4236
(dp4237
(NS'Temporal.1'
p4238
tp4239
F0.12244897959183673
s(NS'Temporal.2'
p4240
tp4241
F0.2857142857142857
s(NS'Explicit'
p4242
tp4243
F0.40816326530612246
s(S'Comparison.2'
p4244
Ntp4245
F0.12244897959183673
s(S'Explicit'
p4246
Ntp4247
F0.30612244897959184
s(g4246
g4242
tp4248
F0.08163265306122448
s(NNtp4249
F0.20408163265306123
s(S'Comparison.1'
p4250
S'Temporal.2'
p4251
tp4252
F0.04081632653061224
s(S'Comparison.2'
p4253
S'Temporal.2'
p4254
tp4255
F0.04081632653061224
s(S'Comparison.1'
p4256
Ntp4257
F0.1836734693877551
ssS'apwsE950822.0071-0-1.perm-11.txt.pipe'
p4258
(dp4259
sS'apwsE951122.0004-0-1.perm-12.txt.pipe'
p4260
(dp4261
sS'apwsE951023.0357-2-2-0.perm-10.txt.pipe'
p4262
(dp4263
sS'apwsE951122.0012-0-1.perm-1.txt.pipe'
p4264
(dp4265
sS'apwsE950919.0564-2-2-0.perm-1.txt.pipe'
p4266
(dp4267
sS'apwsE951001.0257-2-2-0.perm-10.txt.pipe'
p4268
(dp4269
sS'apwsE951009.0228-2-2-0.perm-1.txt.pipe'
p4270
(dp4271
(S'Expansion.2'
p4272
S'.1'
p4273
tp4274
F0.0012706480304955528
s(S'.1'
p4275
S'Contingency.1'
p4276
tp4277
F0.0012706480304955528
s(S'Comparison.2'
p4278
S'Comparison.2'
p4279
tp4280
F0.0012706480304955528
s(S'.2'
p4281
S'.2'
p4282
tp4283
F0.007623888182973317
s(S'EntRel'
p4284
Ntp4285
F0.07362784471218206
s(g4279
Ntp4286
F0.011435832274459974
s(S'Expansion.2'
p4287
Ntp4288
F0.022871664548919948
s(S'.1'
p4289
g4273
tp4290
F0.0025412960609911056
s(NNtp4291
F0.6492637215528781
s(S'.1'
p4292
Ntp4293
F0.036848792884371026
s(NS'EntRel'
p4294
tp4295
F0.09103078982597054
s(Ng4278
tp4296
F0.011435832274459974
s(S'Implicit'
p4297
Ntp4298
F0.07228915662650602
s(S'Contingency.2'
p4299
Ntp4300
F0.010165184243964422
s(NS'Contingency.1'
p4301
tp4302
F0.010165184243964422
s(NS'Expansion.1'
p4303
tp4304
F0.022871664548919948
s(g4294
g4297
tp4305
F0.006693440428380187
s(Ng4292
tp4306
F0.036848792884371026
s(S'Expansion.2'
p4307
g4281
tp4308
F0.0025412960609911056
s(S'Implicit'
p4309
S'EntRel'
p4310
tp4311
F0.004016064257028112
s(g4301
Ntp4312
F0.011435832274459974
s(Ng4309
tp4313
F0.06961178045515395
s(S'Implicit'
p4314
S'Implicit'
p4315
tp4316
F0.0013386880856760374
s(NS'.2'
p4317
tp4318
F0.06480304955527319
s(S'.2'
p4319
S'Contingency.2'
p4320
tp4321
F0.0012706480304955528
s(NS'Explicit'
p4322
tp4323
F0.0107095046854083
s(Ng4299
tp4324
F0.010165184243964422
s(g4322
Ntp4325
F0.009370816599732263
s(g4284
g4310
tp4326
F0.0107095046854083
s(g4317
g4287
tp4327
F0.0038119440914866584
s(S'Contingency.2'
p4328
g4279
tp4329
F0.0012706480304955528
s(g4303
Ntp4330
F0.022871664548919948
s(S'.2'
p4331
Ntp4332
F0.048284625158831
s(NS'Comparison.1'
p4333
tp4334
F0.008894536213468869
s(g4322
g4315
tp4335
F0.0013386880856760374
s(NS'Expansion.2'
p4336
tp4337
F0.022871664548919948
s(g4333
Ntp4338
F0.008894536213468869
ssS'apwsE951009.0226-2-2-0.perm-13.txt.pipe'
p4339
(dp4340
sS'apwsE960313.0061-2-2-0.perm-13.txt.pipe'
p4341
(dp4342
(NS'Contingency.1'
p4343
tp4344
F0.02127659574468085
s(NS'Explicit'
p4345
tp4346
F0.23404255319148937
s(S'Comparison.2'
p4347
Ntp4348
F0.14893617021276595
s(S'Explicit'
p4349
Ntp4350
F0.3829787234042553
s(g4349
g4345
tp4351
F0.02127659574468085
s(NS'Contingency.2'
p4352
tp4353
F0.2127659574468085
s(NNtp4354
F0.3617021276595745
s(S'Comparison.1'
p4355
Ntp4356
F0.23404255319148937
s(S'Comparison.2'
p4357
S'Contingency.1'
p4358
tp4359
F0.02127659574468085
ssS'apwsE950822.0071-0-1.perm-13.txt.pipe'
p4360
(dp4361
sS'apwsE960313.0250-0-1.perm-1.txt.pipe'
p4362
(dp4363
sS'apwsE951001.0242-2-2-0.perm-11.txt.pipe'
p4364
(dp4365
sS'apwsE950919.0594-2-2-0.perm-10.txt.pipe'
p4366
(dp4367
sS'apwsE960221.0036-0-1.perm-10.txt.pipe'
p4368
(dp4369
sS'apwsE960313.0026-2-2-0.perm-11.txt.pipe'
p4370
(dp4371
sS'apwsE960214.0448-2-2-0.perm-12.txt.pipe'
p4372
(dp4373
sS'apwsE951020.0432-2-2-0.perm-13.txt.pipe'
p4374
(dp4375
(S'Expansion.1'
p4376
S'Comparison.1'
p4377
tp4378
F0.0012903225806451613
s(S'.1'
p4379
g4376
tp4380
F0.0012903225806451613
s(g4376
S'Expansion.1'
p4381
tp4382
F0.0012903225806451613
s(S'EntRel'
p4383
Ntp4384
F0.020718232044198894
s(S'Comparison.2'
p4385
Ntp4386
F0.00903225806451613
s(S'Explicit'
p4387
S'Explicit'
p4388
tp4389
F0.004143646408839779
s(NNtp4390
F0.6892265193370166
s(NS'.1'
p4391
tp4392
F0.011612903225806452
s(g4391
Ntp4393
F0.01032258064516129
s(Ng4383
tp4394
F0.024861878453038673
s(Ng4385
tp4395
F0.04
s(S'Implicit'
p4396
g4388
tp4397
F0.004143646408839779
s(g4396
Ntp4398
F0.05939226519337017
s(S'Expansion.2'
p4399
Ntp4400
F0.05548387096774193
s(NS'Contingency.1'
p4401
tp4402
F0.003870967741935484
s(NS'Expansion.1'
p4403
tp4404
F0.027096774193548386
s(g4383
S'Implicit'
p4405
tp4406
F0.004143646408839779
s(S'Expansion.2'
p4407
S'Comparison.1'
p4408
tp4409
F0.0012903225806451613
s(S'Comparison.2'
p4410
S'Expansion.2'
p4411
tp4412
F0.005161290322580645
s(g4403
Ntp4413
F0.04774193548387097
s(Ng4396
tp4414
F0.049723756906077346
s(g4405
g4396
tp4415
F0.004143646408839779
s(NS'.2'
p4416
tp4417
F0.011612903225806452
s(Ng4387
tp4418
F0.08425414364640885
s(NS'Contingency.2'
p4419
tp4420
F0.003870967741935484
s(g4387
Ntp4421
F0.052486187845303865
s(S'.2'
p4422
S'Expansion.2'
p4423
tp4424
F0.0025806451612903226
s(S'Expansion.2'
p4425
g4411
tp4426
F0.005161290322580645
s(NS'Comparison.1'
p4427
tp4428
F0.024516129032258065
s(g4416
Ntp4429
F0.00903225806451613
s(S'Explicit'
p4430
g4396
tp4431
F0.0027624309392265192
s(Ng4399
tp4432
F0.06838709677419355
s(g4427
Ntp4433
F0.015483870967741935
ssS'apwsE950331.0603-0-1.perm-11.txt.pipe'
p4434
(dp4435
sS'apwsE951210.0051-2-2-0.perm-1.txt.pipe'
p4436
(dp4437
sS'apwsE951221.0049-2-2-0.perm-1.txt.pipe'
p4438
(dp4439
sS'apwsE960207.0018-2-2-0.perm-12.txt.pipe'
p4440
(dp4441
(S'Expansion.1'
p4442
S'Comparison.1'
p4443
tp4444
F0.06060606060606061
s(S'Expansion.1'
p4445
Ntp4446
F0.3333333333333333
s(S'Comparison.2'
p4447
g4443
tp4448
F0.06060606060606061
s(S'Comparison.2'
p4449
Ntp4450
F0.06060606060606061
s(S'Explicit'
p4451
Ntp4452
F0.5238095238095238
s(g4451
S'Explicit'
p4453
tp4454
F0.19047619047619047
s(NS'Comparison.2'
p4455
tp4456
F0.030303030303030304
s(NS'Comparison.1'
p4457
tp4458
F0.09090909090909091
s(Ng4451
tp4459
F0.2857142857142857
s(NS'Expansion.2'
p4460
tp4461
F0.15151515151515152
s(S'Comparison.2'
p4462
S'Expansion.2'
p4463
tp4464
F0.06060606060606061
s(S'Comparison.1'
p4465
Ntp4466
F0.15151515151515152
ssS'apwsE950112.0297-0-1.perm-11.txt.pipe'
p4467
(dp4468
sS'apwsE960221.0036-0-1.perm-11.txt.pipe'
p4469
(dp4470
sS'apwsE951009.0278-2-2-0.perm-12.txt.pipe'
p4471
(dp4472
(S'Expansion.1'
p4473
Ntp4474
F0.0625
s(NS'Implicit'
p4475
tp4476
F0.025735294117647058
s(g4475
Ntp4477
F0.014705882352941176
s(NS'Temporal.2'
p4478
tp4479
F0.011029411764705883
s(NS'Temporal.1'
p4480
tp4481
F0.003676470588235294
s(NS'Explicit'
p4482
tp4483
F0.07720588235294118
s(S'Expansion.2'
p4484
S'Expansion.1'
p4485
tp4486
F0.003676470588235294
s(g4484
S'Temporal.2'
p4487
tp4488
F0.003676470588235294
s(S'Explicit'
p4489
S'Explicit'
p4490
tp4491
F0.003676470588235294
s(NNtp4492
F0.7536764705882353
s(g4478
Ntp4493
F0.011029411764705883
s(S'Expansion.2'
p4494
Ntp4495
F0.05514705882352941
s(g4480
Ntp4496
F0.003676470588235294
s(g4489
g4475
tp4497
F0.007352941176470588
s(NS'Expansion.1'
p4498
tp4499
F0.029411764705882353
s(S'Temporal.2'
p4500
S'Expansion.2'
p4501
tp4502
F0.003676470588235294
s(NS'Expansion.2'
p4503
tp4504
F0.058823529411764705
s(g4489
Ntp4505
F0.11764705882352941
ssS'apwsE950119.0186-0-1.perm-10.txt.pipe'
p4506
(dp4507
sS'apwsE950112.0297-0-1.perm-12.txt.pipe'
p4508
(dp4509
sS'apwsE951001.0242-2-2-0.perm-1.txt.pipe'
p4510
(dp4511
sS'apwsE950928.0094-0-1.perm-12.txt.pipe'
p4512
(dp4513
sS'apwsE951024.0123-2-2-0.perm-10.txt.pipe'
p4514
(dp4515
(NS'Explicit'
p4516
tp4517
F0.1346153846153846
s(S'Comparison.2'
p4518
Ntp4519
F0.09615384615384616
s(S'Explicit'
p4520
Ntp4521
F0.25
s(NNtp4522
F0.6153846153846154
s(NS'Expansion.1'
p4523
tp4524
F0.07692307692307693
s(NS'Expansion.2'
p4525
tp4526
F0.057692307692307696
s(S'Comparison.1'
p4527
Ntp4528
F0.15384615384615385
ssS'apwsE951018.0070-2-2-0.perm-13.txt.pipe'
p4529
(dp4530
sS'apwsE951020.0430-2-2-0.perm-11.txt.pipe'
p4531
(dp4532
(S'Comparison.2'
p4533
S'Expansion.2'
p4534
tp4535
F0.014285714285714285
s(S'Expansion.1'
p4536
Ntp4537
F0.11428571428571428
s(NS'Explicit'
p4538
tp4539
F0.20689655172413793
s(S'Comparison.2'
p4540
Ntp4541
F0.02857142857142857
s(S'Explicit'
p4542
Ntp4543
F0.13793103448275862
s(S'Explicit'
p4544
g4542
tp4545
F0.017241379310344827
s(NNtp4546
F0.6379310344827587
s(NS'Comparison.2'
p4547
tp4548
F0.03571428571428571
s(NS'Comparison.1'
p4549
tp4550
F0.05714285714285714
s(NS'Expansion.2'
p4551
tp4552
F0.16428571428571428
s(S'Comparison.1'
p4553
Ntp4554
F0.05714285714285714
ssS'apwsE951122.0012-0-1.perm-12.txt.pipe'
p4555
(dp4556
sS'apwsE960313.0024-2-2-0.perm-12.txt.pipe'
p4557
(dp4558
sS'apwsE960207.0124-2-2-0.perm-10.txt.pipe'
p4559
(dp4560
sS'apwsE960203.0270-2-2-0.perm-13.txt.pipe'
p4561
(dp4562
(S'Expansion.1'
p4563
Ntp4564
F0.15
s(S'Implicit'
p4565
Ntp4566
F0.1
s(S'Expansion.1'
p4567
S'Expansion.2'
p4568
tp4569
F0.01
s(S'Explicit'
p4570
Ntp4571
F0.11
s(g4570
S'Explicit'
p4572
tp4573
F0.01
s(NNtp4574
F0.62
s(Ng4572
tp4575
F0.1
s(S'Expansion.2'
p4576
Ntp4577
F0.06
s(NS'Expansion.1'
p4578
tp4579
F0.05
s(Ng4565
tp4580
F0.06
s(NS'Expansion.2'
p4581
tp4582
F0.11
ssS'apwsE951024.0020-2-2-0.perm-12.txt.pipe'
p4583
(dp4584
(S'Expansion.1'
p4585
Ntp4586
F0.11428571428571428
s(S'Explicit'
p4587
S'Explicit'
p4588
tp4589
F0.02857142857142857
s(NS'Comparison.1'
p4590
tp4591
F0.11428571428571428
s(S'Expansion.2'
p4592
Ntp4593
F0.05714285714285714
s(NS'Comparison.2'
p4594
tp4595
F0.2
s(Ng4588
tp4596
F0.3142857142857143
s(g4587
Ntp4597
F0.17142857142857143
s(S'Expansion.2'
p4598
S'Comparison.1'
p4599
tp4600
F0.02857142857142857
s(NNtp4601
F0.4857142857142857
ssS'apwsE960313.0061-2-2-0.perm-10.txt.pipe'
p4602
(dp4603
sS'apwsE960206.0441-2-2-0.perm-13.txt.pipe'
p4604
(dp4605
sS'apwsE951018.0182-2-2-0.perm-11.txt.pipe'
p4606
(dp4607
sS'apwsE960206.0441-2-2-0.perm-11.txt.pipe'
p4608
(dp4609
sS'apwsE950905.0546-2-2-0.perm-13.txt.pipe'
p4610
(dp4611
sS'apwsE960106.0047-2-2-0.perm-11.txt.pipe'
p4612
(dp4613
sS'apwsE950620.0596-0-1.perm-3.txt.pipe'
p4614
(dp4615
sS'apwsE951226.0004-2-2-0.perm-1.txt.pipe'
p4616
(dp4617
(NS'Explicit'
p4618
tp4619
F0.6
s(S'Expansion.1'
p4620
Ntp4621
F0.4
s(g4618
Ntp4622
F0.4
s(NS'Expansion.2'
p4623
tp4624
F0.6
ssS'apwsE951106.0072-2-2-0.perm-1.txt.pipe'
p4625
(dp4626
sS'apwsE950914.0071-0-1.perm-1.txt.pipe'
p4627
(dp4628
sS'apwsE951009.0244-2-2-0.perm-11.txt.pipe'
p4629
(dp4630
(S'Implicit'
p4631
Ntp4632
F0.0380952380952381
s(S'Contingency.1'
p4633
S'Expansion.1'
p4634
tp4635
F0.002207505518763797
s(S'.2'
p4636
S'.2'
p4637
tp4638
F0.006622516556291391
s(S'EntRel'
p4639
Ntp4640
F0.04523809523809524
s(S'Comparison.2'
p4641
Ntp4642
F0.026490066225165563
s(S'Explicit'
p4643
S'Explicit'
p4644
tp4645
F0.002380952380952381
s(S'Expansion.2'
p4646
Ntp4647
F0.02207505518763797
s(NNtp4648
F0.7095238095238096
s(S'.1'
p4649
Ntp4650
F0.037527593818984545
s(Ng4639
tp4651
F0.0761904761904762
s(NS'Comparison.2'
p4652
tp4653
F0.008830022075055188
s(S'Contingency.2'
p4654
Ntp4655
F0.019867549668874173
s(NS'Expansion.1'
p4656
tp4657
F0.008830022075055188
s(Ng4649
tp4658
F0.037527593818984545
s(S'Expansion.2'
p4659
S'.2'
p4660
tp4661
F0.004415011037527594
s(S'Contingency.1'
p4662
Ntp4663
F0.01545253863134658
s(Ng4631
tp4664
F0.0380952380952381
s(NS'.2'
p4665
tp4666
F0.04856512141280353
s(g4639
S'EntRel'
p4667
tp4668
F0.007142857142857143
s(Ng4644
tp4669
F0.0380952380952381
s(g4643
Ntp4670
F0.04047619047619048
s(S'Implicit'
p4671
g4639
tp4672
F0.004761904761904762
s(S'Comparison.1'
p4673
Ntp4674
F0.024282560706401765
s(g4665
Ntp4675
F0.019867549668874173
s(Ng4646
tp4676
F0.05518763796909492
s(S'Comparison.2'
p4677
g4634
tp4678
F0.002207505518763797
s(S'Expansion.1'
p4679
Ntp4680
F0.002207505518763797
ssS'apwsE951003.0485-2-2-0.perm-12.txt.pipe'
p4681
(dp4682
sS'apwsE960108.0238-2-2-0.perm-10.txt.pipe'
p4683
(dp4684
(S'.1'
p4685
S'Expansion.1'
p4686
tp4687
F0.0033222591362126247
s(NS'EntRel'
p4688
tp4689
F0.1724137931034483
s(S'.2'
p4690
S'.2'
p4691
tp4692
F0.019933554817275746
s(g4688
Ntp4693
F0.17624521072796934
s(S'Implicit'
p4694
S'EntRel'
p4695
tp4696
F0.019157088122605363
s(NNtp4697
F0.44061302681992337
s(NS'.1'
p4698
tp4699
F0.10631229235880399
s(g4694
Ntp4700
F0.07279693486590039
s(S'.2'
p4701
g4686
tp4702
F0.0033222591362126247
s(S'Expansion.2'
p4703
Ntp4704
F0.046511627906976744
s(NS'Expansion.1'
p4705
tp4706
F0.016611295681063124
s(S'EntRel'
p4707
g4694
tp4708
F0.011494252873563218
s(g4698
Ntp4709
F0.12624584717607973
s(S'Expansion.2'
p4710
S'.2'
p4711
tp4712
F0.013289036544850499
s(S'.2'
p4713
S'.1'
p4714
tp4715
F0.0033222591362126247
s(g4705
Ntp4716
F0.016611295681063124
s(Ng4694
tp4717
F0.08045977011494253
s(NS'.2'
p4718
tp4719
F0.10963455149501661
s(g4688
g4707
tp4720
F0.02681992337164751
s(g4691
S'Expansion.2'
p4721
tp4722
F0.006644518272425249
s(g4718
Ntp4723
F0.08970099667774087
s(g4686
S'.1'
p4724
tp4725
F0.0033222591362126247
s(Ng4703
tp4726
F0.053156146179401995
ssS'apwsE951024.0110-2-2-0.perm-10.txt.pipe'
p4727
(dp4728
(S'Expansion.1'
p4729
Ntp4730
F0.038461538461538464
s(S'Comparison.1'
p4731
S'Expansion.1'
p4732
tp4733
F0.009615384615384616
s(NS'Explicit'
p4734
tp4735
F0.19230769230769232
s(S'Comparison.2'
p4736
Ntp4737
F0.08653846153846154
s(S'Explicit'
p4738
Ntp4739
F0.23076923076923078
s(S'Explicit'
p4740
g4738
tp4741
F0.019230769230769232
s(NNtp4742
F0.5576923076923077
s(NS'Comparison.2'
p4743
tp4744
F0.04807692307692308
s(NS'Comparison.1'
p4745
tp4746
F0.0673076923076923
s(S'Expansion.2'
p4747
Ntp4748
F0.038461538461538464
s(Ng4729
tp4749
F0.028846153846153848
s(S'Expansion.2'
p4750
S'Comparison.1'
p4751
tp4752
F0.009615384615384616
s(Ng4747
tp4753
F0.04807692307692308
s(S'Comparison.1'
p4754
Ntp4755
F0.0673076923076923
ssS'apwsE960221.0036-0-1.perm-1.txt.pipe'
p4756
(dp4757
sS'apwsE960108.0238-2-2-0.perm-13.txt.pipe'
p4758
(dp4759
(S'Expansion.2'
p4760
S'.1'
p4761
tp4762
F0.0019305019305019305
s(S'Implicit'
p4763
Ntp4764
F0.015555555555555555
s(NS'EntRel'
p4765
tp4766
F0.1288888888888889
s(S'.2'
p4767
S'.2'
p4768
tp4769
F0.023166023166023165
s(g4765
Ntp4770
F0.14
s(g4763
S'EntRel'
p4771
tp4772
F0.015555555555555555
s(S'.1'
p4773
S'.1'
p4774
tp4775
F0.009652509652509652
s(NNtp4776
F0.6266666666666667
s(NS'.1'
p4777
tp4778
F0.07335907335907337
s(S'Expansion.2'
p4779
Ntp4780
F0.007722007722007722
s(NS'Expansion.1'
p4781
tp4782
F0.009652509652509652
s(S'EntRel'
p4783
g4763
tp4784
F0.0044444444444444444
s(g4777
Ntp4785
F0.09845559845559845
s(S'Expansion.2'
p4786
S'.2'
p4787
tp4788
F0.007722007722007722
s(S'.2'
p4789
S'.1'
p4790
tp4791
F0.005791505791505791
s(g4781
Ntp4792
F0.005791505791505791
s(Ng4763
tp4793
F0.02666666666666667
s(NS'.2'
p4794
tp4795
F0.10424710424710425
s(g4783
g4771
tp4796
F0.042222222222222223
s(S'.2'
p4797
g4779
tp4798
F0.003861003861003861
s(g4794
Ntp4799
F0.08687258687258688
s(S'Expansion.1'
p4800
g4790
tp4801
F0.003861003861003861
s(Ng4786
tp4802
F0.013513513513513514
ssS'apwsE951121.0037-2-2-0.perm-11.txt.pipe'
p4803
(dp4804
(S'Comparison.2'
p4805
S'Comparison.2'
p4806
tp4807
F0.024096385542168676
s(NS'.2'
p4808
tp4809
F0.08433734939759036
s(NS'Explicit'
p4810
tp4811
F0.11320754716981132
s(S'Comparison.2'
p4812
Ntp4813
F0.1566265060240964
s(g4810
Ntp4814
F0.20754716981132076
s(S'Explicit'
p4815
g4810
tp4816
F0.025157232704402517
s(NNtp4817
F0.41509433962264153
s(NS'.1'
p4818
tp4819
F0.05421686746987952
s(Ng4812
tp4820
F0.10843373493975904
s(S'Comparison.2'
p4821
S'.1'
p4822
tp4823
F0.018072289156626505
s(S'EntRel'
p4824
Ntp4825
F0.07547169811320754
s(Ng4824
tp4826
F0.14465408805031446
s(g4810
g4824
tp4827
F0.018867924528301886
s(g4818
Ntp4828
F0.07228915662650602
s(S'Comparison.1'
p4829
Ntp4830
F0.08433734939759036
ssS'apwsE950919.0564-2-2-0.perm-12.txt.pipe'
p4831
(dp4832
(S'Expansion.1'
p4833
Ntp4834
F0.043478260869565216
s(S'Expansion.1'
p4835
S'Contingency.1'
p4836
tp4837
F0.021739130434782608
s(S'Expansion.2'
p4838
Ntp4839
F0.2391304347826087
s(NS'Explicit'
p4840
tp4841
F0.1956521739130435
s(NS'Contingency.1'
p4842
tp4843
F0.08695652173913043
s(S'Explicit'
p4844
Ntp4845
F0.2826086956521739
s(g4844
g4840
tp4846
F0.021739130434782608
s(NS'Contingency.2'
p4847
tp4848
F0.10869565217391304
s(NNtp4849
F0.5
ssS'apwsE951024.0072-2-2-0.perm-1.txt.pipe'
p4850
(dp4851
(S'Comparison.1'
p4852
S'Comparison.1'
p4853
tp4854
F0.03125
s(S'Comparison.2'
p4855
S'Comparison.2'
p4856
tp4857
F0.010416666666666666
s(S'Comparison.2'
p4858
S'Comparison.1'
p4859
tp4860
F0.010416666666666666
s(S'Comparison.2'
p4861
Ntp4862
F0.14583333333333334
s(S'Explicit'
p4863
Ntp4864
F0.25
s(g4863
S'Explicit'
p4865
tp4866
F0.0625
s(NNtp4867
F0.4791666666666667
s(Ng4861
tp4868
F0.10416666666666667
s(NS'Comparison.1'
p4869
tp4870
F0.10416666666666667
s(S'Comparison.1'
p4871
S'Comparison.2'
p4872
tp4873
F0.010416666666666666
s(Ng4865
tp4874
F0.20833333333333334
s(S'Comparison.1'
p4875
Ntp4876
F0.10416666666666667
ssS'apwsE951001.0302-2-2-0.perm-13.txt.pipe'
p4877
(dp4878
(S'Comparison.2'
p4879
S'Expansion.2'
p4880
tp4881
F0.003105590062111801
s(S'Expansion.1'
p4882
Ntp4883
F0.037267080745341616
s(S'Implicit'
p4884
Ntp4885
F0.075
s(S'Implicit'
p4886
S'Implicit'
p4887
tp4888
F0.003125
s(S'Comparison.2'
p4889
Ntp4890
F0.006211180124223602
s(NNtp4891
F0.79375
s(Ng4889
tp4892
F0.009316770186335404
s(NS'Comparison.1'
p4893
tp4894
F0.034161490683229816
s(NS'Expansion.1'
p4895
tp4896
F0.003105590062111801
s(Ng4886
tp4897
F0.128125
s(NS'Expansion.2'
p4898
tp4899
F0.08385093167701864
s(g4893
Ntp4900
F0.034161490683229816
ssS'apwsE960108.0194-2-2-0.perm-13.txt.pipe'
p4901
(dp4902
sS'apwsE950424.0128-0-1.perm-13.txt.pipe'
p4903
(dp4904
sS'apwsE951121.0037-2-2-0.perm-13.txt.pipe'
p4905
(dp4906
(S'Comparison.2'
p4907
S'Comparison.2'
p4908
tp4909
F0.024096385542168676
s(NS'.2'
p4910
tp4911
F0.12048192771084337
s(NS'Explicit'
p4912
tp4913
F0.11320754716981132
s(S'Comparison.2'
p4914
Ntp4915
F0.1746987951807229
s(g4912
Ntp4916
F0.22641509433962265
s(S'Explicit'
p4917
g4912
tp4918
F0.025157232704402517
s(NNtp4919
F0.4339622641509434
s(NS'.1'
p4920
tp4921
F0.03614457831325301
s(Ng4914
tp4922
F0.10843373493975904
s(S'EntRel'
p4923
Ntp4924
F0.03773584905660377
s(Ng4923
tp4925
F0.16352201257861634
s(g4920
Ntp4926
F0.03614457831325301
s(S'Comparison.1'
p4927
Ntp4928
F0.08433734939759036
ssS'apwsE960313.0250-0-1.perm-10.txt.pipe'
p4929
(dp4930
sS'apwsE960108.0194-2-2-0.perm-10.txt.pipe'
p4931
(dp4932
sS'apwsE951216.0211-2-2-0.perm-12.txt.pipe'
p4933
(dp4934
sS'apwsE960206.0441-2-2-0.perm-12.txt.pipe'
p4935
(dp4936
sS'apwsE950928.0080-0-1.perm-12.txt.pipe'
p4937
(dp4938
sS'apwsE960207.0018-2-2-0.perm-10.txt.pipe'
p4939
(dp4940
(S'Expansion.1'
p4941
Ntp4942
F0.2894736842105263
s(NS'Explicit'
p4943
tp4944
F0.42424242424242425
s(g4943
Ntp4945
F0.3333333333333333
s(NNtp4946
F0.24242424242424243
s(NS'Comparison.2'
p4947
tp4948
F0.02631578947368421
s(NS'Comparison.1'
p4949
tp4950
F0.13157894736842105
s(NS'Expansion.2'
p4951
tp4952
F0.34210526315789475
ssS'apwsE951215.0060-2-2-0.perm-1.txt.pipe'
p4953
(dp4954
sS'apwsE951203.0078-2-2-0.perm-10.txt.pipe'
p4955
(dp4956
sS'apwsE950925.0091-0-1.perm-11.txt.pipe'
p4957
(dp4958
(NS'Explicit'
p4959
tp4960
F0.5909090909090909
s(S'Expansion.1'
p4961
Ntp4962
F0.4090909090909091
s(g4959
Ntp4963
F0.4090909090909091
s(NS'Expansion.2'
p4964
tp4965
F0.5909090909090909
ssS'apwsE951101.0026-0-1.perm-1.txt.pipe'
p4966
(dp4967
sS'apwsE960203.0270-2-2-0.perm-10.txt.pipe'
p4968
(dp4969
(S'Expansion.1'
p4970
Ntp4971
F0.24489795918367346
s(S'Implicit'
p4972
Ntp4973
F0.24489795918367346
s(Ng4972
tp4974
F0.061224489795918366
s(NS'Expansion.2'
p4975
tp4976
F0.061224489795918366
s(NNtp4977
F0.6938775510204082
ssS'apwsE960207.0488-2-2-0.perm-12.txt.pipe'
p4978
(dp4979
(S'Expansion.1'
p4980
Ntp4981
F0.20833333333333334
s(S'Expansion.1'
p4982
S'Expansion.2'
p4983
tp4984
F0.08333333333333333
s(NS'Expansion.1'
p4985
tp4986
F0.20833333333333334
s(S'Explicit'
p4987
Ntp4988
F0.25
s(g4987
S'Explicit'
p4989
tp4990
F0.1
s(NS'Expansion.2'
p4991
tp4992
F0.5
s(Ng4987
tp4993
F0.65
ssS'apwsE951009.0305-2-2-0.perm-10.txt.pipe'
p4994
(dp4995
(S'Explicit'
p4996
S'Explicit'
p4997
tp4998
F0.010416666666666666
s(NS'Temporal.2'
p4999
tp5000
F0.009456264775413711
s(S'Expansion.2'
p5001
Ntp5002
F0.004728132387706856
s(NS'Temporal.1'
p5003
tp5004
F0.002364066193853428
s(S'Comparison.2'
p5005
Ntp5006
F0.037825059101654845
s(S'Expansion.2'
p5007
S'Expansion.1'
p5008
tp5009
F0.002364066193853428
s(S'Comparison.1'
p5010
g5007
tp5011
F0.002364066193853428
s(NNtp5012
F0.7265625
s(NS'Comparison.2'
p5013
tp5014
F0.016548463356973995
s(S'Contingency.2'
p5015
Ntp5016
F0.02127659574468085
s(NS'Expansion.1'
p5017
tp5018
F0.03309692671394799
s(S'Expansion.1'
p5019
Ntp5020
F0.0425531914893617
s(S'Comparison.2'
p5021
S'Expansion.2'
p5022
tp5023
F0.002364066193853428
s(S'Contingency.1'
p5024
Ntp5025
F0.018912529550827423
s(NS'Explicit'
p5026
tp5027
F0.15104166666666666
s(S'Temporal.2'
p5028
S'Comparison.2'
p5029
tp5030
F0.002364066193853428
s(g4999
Ntp5031
F0.0070921985815602835
s(S'Expansion.2'
p5032
g5022
tp5033
F0.002364066193853428
s(NS'Comparison.1'
p5034
tp5035
F0.01182033096926714
s(g5003
Ntp5036
F0.002364066193853428
s(NS'Expansion.2'
p5037
tp5038
F0.08983451536643026
s(S'Explicit'
p5039
Ntp5040
F0.11197916666666667
s(S'Comparison.1'
p5041
Ntp5042
F0.030732860520094562
ssS'apwsE950914.0071-0-1.perm-13.txt.pipe'
p5043
(dp5044
sS'apwsE951210.0051-2-2-0.perm-10.txt.pipe'
p5045
(dp5046
sS'apwsE960303.0079-2-2-0.perm-10.txt.pipe'
p5047
(dp5048
sS'apwsE950827.0035-2-2-0.perm-10.txt.pipe'
p5049
(dp5050
(S'Contingency.1'
p5051
S'Comparison.1'
p5052
tp5053
F0.02702702702702703
s(S'Contingency.1'
p5054
Ntp5055
F0.02702702702702703
s(S'Explicit'
p5056
S'Explicit'
p5057
tp5058
F0.11538461538461539
s(NS'Temporal.2'
p5059
tp5060
F0.16216216216216217
s(NS'Temporal.1'
p5061
tp5062
F0.08108108108108109
s(NS'Explicit'
p5063
tp5064
F0.46153846153846156
s(g5056
Ntp5065
F0.4230769230769231
s(S'Contingency.2'
p5066
S'Temporal.2'
p5067
tp5068
F0.02702702702702703
s(g5051
S'Temporal.1'
p5069
tp5070
F0.02702702702702703
s(NS'Comparison.2'
p5071
tp5072
F0.16216216216216217
s(NS'Comparison.1'
p5073
tp5074
F0.16216216216216217
s(S'Contingency.2'
p5075
Ntp5076
F0.2702702702702703
s(g5066
S'Comparison.1'
p5077
tp5078
F0.02702702702702703
s(S'Contingency.1'
p5079
S'Comparison.2'
p5080
tp5081
F0.02702702702702703
ssS'apwsE951221.0001-0-1.perm-13.txt.pipe'
p5082
(dp5083
(NS'Comparison.2'
p5084
tp5085
F0.2608695652173913
s(S'Comparison.1'
p5086
S'Comparison.1'
p5087
tp5088
F0.08695652173913043
s(NS'Comparison.1'
p5089
tp5090
F0.17391304347826086
s(S'Comparison.2'
p5091
S'Comparison.1'
p5092
tp5093
F0.043478260869565216
s(S'Comparison.2'
p5094
Ntp5095
F0.34782608695652173
s(S'Explicit'
p5096
Ntp5097
F0.43478260869565216
s(g5096
S'Explicit'
p5098
tp5099
F0.13043478260869565
s(Ng5098
tp5100
F0.43478260869565216
s(S'Comparison.1'
p5101
Ntp5102
F0.08695652173913043
ssS'apwsE951018.0170-2-2-0.perm-10.txt.pipe'
p5103
(dp5104
sS'apwsE960216.0241-2-2-0.perm-10.txt.pipe'
p5105
(dp5106
sS'apwsE951108.0165-2-2-0.perm-10.txt.pipe'
p5107
(dp5108
(S'Expansion.1'
p5109
Ntp5110
F0.1440677966101695
s(NS'Explicit'
p5111
tp5112
F0.20175438596491227
s(S'Explicit'
p5113
Ntp5114
F0.15789473684210525
s(S'Explicit'
p5115
g5113
tp5116
F0.02631578947368421
s(NNtp5117
F0.6140350877192983
s(NS'Comparison.2'
p5118
tp5119
F0.11016949152542373
s(S'Expansion.2'
p5120
S'Expansion.2'
p5121
tp5122
F0.025423728813559324
s(S'Expansion.2'
p5123
Ntp5124
F0.03389830508474576
s(NS'Expansion.2'
p5125
tp5126
F0.0847457627118644
s(S'Comparison.1'
p5127
Ntp5128
F0.00847457627118644
ssS'apwsE951023.0362-2-2-0.perm-1.txt.pipe'
p5129
(dp5130
sS'apwsE950213.0175-0-1.perm-13.txt.pipe'
p5131
(dp5132
sS'apwsE960313.0061-2-2-0.perm-11.txt.pipe'
p5133
(dp5134
sS'apwsE960313.0024-2-2-0.perm-11.txt.pipe'
p5135
(dp5136
sS'apwsE960106.0047-2-2-0.perm-12.txt.pipe'
p5137
(dp5138
sS'apwsE950213.0175-0-1.perm-10.txt.pipe'
p5139
(dp5140
sS'apwsE951001.0302-2-2-0.perm-12.txt.pipe'
p5141
(dp5142
(S'Expansion.2'
p5143
S'.1'
p5144
tp5145
F0.0024009603841536613
s(g5143
S'Temporal.1'
p5146
tp5147
F0.0024009603841536613
s(S'.1'
p5148
S'Expansion.1'
p5149
tp5150
F0.0012004801920768306
s(NS'Temporal.2'
p5151
tp5152
F0.012004801920768308
s(S'Expansion.1'
p5153
S'Expansion.1'
p5154
tp5155
F0.0024009603841536613
s(S'.2'
p5156
S'.2'
p5157
tp5158
F0.01920768307322929
s(S'EntRel'
p5159
Ntp5160
F0.06976744186046512
s(NS'Implicit'
p5161
tp5162
F0.05555555555555555
s(S'Implicit'
p5163
S'EntRel'
p5164
tp5165
F0.003875968992248062
s(S'.1'
p5166
S'.1'
p5167
tp5168
F0.009603841536614645
s(NNtp5169
F0.6666666666666666
s(g5167
Ntp5170
F0.04801920768307323
s(NS'EntRel'
p5171
tp5172
F0.07493540051679587
s(g5163
S'Explicit'
p5173
tp5174
F0.002583979328165375
s(g5161
Ntp5175
F0.041343669250646
s(S'Expansion.2'
p5176
Ntp5177
F0.024009603841536616
s(g5173
g5159
tp5178
F0.012919896640826873
s(NS'Expansion.1'
p5179
tp5180
F0.01920768307322929
s(S'EntRel'
p5181
g5161
tp5182
F0.003875968992248062
s(Ng5166
tp5183
F0.03481392557022809
s(S'Expansion.2'
p5184
S'.2'
p5185
tp5186
F0.0012004801920768306
s(S'.2'
p5187
g5167
tp5188
F0.007202881152460984
s(S'Temporal.2'
p5189
S'.2'
p5190
tp5191
F0.006002400960384154
s(g5179
Ntp5192
F0.025210084033613446
s(S'Temporal.1'
p5193
g5167
tp5194
F0.006002400960384154
s(g5161
g5163
tp5195
F0.003875968992248062
s(NS'.2'
p5196
tp5197
F0.057623049219687875
s(g5164
g5159
tp5198
F0.031007751937984496
s(S'Temporal.2'
p5199
S'.1'
p5200
tp5201
F0.0012004801920768306
s(g5173
Ntp5202
F0.0103359173126615
s(g5164
g5173
tp5203
F0.002583979328165375
s(g5151
Ntp5204
F0.006002400960384154
s(S'.2'
p5205
S'Expansion.2'
p5206
tp5207
F0.0024009603841536613
s(S'Expansion.2'
p5208
S'Expansion.2'
p5209
tp5210
F0.0012004801920768306
s(Ng5193
tp5211
F0.007202881152460984
s(Ng5173
tp5212
F0.020671834625323
s(S'.2'
p5213
Ntp5214
F0.03481392557022809
s(S'Temporal.1'
p5215
Ntp5216
F0.003601440576230492
s(S'.1'
p5217
g5146
tp5218
F0.0024009603841536613
s(Ng5176
tp5219
F0.04321728691476591
ssS'apwsE960109.0103-2-2-0.perm-12.txt.pipe'
p5220
(dp5221
sS'apwsE951010.0087-2-2-0.perm-1.txt.pipe'
p5222
(dp5223
(S'Expansion.1'
p5224
Ntp5225
F0.011532125205930808
s(NS'Temporal.2'
p5226
tp5227
F0.03130148270181219
s(NS'Temporal.1'
p5228
tp5229
F0.0032948929159802307
s(NS'Explicit'
p5230
tp5231
F0.09655172413793103
s(S'Comparison.2'
p5232
Ntp5233
F0.013179571663920923
s(S'Temporal.2'
p5234
S'Comparison.2'
p5235
tp5236
F0.0016474464579901153
s(S'Explicit'
p5237
S'Explicit'
p5238
tp5239
F0.0017241379310344827
s(NNtp5240
F0.8206896551724138
s(S'Temporal.2'
p5241
Ntp5242
F0.018121911037891267
s(NS'Comparison.2'
p5243
tp5244
F0.044481054365733116
s(S'Expansion.2'
p5245
g5235
tp5246
F0.0016474464579901153
s(NS'Comparison.1'
p5247
tp5248
F0.013179571663920923
s(S'Expansion.2'
p5249
Ntp5250
F0.008237232289950576
s(S'Temporal.1'
p5251
Ntp5252
F0.02800658978583196
s(S'Explicit'
p5253
Ntp5254
F0.08103448275862069
s(S'Comparison.1'
p5255
Ntp5256
F0.04118616144975288
ssS'apwsE950914.0074-0-1.perm-13.txt.pipe'
p5257
(dp5258
sS'apwsE951024.0020-2-2-0.perm-10.txt.pipe'
p5259
(dp5260
(S'Expansion.1'
p5261
Ntp5262
F0.12857142857142856
s(S'Explicit'
p5263
S'Explicit'
p5264
tp5265
F0.04285714285714286
s(S'Expansion.1'
p5266
S'Expansion.2'
p5267
tp5268
F0.014285714285714285
s(S'Comparison.2'
p5269
Ntp5270
F0.1
s(S'Explicit'
p5271
Ntp5272
F0.3142857142857143
s(S'Comparison.1'
p5273
S'Expansion.2'
p5274
tp5275
F0.014285714285714285
s(NNtp5276
F0.4857142857142857
s(Ng5264
tp5277
F0.15714285714285714
s(S'Expansion.2'
p5278
S'Expansion.2'
p5279
tp5280
F0.014285714285714285
s(S'Expansion.2'
p5281
Ntp5282
F0.02857142857142857
s(NS'Expansion.1'
p5283
tp5284
F0.08571428571428572
s(NS'Expansion.2'
p5285
tp5286
F0.07142857142857142
s(S'Comparison.1'
p5287
Ntp5288
F0.05714285714285714
ssS'apwsE951020.0430-2-2-0.perm-1.txt.pipe'
p5289
(dp5290
(S'Expansion.1'
p5291
Ntp5292
F0.125
s(S'Expansion.1'
p5293
S'Expansion.1'
p5294
tp5295
F0.013888888888888888
s(NS'Explicit'
p5296
tp5297
F0.1953125
s(g5296
Ntp5298
F0.1796875
s(g5296
S'Explicit'
p5299
tp5300
F0.0625
s(NNtp5301
F0.5625
s(NS'Comparison.2'
p5302
tp5303
F0.027777777777777776
s(S'Expansion.2'
p5304
S'Expansion.2'
p5305
tp5306
F0.034722222222222224
s(NS'Comparison.1'
p5307
tp5308
F0.05555555555555555
s(S'Expansion.2'
p5309
Ntp5310
F0.04861111111111111
s(NS'Expansion.1'
p5311
tp5312
F0.020833333333333332
s(Ng5304
tp5313
F0.16666666666666666
s(g5311
S'Comparison.2'
p5314
tp5315
F0.006944444444444444
ssS'apwsE951210.0356-2-2-0.perm-1.txt.pipe'
p5316
(dp5317
sS'apwsE951201.0003-2-2-0.perm-13.txt.pipe'
p5318
(dp5319
sS'apwsE951021.0001-2-2-0.perm-12.txt.pipe'
p5320
(dp5321
(S'Implicit'
p5322
Ntp5323
F0.024822695035460994
s(NS'Temporal.2'
p5324
tp5325
F0.006980802792321117
s(S'Comparison.2'
p5326
S'Comparison.2'
p5327
tp5328
F0.005235602094240838
s(NS'Temporal.1'
p5329
tp5330
F0.010471204188481676
s(g5327
Ntp5331
F0.03315881326352531
s(S'Comparison.1'
p5332
S'Contingency.2'
p5333
tp5334
F0.0017452006980802793
s(S'Explicit'
p5335
S'Explicit'
p5336
tp5337
F0.012411347517730497
s(NNtp5338
F0.7322695035460993
s(NS'Comparison.2'
p5339
tp5340
F0.012216404886561954
s(S'Expansion.2'
p5341
Ntp5342
F0.008726003490401396
s(NS'Contingency.1'
p5343
tp5344
F0.010471204188481676
s(Ng5322
tp5345
F0.010638297872340425
s(S'Expansion.1'
p5346
S'Contingency.1'
p5347
tp5348
F0.0017452006980802793
s(S'Expansion.1'
p5349
Ntp5350
F0.06806282722513089
s(S'Expansion.1'
p5351
S'Contingency.2'
p5352
tp5353
F0.0017452006980802793
s(NS'Contingency.2'
p5354
tp5355
F0.020942408376963352
s(g5336
Ntp5356
F0.11347517730496454
s(NS'Explicit'
p5357
tp5358
F0.10638297872340426
s(S'Expansion.2'
p5359
g5327
tp5360
F0.005235602094240838
s(NS'Comparison.1'
p5361
tp5362
F0.02443280977312391
s(NS'Expansion.2'
p5363
tp5364
F0.029668411867364748
s(S'Comparison.2'
p5365
S'Contingency.1'
p5366
tp5367
F0.0017452006980802793
s(g5361
Ntp5368
F0.03664921465968586
ssS'apwsE951024.0110-2-2-0.perm-13.txt.pipe'
p5369
(dp5370
(S'Expansion.1'
p5371
S'Comparison.1'
p5372
tp5373
F0.009615384615384616
s(S'Expansion.1'
p5374
Ntp5375
F0.0673076923076923
s(NS'Comparison.1'
p5376
tp5377
F0.14423076923076922
s(S'Expansion.2'
p5378
Ntp5379
F0.07692307692307693
s(NS'Comparison.2'
p5380
tp5381
F0.1346153846153846
s(NS'Explicit'
p5382
tp5383
F0.27884615384615385
s(S'Explicit'
p5384
Ntp5385
F0.14423076923076922
s(g5384
S'Explicit'
p5386
tp5387
F0.009615384615384616
s(NNtp5388
F0.5673076923076923
ssS'apwsE951003.0485-2-2-0.perm-10.txt.pipe'
p5389
(dp5390
sS'apwsE951108.0165-2-2-0.perm-1.txt.pipe'
p5391
(dp5392
(S'Expansion.1'
p5393
Ntp5394
F0.07373271889400922
s(NS'Explicit'
p5395
tp5396
F0.20772946859903382
s(S'Comparison.2'
p5397
Ntp5398
F0.06451612903225806
s(S'Explicit'
p5399
Ntp5400
F0.17391304347826086
s(S'Explicit'
p5401
g5395
tp5402
F0.004830917874396135
s(NNtp5403
F0.6135265700483091
s(NS'Comparison.2'
p5404
tp5405
F0.06912442396313365
s(S'Expansion.2'
p5406
Ntp5407
F0.02304147465437788
s(NS'Expansion.1'
p5408
tp5409
F0.03686635944700461
s(NS'Expansion.2'
p5410
tp5411
F0.09216589861751152
s(S'Comparison.2'
p5412
S'Expansion.1'
p5413
tp5414
F0.004608294930875576
s(S'Comparison.1'
p5415
Ntp5416
F0.05069124423963134
ssS'apwsE950919.0594-2-2-0.perm-1.txt.pipe'
p5417
(dp5418
sS'apwsE951009.0305-2-2-0.perm-1.txt.pipe'
p5419
(dp5420
(NS'Temporal.2'
p5421
tp5422
F0.00808080808080808
s(S'Contingency.2'
p5423
Ntp5424
F0.01818181818181818
s(NS'Temporal.1'
p5425
tp5426
F0.00202020202020202
s(S'Comparison.2'
p5427
Ntp5428
F0.03838383838383838
s(S'Expansion.2'
p5429
S'Expansion.1'
p5430
tp5431
F0.00202020202020202
s(S'Explicit'
p5432
S'Explicit'
p5433
tp5434
F0.022727272727272728
s(NNtp5435
F0.6977272727272728
s(NS'Comparison.2'
p5436
tp5437
F0.026262626262626262
s(S'Expansion.2'
p5438
Ntp5439
F0.03636363636363636
s(NS'Expansion.1'
p5440
tp5441
F0.028282828282828285
s(S'Comparison.2'
p5442
S'Comparison.2'
p5443
tp5444
F0.00202020202020202
s(S'Expansion.1'
p5445
S'Comparison.1'
p5446
tp5447
F0.006060606060606061
s(S'Contingency.1'
p5448
Ntp5449
F0.01616161616161616
s(S'Comparison.1'
p5450
g5430
tp5451
F0.00202020202020202
s(NS'Explicit'
p5452
tp5453
F0.14545454545454545
s(S'Explicit'
p5454
Ntp5455
F0.1340909090909091
s(S'Expansion.2'
p5456
S'Comparison.2'
p5457
tp5458
F0.010101010101010102
s(S'Expansion.2'
p5459
S'Expansion.2'
p5460
tp5461
F0.00202020202020202
s(NS'Comparison.1'
p5462
tp5463
F0.03434343434343434
s(S'Comparison.1'
p5464
Ntp5465
F0.048484848484848485
s(NS'Expansion.2'
p5466
tp5467
F0.06868686868686869
s(S'Expansion.1'
p5468
Ntp5469
F0.030303030303030304
ssS'apwsE960221.0036-0-1.perm-13.txt.pipe'
p5470
(dp5471
sS'apwsE951024.0110-2-2-0.perm-12.txt.pipe'
p5472
(dp5473
(S'Expansion.1'
p5474
Ntp5475
F0.019230769230769232
s(NS'Explicit'
p5476
tp5477
F0.17307692307692307
s(S'Comparison.2'
p5478
Ntp5479
F0.04807692307692308
s(S'Explicit'
p5480
Ntp5481
F0.17307692307692307
s(NNtp5482
F0.6538461538461539
s(NS'Comparison.2'
p5483
tp5484
F0.0673076923076923
s(NS'Comparison.1'
p5485
tp5486
F0.057692307692307696
s(S'Expansion.2'
p5487
Ntp5488
F0.028846153846153848
s(Ng5474
tp5489
F0.019230769230769232
s(Ng5487
tp5490
F0.028846153846153848
s(S'Comparison.1'
p5491
Ntp5492
F0.07692307692307693
ssS'apwsE951018.0070-2-2-0.perm-1.txt.pipe'
p5493
(dp5494
sS'apwsE960108.0194-2-2-0.perm-11.txt.pipe'
p5495
(dp5496
sS'apwsE950620.0596-0-1.perm-10.txt.pipe'
p5497
(dp5498
sS'apwsE950822.0071-0-1.perm-12.txt.pipe'
p5499
(dp5500
sS'apwsE950905.0546-2-2-0.perm-1.txt.pipe'
p5501
(dp5502
sS'apwsE951024.0020-2-2-0.perm-1.txt.pipe'
p5503
(dp5504
(S'Expansion.1'
p5505
Ntp5506
F0.12380952380952381
s(S'Expansion.1'
p5507
S'Expansion.2'
p5508
tp5509
F0.02857142857142857
s(S'Expansion.2'
p5510
S'Expansion.1'
p5511
tp5512
F0.009523809523809525
s(S'Explicit'
p5513
S'Explicit'
p5514
tp5515
F0.05714285714285714
s(NNtp5516
F0.5047619047619047
s(NS'Comparison.2'
p5517
tp5518
F0.06666666666666667
s(S'Expansion.2'
p5519
S'Expansion.2'
p5520
tp5521
F0.009523809523809525
s(NS'Comparison.1'
p5522
tp5523
F0.0380952380952381
s(S'Expansion.2'
p5524
Ntp5525
F0.0761904761904762
s(NS'Expansion.1'
p5526
tp5527
F0.06666666666666667
s(g5520
S'Comparison.1'
p5528
tp5529
F0.009523809523809525
s(NS'Expansion.2'
p5530
tp5531
F0.06666666666666667
s(Ng5514
tp5532
F0.23809523809523808
s(S'Explicit'
p5533
Ntp5534
F0.2
ssS'apwsE950928.0080-0-1.perm-11.txt.pipe'
p5535
(dp5536
sS'apwsE951009.0294-2-2-0.perm-1.txt.pipe'
p5537
(dp5538
sS'apwsE950919.0202-2-2-0.perm-10.txt.pipe'
p5539
(dp5540
sS'apwsE951004.0060-2-2-0.perm-1.txt.pipe'
p5541
(dp5542
sS'apwsE950424.0128-0-1.perm-10.txt.pipe'
p5543
(dp5544
sS'apwsE951009.0216-2-2-0.perm-10.txt.pipe'
p5545
(dp5546
sS'apwsE960109.0130-2-2-0.perm-1.txt.pipe'
p5547
(dp5548
sS'apwsE951122.0004-0-1.perm-13.txt.pipe'
p5549
(dp5550
sS'apwsE950919.0594-2-2-0.perm-13.txt.pipe'
p5551
(dp5552
sS'apwsE951101.0026-0-1.perm-12.txt.pipe'
p5553
(dp5554
(NS'Comparison.2'
p5555
tp5556
F0.2608695652173913
s(S'Comparison.1'
p5557
S'Comparison.1'
p5558
tp5559
F0.08695652173913043
s(NS'Comparison.1'
p5560
tp5561
F0.17391304347826086
s(S'Comparison.2'
p5562
S'Comparison.1'
p5563
tp5564
F0.043478260869565216
s(S'Comparison.2'
p5565
Ntp5566
F0.34782608695652173
s(S'Explicit'
p5567
Ntp5568
F0.43478260869565216
s(g5567
S'Explicit'
p5569
tp5570
F0.13043478260869565
s(Ng5569
tp5571
F0.43478260869565216
s(S'Comparison.1'
p5572
Ntp5573
F0.08695652173913043
ssS'apwsE950425.0109-0-1.perm-1.txt.pipe'
p5574
(dp5575
sS'apwsE951020.0430-2-2-0.perm-10.txt.pipe'
p5576
(dp5577
(S'Expansion.1'
p5578
Ntp5579
F0.039285714285714285
s(S'Comparison.1'
p5580
S'Comparison.1'
p5581
tp5582
F0.0035714285714285713
s(NS'Explicit'
p5583
tp5584
F0.1828358208955224
s(S'Comparison.2'
p5585
Ntp5586
F0.03571428571428571
s(S'Explicit'
p5587
Ntp5588
F0.11940298507462686
s(S'Explicit'
p5589
g5583
tp5590
F0.0037313432835820895
s(NNtp5591
F0.6940298507462687
s(NS'Comparison.2'
p5592
tp5593
F0.039285714285714285
s(NS'Comparison.1'
p5594
tp5595
F0.05357142857142857
s(S'Expansion.2'
p5596
Ntp5597
F0.02857142857142857
s(Ng5578
tp5598
F0.025
s(Ng5596
tp5599
F0.1
s(S'Comparison.1'
p5600
Ntp5601
F0.010714285714285714
ssS'apwsE951121.0032-2-2-0.perm-13.txt.pipe'
p5602
(dp5603
sS'apwsE950919.0580-2-2-0.perm-1.txt.pipe'
p5604
(dp5605
sS'apwsE951009.0278-2-2-0.perm-11.txt.pipe'
p5606
(dp5607
(S'Expansion.1'
p5608
Ntp5609
F0.08547008547008547
s(S'Implicit'
p5610
Ntp5611
F0.04700854700854701
s(NS'Explicit'
p5612
tp5613
F0.03418803418803419
s(S'Comparison.2'
p5614
Ntp5615
F0.029914529914529916
s(S'Explicit'
p5616
Ntp5617
F0.0811965811965812
s(NNtp5618
F0.7692307692307693
s(Ng5608
tp5619
F0.04700854700854701
s(Ng5610
tp5620
F0.06837606837606838
s(NS'Expansion.2'
p5621
tp5622
F0.05555555555555555
s(S'Comparison.1'
p5623
Ntp5624
F0.01282051282051282
ssS'apwsE950914.0071-0-1.perm-11.txt.pipe'
p5625
(dp5626
sS'apwsE960109.0412-0-1.perm-11.txt.pipe'
p5627
(dp5628
sS'apwsE951221.0049-2-2-0.perm-13.txt.pipe'
p5629
(dp5630
sS'apwsE950919.0202-2-2-0.perm-11.txt.pipe'
p5631
(dp5632
sS'apwsE960313.0024-2-2-0.perm-1.txt.pipe'
p5633
(dp5634
sS'apwsE951218.0398-0-1.perm-13.txt.pipe'
p5635
(dp5636
(NS'Comparison.2'
p5637
tp5638
F0.2608695652173913
s(S'Comparison.1'
p5639
S'Comparison.1'
p5640
tp5641
F0.08695652173913043
s(NS'Comparison.1'
p5642
tp5643
F0.17391304347826086
s(S'Comparison.2'
p5644
S'Comparison.1'
p5645
tp5646
F0.043478260869565216
s(S'Comparison.2'
p5647
Ntp5648
F0.34782608695652173
s(S'Explicit'
p5649
Ntp5650
F0.43478260869565216
s(g5649
S'Explicit'
p5651
tp5652
F0.13043478260869565
s(Ng5651
tp5653
F0.43478260869565216
s(S'Comparison.1'
p5654
Ntp5655
F0.08695652173913043
ssS'apwsE951024.0005-2-2-0.perm-11.txt.pipe'
p5656
(dp5657
(S'Expansion.2'
p5658
S'.1'
p5659
tp5660
F0.0013245033112582781
s(S'.1'
p5661
S'Expansion.1'
p5662
tp5663
F0.0026490066225165563
s(NS'EntRel'
p5664
tp5665
F0.139937106918239
s(S'.2'
p5666
S'.2'
p5667
tp5668
F0.033112582781456956
s(S'EntRel'
p5669
Ntp5670
F0.13679245283018868
s(S'Comparison.2'
p5671
Ntp5672
F0.006622516556291391
s(S'Comparison.1'
p5673
S'Expansion.2'
p5674
tp5675
F0.0013245033112582781
s(S'Explicit'
p5676
S'Explicit'
p5677
tp5678
F0.0015723270440251573
s(S'.1'
p5679
g5659
tp5680
F0.018543046357615896
s(NNtp5681
F0.5927672955974843
s(S'.1'
p5682
Ntp5683
F0.09536423841059603
s(NS'Comparison.2'
p5684
tp5685
F0.007947019867549669
s(g5684
S'.1'
p5686
tp5687
F0.0013245033112582781
s(S'.2'
p5688
g5662
tp5689
F0.0026490066225165563
s(S'Expansion.2'
p5690
Ntp5691
F0.003973509933774834
s(S'Comparison.1'
p5692
S'.1'
p5693
tp5694
F0.0026490066225165563
s(NS'Expansion.1'
p5695
tp5696
F0.005298013245033113
s(S'.1'
p5697
S'Expansion.2'
p5698
tp5699
F0.0026490066225165563
s(Ng5682
tp5700
F0.08344370860927153
s(S'Expansion.2'
p5701
S'.2'
p5702
tp5703
F0.0013245033112582781
s(S'.2'
p5704
g5659
tp5705
F0.009271523178807948
s(g5695
Ntp5706
F0.0026490066225165563
s(S'.1'
p5707
g5692
tp5708
F0.0013245033112582781
s(Ng5666
tp5709
F0.11258278145695365
s(g5664
g5669
tp5710
F0.06132075471698113
s(Ng5677
tp5711
F0.031446540880503145
s(g5676
Ntp5712
F0.020440251572327043
s(g5669
S'Explicit'
p5713
tp5714
F0.007861635220125786
s(S'.2'
p5715
g5698
tp5716
F0.0026490066225165563
s(NS'Comparison.1'
p5717
tp5718
F0.005298013245033113
s(g5667
Ntp5719
F0.0847682119205298
s(g5677
S'EntRel'
p5720
tp5721
F0.007861635220125786
s(Ng5658
tp5722
F0.007947019867549669
s(g5717
Ntp5723
F0.003973509933774834
ssS'apwsE951018.0170-2-2-0.perm-12.txt.pipe'
p5724
(dp5725
sS'apwsE951106.0072-2-2-0.perm-10.txt.pipe'
p5726
(dp5727
sS'apwsE951210.0051-2-2-0.perm-12.txt.pipe'
p5728
(dp5729
sS'apwsE951009.0245-2-2-0.perm-13.txt.pipe'
p5730
(dp5731
(S'.1'
p5732
S'Contingency.1'
p5733
tp5734
F0.0011273957158962795
s(S'Expansion.1'
p5735
S'Expansion.1'
p5736
tp5737
F0.0033821871476888386
s(S'.2'
p5738
S'.2'
p5739
tp5740
F0.008455467869222097
s(S'Comparison.2'
p5741
Ntp5742
F0.002254791431792559
s(g5732
S'Comparison.2'
p5743
tp5744
F0.0005636978579481398
s(S'Implicit'
p5745
S'EntRel'
p5746
tp5747
F0.005357142857142857
s(S'.1'
p5748
S'.1'
p5749
tp5750
F0.002254791431792559
s(S'.1'
p5751
Ntp5752
F0.02874859075535513
s(NS'Comparison.2'
p5753
tp5754
F0.0062006764374295375
s(S'Implicit'
p5755
S'Explicit'
p5756
tp5757
F0.0017857142857142857
s(S'Implicit'
p5758
Ntp5759
F0.04107142857142857
s(NS'Contingency.1'
p5760
tp5761
F0.0033821871476888386
s(S'EntRel'
p5762
S'Implicit'
p5763
tp5764
F0.0017857142857142857
s(S'Expansion.1'
p5765
g5733
tp5766
F0.0005636978579481398
s(g5763
S'Implicit'
p5767
tp5768
F0.009523809523809525
s(NS'.2'
p5769
tp5770
F0.03664036076662908
s(S'.2'
p5771
S'Contingency.2'
p5772
tp5773
F0.0005636978579481398
s(S'Explicit'
p5774
Ntp5775
F0.009523809523809525
s(S'Temporal.2'
p5776
Ntp5777
F0.0005636978579481398
s(g5756
g5763
tp5778
F0.0035714285714285713
s(S'Temporal.1'
p5779
Ntp5780
F0.0005636978579481398
s(NS'Contingency.2'
p5781
tp5782
F0.004509582863585118
s(S'Comparison.1'
p5783
Ntp5784
F0.007891770011273957
s(S'Expansion.2'
p5785
g5749
tp5786
F0.0011273957158962795
s(S'Explicit'
p5787
g5756
tp5788
F0.0017857142857142857
s(NS'Temporal.2'
p5789
tp5790
F0.002254791431792559
s(Ng5779
tp5791
F0.0005636978579481398
s(S'EntRel'
p5792
Ntp5793
F0.0380952380952381
s(NNtp5794
F0.7523809523809524
s(Ng5751
tp5795
F0.02987598647125141
s(Ng5792
tp5796
F0.05178571428571429
s(g5789
g5736
tp5797
F0.0011273957158962795
s(S'.2'
p5798
g5736
tp5799
F0.0011273957158962795
s(S'Expansion.2'
p5800
Ntp5801
F0.02818489289740699
s(g5774
S'EntRel'
p5802
tp5803
F0.005357142857142857
s(NS'Expansion.1'
p5804
tp5805
F0.015219842164599774
s(S'.1'
p5806
S'Expansion.2'
p5807
tp5808
F0.0005636978579481398
s(Ng5758
tp5809
F0.0375
s(S'.2'
p5810
g5743
tp5811
F0.0011273957158962795
s(S'Expansion.2'
p5812
S'.2'
p5813
tp5814
F0.009019165727170236
s(S'.2'
p5815
S'.1'
p5816
tp5817
F0.0005636978579481398
s(g5804
Ntp5818
F0.014656144306651634
s(S'.1'
p5819
S'Comparison.1'
p5820
tp5821
F0.0005636978579481398
s(S'EntRel'
p5822
g5762
tp5823
F0.01130952380952381
s(NS'Explicit'
p5824
tp5825
F0.025595238095238095
s(Ng5800
tp5826
F0.03720405862457723
s(g5762
g5756
tp5827
F0.0035714285714285713
s(g5815
g5807
tp5828
F0.0011273957158962795
s(S'Expansion.2'
p5829
S'Expansion.2'
p5830
tp5831
F0.005636978579481398
s(NS'Comparison.1'
p5832
tp5833
F0.004509582863585118
s(g5739
Ntp5834
F0.02367531003382187
s(g5810
g5733
tp5835
F0.0005636978579481398
s(S'Temporal.2'
p5836
S'Expansion.2'
p5837
tp5838
F0.0005636978579481398
s(g5765
g5743
tp5839
F0.0005636978579481398
ssS'apwsE960207.0488-2-2-0.perm-13.txt.pipe'
p5840
(dp5841
(NS'Explicit'
p5842
tp5843
F0.64
s(NS'Expansion.1'
p5844
tp5845
F0.1724137931034483
s(g5842
Ntp5846
F0.36
s(NS'Expansion.2'
p5847
tp5848
F0.5172413793103449
s(S'Expansion.1'
p5849
Ntp5850
F0.3103448275862069
ssS'apwsE950425.0109-0-1.perm-13.txt.pipe'
p5851
(dp5852
sS'apwsE960313.0024-2-2-0.perm-13.txt.pipe'
p5853
(dp5854
sS'apwsE960216.0269-2-2-0.perm-13.txt.pipe'
p5855
(dp5856
(S'Implicit'
p5857
Ntp5858
F0.17269076305220885
s(NS'Temporal.2'
p5859
tp5860
F0.061371841155234655
s(NS'Temporal.1'
p5861
tp5862
F0.018050541516245487
s(S'Explicit'
p5863
S'Explicit'
p5864
tp5865
F0.004016064257028112
s(NNtp5866
F0.5341365461847389
s(NS'Comparison.2'
p5867
tp5868
F0.021660649819494584
s(g5857
g5864
tp5869
F0.004016064257028112
s(S'Temporal.1'
p5870
S'Comparison.2'
p5871
tp5872
F0.0036101083032490976
s(S'Expansion.2'
p5873
Ntp5874
F0.04332129963898917
s(NS'Expansion.1'
p5875
tp5876
F0.04332129963898917
s(Ng5857
tp5877
F0.09236947791164658
s(g5875
Ntp5878
F0.11191335740072202
s(Ng5864
tp5879
F0.09236947791164658
s(S'Explicit'
p5880
Ntp5881
F0.09236947791164658
s(S'Temporal.2'
p5882
Ntp5883
F0.039711191335740074
s(S'Expansion.2'
p5884
g5871
tp5885
F0.0036101083032490976
s(NS'Comparison.1'
p5886
tp5887
F0.04332129963898917
s(g5880
S'Implicit'
p5888
tp5889
F0.008032128514056224
s(S'Temporal.1'
p5890
Ntp5891
F0.08303249097472924
s(S'Temporal.2'
p5892
S'Expansion.2'
p5893
tp5894
F0.007220216606498195
s(Ng5873
tp5895
F0.039711191335740074
ssS'apwsE960109.0103-2-2-0.perm-11.txt.pipe'
p5896
(dp5897
sS'apwsE960214.0448-2-2-0.perm-13.txt.pipe'
p5898
(dp5899
sS'apwsE951006.0493-2-2-0.perm-10.txt.pipe'
p5900
(dp5901
(S'Contingency.2'
p5902
Ntp5903
F0.01098901098901099
s(S'Explicit'
p5904
S'Explicit'
p5905
tp5906
F0.02453271028037383
s(S'Comparison.2'
p5907
S'Comparison.2'
p5908
tp5909
F0.001098901098901099
s(S'Expansion.1'
p5910
Ntp5911
F0.025274725274725275
s(S'Comparison.2'
p5912
Ntp5913
F0.035164835164835165
s(S'Comparison.1'
p5914
S'Expansion.2'
p5915
tp5916
F0.0032967032967032967
s(NNtp5917
F0.7476635514018691
s(S'Temporal.1'
p5918
S'Expansion.2'
p5919
tp5920
F0.001098901098901099
s(Ng5912
tp5921
F0.05054945054945055
s(g5915
Ntp5922
F0.015384615384615385
s(NS'Expansion.1'
p5923
tp5924
F0.014285714285714285
s(NS'Contingency.1'
p5925
tp5926
F0.001098901098901099
s(S'Explicit'
p5927
Ntp5928
F0.11799065420560748
s(S'Comparison.2'
p5929
S'Contingency.2'
p5930
tp5931
F0.0032967032967032967
s(S'Contingency.1'
p5932
Ntp5933
F0.0032967032967032967
s(S'Comparison.1'
p5934
S'Expansion.1'
p5935
tp5936
F0.002197802197802198
s(S'Comparison.2'
p5937
S'Comparison.1'
p5938
tp5939
F0.001098901098901099
s(NS'Contingency.2'
p5940
tp5941
F0.013186813186813187
s(S'Temporal.2'
p5942
g5907
tp5943
F0.004395604395604396
s(S'Temporal.1'
p5944
g5935
tp5945
F0.001098901098901099
s(S'Temporal.2'
p5946
Ntp5947
F0.007692307692307693
s(S'Comparison.2'
p5948
g5932
tp5949
F0.002197802197802198
s(Ng5927
tp5950
F0.10981308411214953
s(g5940
S'Expansion.2'
p5951
tp5952
F0.005494505494505495
s(NS'Comparison.1'
p5953
tp5954
F0.025274725274725275
s(S'Temporal.1'
p5955
Ntp5956
F0.007692307692307693
s(S'Temporal.2'
p5957
S'Expansion.2'
p5958
tp5959
F0.001098901098901099
s(NS'Expansion.2'
p5960
tp5961
F0.016483516483516484
s(g5948
g5910
tp5962
F0.002197802197802198
s(g5953
Ntp5963
F0.041758241758241756
ssS'apwsE960214.0448-2-2-0.perm-10.txt.pipe'
p5964
(dp5965
sS'apwsE951125.0054-2-2-0.perm-1.txt.pipe'
p5966
(dp5967
(NS'Explicit'
p5968
tp5969
F0.35526315789473684
s(S'Comparison.2'
p5970
Ntp5971
F0.07894736842105263
s(g5968
Ntp5972
F0.3157894736842105
s(NNtp5973
F0.32894736842105265
s(NS'Comparison.2'
p5974
tp5975
F0.21052631578947367
s(NS'Comparison.1'
p5976
tp5977
F0.14473684210526316
s(g5976
Ntp5978
F0.23684210526315788
ssS'apwsE960206.0441-2-2-0.perm-10.txt.pipe'
p5979
(dp5980
sS'apwsE951024.0020-2-2-0.perm-13.txt.pipe'
p5981
(dp5982
(S'Expansion.1'
p5983
S'Comparison.1'
p5984
tp5985
F0.02857142857142857
s(S'Expansion.1'
p5986
Ntp5987
F0.047619047619047616
s(S'Comparison.1'
p5988
S'Expansion.1'
p5989
tp5990
F0.009523809523809525
s(S'Explicit'
p5991
S'Explicit'
p5992
tp5993
F0.08571428571428572
s(NS'Explicit'
p5994
tp5995
F0.21904761904761905
s(S'Comparison.2'
p5996
Ntp5997
F0.047619047619047616
s(g5991
Ntp5998
F0.20952380952380953
s(S'Comparison.1'
p5999
S'Expansion.2'
p6000
tp6001
F0.009523809523809525
s(NNtp6002
F0.4857142857142857
s(NS'Comparison.2'
p6003
tp6004
F0.05714285714285714
s(S'Expansion.2'
p6005
g5996
tp6006
F0.009523809523809525
s(S'Expansion.2'
p6007
S'Expansion.2'
p6008
tp6009
F0.009523809523809525
s(NS'Comparison.1'
p6010
tp6011
F0.01904761904761905
s(S'Expansion.2'
p6012
Ntp6013
F0.08571428571428572
s(NS'Expansion.1'
p6014
tp6015
F0.08571428571428572
s(NS'Expansion.2'
p6016
tp6017
F0.05714285714285714
s(S'Comparison.2'
p6018
S'Expansion.1'
p6019
tp6020
F0.01904761904761905
s(g6010
Ntp6021
F0.02857142857142857
ssS'apwsE960508.0041-2-2-0.perm-12.txt.pipe'
p6022
(dp6023
sS'apwsE951210.0356-2-2-0.perm-11.txt.pipe'
p6024
(dp6025
sS'apwsE951001.0328-2-2-0.perm-13.txt.pipe'
p6026
(dp6027
(S'Expansion.1'
p6028
Ntp6029
F0.30952380952380953
s(NS'Implicit'
p6030
tp6031
F0.2619047619047619
s(S'Explicit'
p6032
Ntp6033
F0.30952380952380953
s(S'Temporal.2'
p6034
Ntp6035
F0.11904761904761904
s(g6030
Ntp6036
F0.30952380952380953
s(g6032
g6030
tp6037
F0.11904761904761904
s(S'Temporal.1'
p6038
Ntp6039
F0.19047619047619047
s(S'Temporal.2'
p6040
S'Expansion.2'
p6041
tp6042
F0.11904761904761904
s(NS'Expansion.2'
p6043
tp6044
F0.2619047619047619
ssS'apwsE951009.0228-2-2-0.perm-12.txt.pipe'
p6045
(dp6046
sS'apwsE951018.0170-2-2-0.perm-1.txt.pipe'
p6047
(dp6048
sS'apwsE951004.0060-2-2-0.perm-12.txt.pipe'
p6049
(dp6050
sS'apwsE960104.0037-0-1.perm-13.txt.pipe'
p6051
(dp6052
sS'apwsE950822.0071-0-1.perm-1.txt.pipe'
p6053
(dp6054
sS'apwsE951226.0004-2-2-0.perm-13.txt.pipe'
p6055
(dp6056
(NS'Explicit'
p6057
tp6058
F0.7222222222222222
s(S'Expansion.1'
p6059
Ntp6060
F0.2777777777777778
s(g6057
Ntp6061
F0.2777777777777778
s(NS'Expansion.2'
p6062
tp6063
F0.7222222222222222
ssS'apwsE951018.0070-2-2-0.perm-11.txt.pipe'
p6064
(dp6065
sS'apwsE960207.0488-2-2-0.perm-1.txt.pipe'
p6066
(dp6067
(NS'Explicit'
p6068
tp6069
F0.64
s(NS'Expansion.1'
p6070
tp6071
F0.1724137931034483
s(S'Explicit'
p6072
Ntp6073
F0.36
s(NS'Expansion.2'
p6074
tp6075
F0.5172413793103449
s(S'Expansion.1'
p6076
Ntp6077
F0.3103448275862069
ssS'apwsE960216.0269-2-2-0.perm-10.txt.pipe'
p6078
(dp6079
(S'.2'
p6080
Ntp6081
F0.018711018711018712
s(S'Expansion.2'
p6082
S'Temporal.1'
p6083
tp6084
F0.002079002079002079
s(S'Implicit'
p6085
Ntp6086
F0.07918552036199095
s(NS'Temporal.2'
p6087
tp6088
F0.062370062370062374
s(S'Temporal.2'
p6089
S'.2'
p6090
tp6091
F0.004158004158004158
s(S'Expansion.1'
p6092
Ntp6093
F0.029106029106029108
s(S'EntRel'
p6094
Ntp6095
F0.06108597285067873
s(Ng6085
tp6096
F0.083710407239819
s(S'Explicit'
p6097
S'Explicit'
p6098
tp6099
F0.004524886877828055
s(g6085
g6094
tp6100
F0.013574660633484163
s(NNtp6101
F0.4796380090497738
s(S'.1'
p6102
Ntp6103
F0.037422037422037424
s(Ng6094
tp6104
F0.0746606334841629
s(NS'Comparison.2'
p6105
tp6106
F0.014553014553014554
s(S'Expansion.1'
p6107
S'Temporal.1'
p6108
tp6109
F0.004158004158004158
s(S'Expansion.2'
p6110
Ntp6111
F0.04365904365904366
s(S'.2'
p6112
S'Comparison.1'
p6113
tp6114
F0.002079002079002079
s(Ng6092
tp6115
F0.02494802494802495
s(S'Temporal.2'
p6116
g6083
tp6117
F0.002079002079002079
s(Ng6102
tp6118
F0.037422037422037424
s(S'Expansion.2'
p6119
g6090
tp6120
F0.006237006237006237
s(NS'Temporal.1'
p6121
tp6122
F0.05197505197505198
s(g6107
S'.1'
p6123
tp6124
F0.006237006237006237
s(S'Temporal.1'
p6125
g6083
tp6126
F0.002079002079002079
s(Ng6080
tp6127
F0.031185031185031187
s(Ng6097
tp6128
F0.10180995475113122
s(S'.2'
p6129
S'Temporal.2'
p6130
tp6131
F0.016632016632016633
s(g6097
Ntp6132
F0.06334841628959276
s(g6094
g6098
tp6133
F0.027149321266968326
s(g6087
Ntp6134
F0.02079002079002079
s(g6085
g6098
tp6135
F0.006787330316742082
s(NS'Comparison.1'
p6136
tp6137
F0.02286902286902287
s(S'Temporal.1'
p6138
g6113
tp6139
F0.002079002079002079
s(g6121
Ntp6140
F0.058212058212058215
s(S'.1'
p6141
S'Temporal.1'
p6142
tp6143
F0.006237006237006237
s(Ng6110
tp6144
F0.05197505197505198
s(g6097
g6094
tp6145
F0.004524886877828055
ssS'apwsE951210.0356-2-2-0.perm-10.txt.pipe'
p6146
(dp6147
sS'apwsE951009.0245-2-2-0.perm-1.txt.pipe'
p6148
(dp6149
(S'.1'
p6150
S'Expansion.1'
p6151
tp6152
F0.0003795066413662239
s(S'Expansion.1'
p6153
S'Contingency.1'
p6154
tp6155
F0.0003795066413662239
s(S'.2'
p6156
S'.2'
p6157
tp6158
F0.0064516129032258064
s(S'Comparison.2'
p6159
Ntp6160
F0.003795066413662239
s(S'.1'
p6161
S'Comparison.2'
p6162
tp6163
F0.0003795066413662239
s(S'Implicit'
p6164
S'EntRel'
p6165
tp6166
F0.006392329204954055
s(S'.1'
p6167
S'.1'
p6168
tp6169
F0.0018975332068311196
s(S'.1'
p6170
Ntp6171
F0.023908918406072108
s(Ng6159
tp6172
F0.004933586337760911
s(S'Implicit'
p6173
S'Explicit'
p6174
tp6175
F0.0015980823012385138
s(S'Implicit'
p6176
Ntp6177
F0.044746304434678384
s(NS'Expansion.1'
p6178
tp6179
F0.020872865275142316
s(S'EntRel'
p6180
S'Implicit'
p6181
tp6182
F0.003995205753096284
s(S'Expansion.2'
p6183
S'Comparison.1'
p6184
tp6185
F0.0003795066413662239
s(g6153
S'Expansion.1'
p6186
tp6187
F0.0003795066413662239
s(g6173
g6176
tp6188
F0.006392329204954055
s(NS'.2'
p6189
tp6190
F0.02808349146110057
s(S'Explicit'
p6191
Ntp6192
F0.013983220135836995
s(S'Contingency.2'
p6193
S'Expansion.2'
p6194
tp6195
F0.0011385199240986717
s(NS'Temporal.1'
p6196
tp6197
F0.0003795066413662239
s(S'Explicit'
p6198
S'Implicit'
p6199
tp6200
F0.0015980823012385138
s(NS'Contingency.2'
p6201
tp6202
F0.0026565464895635673
s(g6183
g6154
tp6203
F0.0003795066413662239
s(S'Comparison.1'
p6204
Ntp6205
F0.004554079696394687
s(g6153
g6184
tp6206
F0.0003795066413662239
s(NS'Temporal.2'
p6207
tp6208
F0.0015180265654648956
s(S'Contingency.1'
p6209
Ntp6210
F0.0030360531309297912
s(S'EntRel'
p6211
Ntp6212
F0.044746304434678384
s(S'Expansion.2'
p6213
g6151
tp6214
F0.0007590132827324478
s(S'Expansion.2'
p6215
Ntp6216
F0.03149905123339659
s(NNtp6217
F0.7502996404314822
s(Ng6170
tp6218
F0.022770398481973434
s(Ng6211
tp6219
F0.04314822213343987
s(g6201
Ntp6220
F0.0022770398481973433
s(Ng6209
tp6221
F0.0026565464895635673
s(S'.1'
p6222
S'Expansion.2'
p6223
tp6224
F0.0003795066413662239
s(Ng6173
tp6225
F0.044746304434678384
s(S'Expansion.2'
p6226
S'.2'
p6227
tp6228
F0.007969639468690701
s(S'.2'
p6229
S'.1'
p6230
tp6231
F0.0015180265654648956
s(S'Comparison.2'
p6232
g6194
tp6233
F0.0011385199240986717
s(g6178
Ntp6234
F0.024667931688804556
s(S'Expansion.2'
p6235
g6215
tp6236
F0.0060721062618595825
s(S'EntRel'
p6237
S'EntRel'
p6238
tp6239
F0.009588493807431082
s(Ng6191
tp6240
F0.021574111066719935
s(Ng6235
tp6241
F0.039468690702087285
s(S'Comparison.2'
p6242
S'.2'
p6243
tp6244
F0.0011385199240986717
s(g6238
S'Explicit'
p6245
tp6246
F0.0007990411506192569
s(g6189
S'Expansion.2'
p6247
tp6248
F0.003415559772296015
s(S'Expansion.2'
p6249
g6232
tp6250
F0.0007590132827324478
s(g6249
g6193
tp6251
F0.0007590132827324478
s(Ng6204
tp6252
F0.004174573055028463
s(S'.2'
p6253
Ntp6254
F0.027703984819734344
s(g6198
S'EntRel'
p6255
tp6256
F0.006392329204954055
s(S'Expansion.1'
p6257
g6230
tp6258
F0.0022770398481973433
ssS'apwsE960216.0269-2-2-0.perm-1.txt.pipe'
p6259
(dp6260
(NS'Temporal.1'
p6261
tp6262
F0.09803921568627451
s(S'Temporal.2'
p6263
S'Temporal.2'
p6264
tp6265
F0.013071895424836602
s(NS'Temporal.2'
p6266
tp6267
F0.23529411764705882
s(NS'Explicit'
p6268
tp6269
F0.4056603773584906
s(S'Comparison.2'
p6270
Ntp6271
F0.0392156862745098
s(S'Comparison.1'
p6272
S'Temporal.1'
p6273
tp6274
F0.0196078431372549
s(S'Explicit'
p6275
g6268
tp6276
F0.04716981132075472
s(NNtp6277
F0.2358490566037736
s(S'Temporal.2'
p6278
Ntp6279
F0.13725490196078433
s(Ng6270
tp6280
F0.0457516339869281
s(g6272
g6264
tp6281
F0.013071895424836602
s(NS'Comparison.1'
p6282
tp6283
F0.0718954248366013
s(S'Comparison.2'
p6284
S'Temporal.1'
p6285
tp6286
F0.006535947712418301
s(S'Temporal.1'
p6287
S'Comparison.1'
p6288
tp6289
F0.006535947712418301
s(S'Temporal.1'
p6290
Ntp6291
F0.06535947712418301
s(g6263
g6273
tp6292
F0.026143790849673203
s(S'Explicit'
p6293
Ntp6294
F0.3113207547169811
s(g6282
Ntp6295
F0.058823529411764705
ssS'apwsE960106.0047-2-2-0.perm-10.txt.pipe'
p6296
(dp6297
sS'apwsE950928.0094-0-1.perm-1.txt.pipe'
p6298
(dp6299
sS'apwsE951001.0257-2-2-0.perm-12.txt.pipe'
p6300
(dp6301
(S'Expansion.1'
p6302
Ntp6303
F0.04830917874396135
s(S'.1'
p6304
S'.1'
p6305
tp6306
F0.004830917874396135
s(S'Implicit'
p6307
Ntp6308
F0.07253886010362694
s(NS'EntRel'
p6309
tp6310
F0.13471502590673576
s(NS'.2'
p6311
tp6312
F0.09178743961352658
s(S'.2'
p6313
S'.2'
p6314
tp6315
F0.01932367149758454
s(g6309
Ntp6316
F0.08290155440414508
s(S'Explicit'
p6317
Ntp6318
F0.046632124352331605
s(g6309
S'EntRel'
p6319
tp6320
F0.025906735751295335
s(NNtp6321
F0.616580310880829
s(S'.1'
p6322
Ntp6323
F0.07729468599033816
s(g6317
g6307
tp6324
F0.02072538860103627
s(S'Expansion.2'
p6325
S'Expansion.2'
p6326
tp6327
F0.01932367149758454
s(g6326
Ntp6328
F0.043478260869565216
s(g6311
Ntp6329
F0.043478260869565216
s(Ng6322
tp6330
F0.07729468599033816
ssS'apwsE951216.0211-2-2-0.perm-10.txt.pipe'
p6331
(dp6332
sS'apwsE951001.0279-2-2-0.perm-12.txt.pipe'
p6333
(dp6334
(S'Expansion.2'
p6335
S'.1'
p6336
tp6337
F0.0009049773755656109
s(S'.1'
p6338
S'Expansion.1'
p6339
tp6340
F0.0009049773755656109
s(NS'Temporal.2'
p6341
tp6342
F0.00904977375565611
s(NS'EntRel'
p6343
tp6344
F0.05824284304047384
s(S'.2'
p6345
S'.2'
p6346
tp6347
F0.008144796380090498
s(g6343
Ntp6348
F0.05231984205330701
s(NS'Implicit'
p6349
tp6350
F0.05231984205330701
s(S'Implicit'
p6351
g6343
tp6352
F0.004935834155972359
s(S'.1'
p6353
S'.1'
p6354
tp6355
F0.0027149321266968325
s(NNtp6356
F0.7235932872655478
s(S'.1'
p6357
Ntp6358
F0.034389140271493215
s(S'Explicit'
p6359
g6349
tp6360
F0.004935834155972359
s(g6349
Ntp6361
F0.050345508390918066
s(S'Expansion.2'
p6362
Ntp6363
F0.03619909502262444
s(NS'Expansion.1'
p6364
tp6365
F0.02986425339366516
s(S'EntRel'
p6366
S'Implicit'
p6367
tp6368
F0.0029615004935834156
s(Ng6357
tp6369
F0.026244343891402715
s(S'Expansion.2'
p6370
S'.2'
p6371
tp6372
F0.0027149321266968325
s(S'.2'
p6373
S'.1'
p6374
tp6375
F0.0009049773755656109
s(g6364
Ntp6376
F0.02986425339366516
s(S'Expansion.1'
p6377
S'.1'
p6378
tp6379
F0.0009049773755656109
s(S'Implicit'
p6380
g6349
tp6381
F0.007897334649555774
s(NS'.2'
p6382
tp6383
F0.048868778280542986
s(S'EntRel'
p6384
S'EntRel'
p6385
tp6386
F0.011846001974333662
s(Ng6359
tp6387
F0.017769002961500493
s(g6359
Ntp6388
F0.012833168805528134
s(g6341
Ntp6389
F0.004524886877828055
s(S'.2'
p6390
S'Expansion.2'
p6391
tp6392
F0.0018099547511312218
s(S'Expansion.2'
p6393
S'Expansion.2'
p6394
tp6395
F0.007239819004524887
s(NS'Temporal.1'
p6396
tp6397
F0.007239819004524887
s(g6382
Ntp6398
F0.034389140271493215
s(g6396
Ntp6399
F0.007239819004524887
s(S'Temporal.2'
p6400
g6394
tp6401
F0.004524886877828055
s(Ng6362
tp6402
F0.03800904977375565
ssS'apwsE951121.0037-2-2-0.perm-10.txt.pipe'
p6403
(dp6404
(NS'Explicit'
p6405
tp6406
F0.5555555555555556
s(NS'Comparison.2'
p6407
tp6408
F0.5555555555555556
s(NNtp6409
F0.4444444444444444
ssS'apwsE950424.0128-0-1.perm-12.txt.pipe'
p6410
(dp6411
sS'apwsE951003.0004-2-2-0.perm-11.txt.pipe'
p6412
(dp6413
(S'Expansion.1'
p6414
Ntp6415
F0.0926517571884984
s(NS'Implicit'
p6416
tp6417
F0.11960132890365449
s(g6416
Ntp6418
F0.11627906976744186
s(S'Expansion.1'
p6419
S'Expansion.1'
p6420
tp6421
F0.003194888178913738
s(NS'.2'
p6422
tp6423
F0.009584664536741214
s(S'EntRel'
p6424
Ntp6425
F0.026578073089700997
s(S'Explicit'
p6426
Ntp6427
F0.07308970099667775
s(S'Implicit'
p6428
g6424
tp6429
F0.016611295681063124
s(NNtp6430
F0.5049833887043189
s(NS'.1'
p6431
tp6432
F0.025559105431309903
s(Ng6424
tp6433
F0.036544850498338874
s(Ng6426
tp6434
F0.07308970099667775
s(S'Expansion.2'
p6435
S'Expansion.2'
p6436
tp6437
F0.02875399361022364
s(S'Expansion.2'
p6438
Ntp6439
F0.10862619808306709
s(S'Explicit'
p6440
g6416
tp6441
F0.013289036544850499
s(Ng6414
tp6442
F0.06070287539936102
s(g6431
Ntp6443
F0.025559105431309903
s(Ng6438
tp6444
F0.14376996805111822
s(S'Expansion.2'
p6445
S'.2'
p6446
tp6447
F0.01597444089456869
s(g6416
g6428
tp6448
F0.019933554817275746
ssS'apwsE951101.0026-0-1.perm-11.txt.pipe'
p6449
(dp6450
sS'apwsE950827.0022-2-2-0.perm-11.txt.pipe'
p6451
(dp6452
sS'apwsE960313.0036-2-2-0.perm-12.txt.pipe'
p6453
(dp6454
sS'apwsE950919.0564-2-2-0.perm-10.txt.pipe'
p6455
(dp6456
sS'apwsE951023.0357-2-2-0.perm-13.txt.pipe'
p6457
(dp6458
sS'apwsE950919.0580-2-2-0.perm-10.txt.pipe'
p6459
(dp6460
sS'apwsE951009.0244-2-2-0.perm-12.txt.pipe'
p6461
(dp6462
(S'Implicit'
p6463
Ntp6464
F0.05221932114882506
s(NS'Temporal.2'
p6465
tp6466
F0.009950248756218905
s(S'Expansion.2'
p6467
Ntp6468
F0.012437810945273632
s(NS'Temporal.1'
p6469
tp6470
F0.0024875621890547263
s(S'Comparison.2'
p6471
Ntp6472
F0.02736318407960199
s(NNtp6473
F0.7493472584856397
s(NS'Comparison.2'
p6474
tp6475
F0.0024875621890547263
s(S'Contingency.2'
p6476
Ntp6477
F0.022388059701492536
s(NS'Expansion.1'
p6478
tp6479
F0.03731343283582089
s(g6478
Ntp6480
F0.04975124378109453
s(Ng6463
tp6481
F0.09921671018276762
s(S'Contingency.1'
p6482
Ntp6483
F0.01990049751243781
s(NS'Explicit'
p6484
tp6485
F0.013054830287206266
s(S'Temporal.2'
p6486
S'Comparison.2'
p6487
tp6488
F0.0024875621890547263
s(g6465
Ntp6489
F0.007462686567164179
s(NS'Comparison.1'
p6490
tp6491
F0.009950248756218905
s(g6484
S'Implicit'
p6492
tp6493
F0.0026109660574412533
s(g6469
Ntp6494
F0.0024875621890547263
s(NS'Expansion.2'
p6495
tp6496
F0.0472636815920398
s(S'Explicit'
p6497
Ntp6498
F0.0835509138381201
s(S'Comparison.1'
p6499
Ntp6500
F0.03233830845771144
ssS'apwsE951004.0060-2-2-0.perm-10.txt.pipe'
p6501
(dp6502
sS'apwsE950919.0564-2-2-0.perm-13.txt.pipe'
p6503
(dp6504
(S'Expansion.1'
p6505
Ntp6506
F0.04878048780487805
s(NS'Comparison.1'
p6507
tp6508
F0.24390243902439024
s(S'Expansion.2'
p6509
Ntp6510
F0.0975609756097561
s(NS'Comparison.2'
p6511
tp6512
F0.1951219512195122
s(NS'Explicit'
p6513
tp6514
F0.43902439024390244
s(S'Explicit'
p6515
Ntp6516
F0.14634146341463414
s(g6515
g6513
tp6517
F0.024390243902439025
s(NNtp6518
F0.3902439024390244
s(S'Expansion.1'
p6519
S'Comparison.2'
p6520
tp6521
F0.024390243902439025
ssS'apwsE951001.0328-2-2-0.perm-12.txt.pipe'
p6522
(dp6523
(S'Expansion.1'
p6524
Ntp6525
F0.19444444444444445
s(S'Implicit'
p6526
Ntp6527
F0.19444444444444445
s(Ng6526
tp6528
F0.3611111111111111
s(NS'Expansion.2'
p6529
tp6530
F0.3611111111111111
s(NNtp6531
F0.4444444444444444
ssS'apwsE960122.0410-0-1.perm-1.txt.pipe'
p6532
(dp6533
sS'apwsE951010.0087-2-2-0.perm-13.txt.pipe'
p6534
(dp6535
(NS'Temporal.1'
p6536
tp6537
F0.016129032258064516
s(NS'Temporal.2'
p6538
tp6539
F0.05846774193548387
s(NS'Explicit'
p6540
tp6541
F0.125
s(S'Temporal.2'
p6542
S'Comparison.2'
p6543
tp6544
F0.020161290322580645
s(g6540
S'Explicit'
p6545
tp6546
F0.02412280701754386
s(NNtp6547
F0.7412280701754386
s(g6538
Ntp6548
F0.0625
s(NS'Comparison.2'
p6549
tp6550
F0.04233870967741935
s(NS'Comparison.1'
p6551
tp6552
F0.038306451612903226
s(S'Temporal.1'
p6553
S'Comparison.1'
p6554
tp6555
F0.0020161290322580645
s(g6536
Ntp6556
F0.038306451612903226
s(g6540
Ntp6557
F0.10964912280701754
s(g6551
Ntp6558
F0.04032258064516129
ssS'apwsE950620.0596-0-1.perm-2.txt.pipe'
p6559
(dp6560
sS'apwsE960508.0041-2-2-0.perm-13.txt.pipe'
p6561
(dp6562
sS'apwsE960313.0026-2-2-0.perm-1.txt.pipe'
p6563
(dp6564
sS'apwsE951121.0037-2-2-0.perm-12.txt.pipe'
p6565
(dp6566
(NS'Comparison.2'
p6567
tp6568
F0.4186046511627907
s(S'Comparison.2'
p6569
S'Comparison.2'
p6570
tp6571
F0.09302325581395349
s(NS'Explicit'
p6572
tp6573
F0.5
s(S'Comparison.2'
p6574
Ntp6575
F0.16279069767441862
s(S'Explicit'
p6576
Ntp6577
F0.3888888888888889
s(g6576
g6572
tp6578
F0.1111111111111111
s(S'Comparison.1'
p6579
Ntp6580
F0.32558139534883723
ssS'apwsE951006.0493-2-2-0.perm-12.txt.pipe'
p6581
(dp6582
(S'Contingency.2'
p6583
Ntp6584
F0.010905125408942203
s(S'Expansion.2'
p6585
S'Temporal.1'
p6586
tp6587
F0.0010905125408942203
s(NS'Temporal.2'
p6588
tp6589
F0.010905125408942203
s(S'Comparison.2'
p6590
S'Comparison.2'
p6591
tp6592
F0.003271537622682661
s(NS'Temporal.1'
p6593
tp6594
F0.007633587786259542
s(S'Comparison.2'
p6595
Ntp6596
F0.04580152671755725
s(S'Expansion.2'
p6597
S'Contingency.1'
p6598
tp6599
F0.0010905125408942203
s(S'Explicit'
p6600
S'Explicit'
p6601
tp6602
F0.022700119474313024
s(NNtp6603
F0.7347670250896058
s(S'Expansion.1'
p6604
S'Temporal.1'
p6605
tp6606
F0.0010905125408942203
s(Ng6595
tp6607
F0.04252998909487459
s(S'Expansion.2'
p6608
Ntp6609
F0.009814612868047983
s(NS'Contingency.1'
p6610
tp6611
F0.0021810250817884407
s(S'Comparison.2'
p6612
S'Temporal.2'
p6613
tp6614
F0.0010905125408942203
s(NS'Expansion.1'
p6615
tp6616
F0.011995637949836423
s(S'Expansion.2'
p6617
S'Comparison.1'
p6618
tp6619
F0.004362050163576881
s(S'Explicit'
p6620
Ntp6621
F0.11469534050179211
s(g6604
S'Comparison.1'
p6622
tp6623
F0.0010905125408942203
s(g6615
Ntp6624
F0.011995637949836423
s(S'Comparison.2'
p6625
g6618
tp6626
F0.004362050163576881
s(Ng6608
tp6627
F0.028353326063249727
s(S'Temporal.2'
p6628
S'Comparison.2'
p6629
tp6630
F0.004362050163576881
s(S'Expansion.2'
p6631
g6613
tp6632
F0.0010905125408942203
s(g6588
Ntp6633
F0.007633587786259542
s(Ng6620
tp6634
F0.12783751493428913
s(S'Contingency.2'
p6635
S'Comparison.2'
p6636
tp6637
F0.0054525627044711015
s(NS'Comparison.1'
p6638
tp6639
F0.03598691384950927
s(S'Comparison.2'
p6640
g6586
tp6641
F0.0021810250817884407
s(g6593
Ntp6642
F0.009814612868047983
s(g6610
Ntp6643
F0.003271537622682661
s(Ng6635
tp6644
F0.016357688113413305
s(S'Comparison.2'
p6645
S'Expansion.1'
p6646
tp6647
F0.0010905125408942203
s(g6638
Ntp6648
F0.04252998909487459
ssS'apwsE951121.0032-2-2-0.perm-12.txt.pipe'
p6649
(dp6650
sS'apwsE951024.0123-2-2-0.perm-13.txt.pipe'
p6651
(dp6652
(S'Expansion.1'
p6653
Ntp6654
F0.01282051282051282
s(S'Comparison.1'
p6655
S'Comparison.1'
p6656
tp6657
F0.019230769230769232
s(S'Comparison.2'
p6658
S'Comparison.2'
p6659
tp6660
F0.00641025641025641
s(S'Comparison.2'
p6661
S'Comparison.1'
p6662
tp6663
F0.00641025641025641
s(S'Comparison.2'
p6664
Ntp6665
F0.057692307692307696
s(S'Explicit'
p6666
Ntp6667
F0.14743589743589744
s(S'Comparison.1'
p6668
S'Expansion.2'
p6669
tp6670
F0.00641025641025641
s(S'Explicit'
p6671
S'Explicit'
p6672
tp6673
F0.05128205128205128
s(NNtp6674
F0.6025641025641025
s(NS'Comparison.2'
p6675
tp6676
F0.09615384615384616
s(NS'Comparison.1'
p6677
tp6678
F0.057692307692307696
s(S'Expansion.2'
p6679
Ntp6680
F0.01282051282051282
s(Ng6671
tp6681
F0.1987179487179487
s(NS'Expansion.1'
p6682
tp6683
F0.019230769230769232
s(S'Expansion.2'
p6684
S'Comparison.1'
p6685
tp6686
F0.00641025641025641
s(NS'Expansion.2'
p6687
tp6688
F0.02564102564102564
s(g6675
S'Expansion.1'
p6689
tp6690
F0.00641025641025641
s(S'Comparison.1'
p6691
Ntp6692
F0.0641025641025641
ssS'apwsE960106.0047-2-2-0.perm-1.txt.pipe'
p6693
(dp6694
sS'apwsE950914.0074-0-1.perm-11.txt.pipe'
p6695
(dp6696
sS'apwsE951003.0485-2-2-0.perm-1.txt.pipe'
p6697
(dp6698
sS'apwsE951201.0010-0-1.perm-11.txt.pipe'
p6699
(dp6700
sS'apwsE950928.0094-0-1.perm-10.txt.pipe'
p6701
(dp6702
sS'apwsE960303.0090-2-2-0.perm-1.txt.pipe'
p6703
(dp6704
sS'apwsE951222.0206-2-2-0.perm-10.txt.pipe'
p6705
(dp6706
sS'apwsE951221.0056-2-2-0.perm-11.txt.pipe'
p6707
(dp6708
sS'apwsE960109.0103-2-2-0.perm-1.txt.pipe'
p6709
(dp6710
sS'apwsE950925.0091-0-1.perm-1.txt.pipe'
p6711
(dp6712
(NS'Explicit'
p6713
tp6714
F0.5294117647058824
s(S'Expansion.1'
p6715
Ntp6716
F0.47058823529411764
s(g6713
Ntp6717
F0.47058823529411764
s(NS'Expansion.2'
p6718
tp6719
F0.5294117647058824
ssS'apwsE960216.0241-2-2-0.perm-13.txt.pipe'
p6720
(dp6721
sS'apwsE951215.0060-2-2-0.perm-12.txt.pipe'
p6722
(dp6723
sS'apwsE960207.0488-2-2-0.perm-11.txt.pipe'
p6724
(dp6725
(NS'Explicit'
p6726
tp6727
F0.64
s(NS'Expansion.1'
p6728
tp6729
F0.1724137931034483
s(S'Explicit'
p6730
Ntp6731
F0.36
s(NS'Expansion.2'
p6732
tp6733
F0.5172413793103449
s(S'Expansion.1'
p6734
Ntp6735
F0.3103448275862069
ssS'apwsE960109.0130-2-2-0.perm-11.txt.pipe'
p6736
(dp6737
(S'Expansion.2'
p6738
S'.1'
p6739
tp6740
F0.0018484288354898336
s(S'.1'
p6741
S'Expansion.1'
p6742
tp6743
F0.0004621072088724584
s(S'Contingency.2'
p6744
Ntp6745
F0.003234750462107209
s(S'.2'
p6746
S'.2'
p6747
tp6748
F0.01432532347504621
s(S'EntRel'
p6749
Ntp6750
F0.072265625
s(S'Comparison.2'
p6751
Ntp6752
F0.0023105360443622922
s(S'Implicit'
p6753
g6749
tp6754
F0.005859375
s(S'.1'
p6755
S'.1'
p6756
tp6757
F0.005545286506469501
s(NNtp6758
F0.74169921875
s(S'.1'
p6759
Ntp6760
F0.04713493530499076
s(NS'EntRel'
p6761
tp6762
F0.07470703125
s(Ng6751
tp6763
F0.0023105360443622922
s(g6753
Ntp6764
F0.0302734375
s(S'Expansion.2'
p6765
Ntp6766
F0.013401109057301294
s(NS'Expansion.1'
p6767
tp6768
F0.011090573012939002
s(S'EntRel'
p6769
S'Implicit'
p6770
tp6771
F0.00341796875
s(Ng6759
tp6772
F0.047597042513863215
s(S'Expansion.2'
p6773
S'.2'
p6774
tp6775
F0.0036968576709796672
s(S'.2'
p6776
g6756
tp6777
F0.0009242144177449168
s(g6767
Ntp6778
F0.0166358595194085
s(Ng6753
tp6779
F0.02734375
s(NS'.2'
p6780
tp6781
F0.0522181146025878
s(S'EntRel'
p6782
S'EntRel'
p6783
tp6784
F0.02099609375
s(NS'Explicit'
p6785
tp6786
F0.00927734375
s(g6785
Ntp6787
F0.0126953125
s(g6769
S'Explicit'
p6788
tp6789
F0.00048828125
s(S'.2'
p6790
S'Expansion.2'
p6791
tp6792
F0.0027726432532347504
s(NS'Comparison.1'
p6793
tp6794
F0.003234750462107209
s(g6774
Ntp6795
F0.04944547134935305
s(g6788
S'EntRel'
p6796
tp6797
F0.0009765625
s(S'Contingency.1'
p6798
Ntp6799
F0.0004621072088724584
s(Ng6773
tp6800
F0.016173752310536044
s(g6793
Ntp6801
F0.003234750462107209
ssS'apwsE951009.0228-2-2-0.perm-11.txt.pipe'
p6802
(dp6803
(S'Explicit'
p6804
S'Implicit'
p6805
tp6806
F0.0024875621890547263
s(S'Implicit'
p6807
Ntp6808
F0.09950248756218906
s(NS'EntRel'
p6809
tp6810
F0.06218905472636816
s(S'.2'
p6811
S'.2'
p6812
tp6813
F0.002304147465437788
s(S'EntRel'
p6814
Ntp6815
F0.05223880597014925
s(S'Comparison.2'
p6816
Ntp6817
F0.016129032258064516
s(S'Implicit'
p6818
g6814
tp6819
F0.0024875621890547263
s(NNtp6820
F0.6442786069651741
s(S'.1'
p6821
Ntp6822
F0.03225806451612903
s(NS'Comparison.2'
p6823
tp6824
F0.027649769585253458
s(S'Contingency.2'
p6825
Ntp6826
F0.02534562211981567
s(NS'Contingency.1'
p6827
tp6828
F0.013824884792626729
s(S'Comparison.1'
p6829
S'.1'
p6830
tp6831
F0.002304147465437788
s(NS'Expansion.1'
p6832
tp6833
F0.016129032258064516
s(g6809
g6807
tp6834
F0.012437810945273632
s(Ng6821
tp6835
F0.029953917050691243
s(S'Comparison.2'
p6836
S'Expansion.2'
p6837
tp6838
F0.002304147465437788
s(g6832
Ntp6839
F0.016129032258064516
s(Ng6805
tp6840
F0.07960199004975124
s(g6807
g6805
tp6841
F0.004975124378109453
s(NS'.2'
p6842
tp6843
F0.04838709677419355
s(g6814
g6809
tp6844
F0.0024875621890547263
s(Ng6804
tp6845
F0.01990049751243781
s(Ng6825
tp6846
F0.018433179723502304
s(g6804
Ntp6847
F0.017412935323383085
s(g6842
S'Contingency.2'
p6848
tp6849
F0.01152073732718894
s(g6848
S'Expansion.2'
p6850
tp6851
F0.004608294930875576
s(NS'Comparison.1'
p6852
tp6853
F0.009216589861751152
s(S'.2'
p6854
Ntp6855
F0.03686635944700461
s(g6827
Ntp6856
F0.013824884792626729
s(NS'Expansion.2'
p6857
tp6858
F0.02304147465437788
s(g6852
Ntp6859
F0.052995391705069124
ssS'apwsE960303.0079-2-2-0.perm-13.txt.pipe'
p6860
(dp6861
sS'apwsE960207.0124-2-2-0.perm-1.txt.pipe'
p6862
(dp6863
sS'apwsE950307.0067-0-1.perm-13.txt.pipe'
p6864
(dp6865
sS'apwsE960216.0241-2-2-0.perm-1.txt.pipe'
p6866
(dp6867
sS'apwsE951125.0054-2-2-0.perm-12.txt.pipe'
p6868
(dp6869
(S'Expansion.2'
p6870
S'.1'
p6871
tp6872
F0.003257328990228013
s(S'Implicit'
p6873
Ntp6874
F0.04878048780487805
s(NS'EntRel'
p6875
tp6876
F0.13588850174216027
s(S'.2'
p6877
S'.2'
p6878
tp6879
F0.009771986970684038
s(S'EntRel'
p6880
Ntp6881
F0.07665505226480836
s(S'Comparison.2'
p6882
Ntp6883
F0.03908794788273615
s(g6873
g6880
tp6884
F0.003484320557491289
s(NNtp6885
F0.4912891986062718
s(NS'.1'
p6886
tp6887
F0.06188925081433225
s(NS'Comparison.2'
p6888
tp6889
F0.06188925081433225
s(S'Expansion.2'
p6890
Ntp6891
F0.019543973941368076
s(NS'Expansion.1'
p6892
tp6893
F0.026058631921824105
s(g6886
Ntp6894
F0.06514657980456026
s(S'Comparison.2'
p6895
g6890
tp6896
F0.016286644951140065
s(g6892
Ntp6897
F0.026058631921824105
s(S'.1'
p6898
S'Comparison.1'
p6899
tp6900
F0.009771986970684038
s(Ng6873
tp6901
F0.03484320557491289
s(NS'.2'
p6902
tp6903
F0.09771986970684039
s(g6880
g6875
tp6904
F0.024390243902439025
s(NS'Explicit'
p6905
tp6906
F0.08013937282229965
s(g6888
g6878
tp6907
F0.006514657980456026
s(g6880
g6905
tp6908
F0.010452961672473868
s(g6898
S'.1'
p6909
tp6910
F0.013029315960912053
s(NS'Comparison.1'
p6911
tp6912
F0.013029315960912053
s(S'.2'
p6913
Ntp6914
F0.03908794788273615
s(g6905
g6875
tp6915
F0.006968641114982578
s(S'Explicit'
p6916
g6873
tp6917
F0.017421602787456445
s(NS'Expansion.2'
p6918
tp6919
F0.006514657980456026
s(g6916
Ntp6920
F0.06968641114982578
s(S'Comparison.1'
p6921
Ntp6922
F0.026058631921824105
ssS'apwsE951216.0211-2-2-0.perm-11.txt.pipe'
p6923
(dp6924
sS'apwsE950307.0067-0-1.perm-10.txt.pipe'
p6925
(dp6926
sS'apwsE960303.0090-2-2-0.perm-13.txt.pipe'
p6927
(dp6928
sS'apwsE951001.0242-2-2-0.perm-10.txt.pipe'
p6929
(dp6930
sS'apwsE951201.0003-2-2-0.perm-11.txt.pipe'
p6931
(dp6932
sS'apwsE951121.0032-2-2-0.perm-1.txt.pipe'
p6933
(dp6934
sS'apwsE950928.0094-0-1.perm-11.txt.pipe'
p6935
(dp6936
sS'apwsE950905.0546-2-2-0.perm-11.txt.pipe'
p6937
(dp6938
sS'apwsE950213.0175-0-1.perm-12.txt.pipe'
p6939
(dp6940
sS'apwsE951001.0279-2-2-0.perm-10.txt.pipe'
p6941
(dp6942
sS'apwsE960206.0441-2-2-0.perm-1.txt.pipe'
p6943
(dp6944
sS'apwsE960203.0270-2-2-0.perm-11.txt.pipe'
p6945
(dp6946
(S'Expansion.1'
p6947
Ntp6948
F0.16
s(S'Implicit'
p6949
Ntp6950
F0.11
s(S'Expansion.1'
p6951
S'Expansion.2'
p6952
tp6953
F0.01
s(S'Explicit'
p6954
Ntp6955
F0.11
s(g6954
S'Explicit'
p6956
tp6957
F0.01
s(NNtp6958
F0.61
s(Ng6956
tp6959
F0.1
s(S'Expansion.2'
p6960
Ntp6961
F0.06
s(NS'Expansion.1'
p6962
tp6963
F0.05
s(Ng6949
tp6964
F0.06
s(NS'Expansion.2'
p6965
tp6966
F0.11
ssS'apwsE960109.0103-2-2-0.perm-10.txt.pipe'
p6967
(dp6968
sS'apwsE951023.0362-2-2-0.perm-11.txt.pipe'
p6969
(dp6970
sS'apwsE950905.0546-2-2-0.perm-12.txt.pipe'
p6971
(dp6972
sS'apwsE951001.0257-2-2-0.perm-13.txt.pipe'
p6973
(dp6974
(S'Expansion.1'
p6975
Ntp6976
F0.08441558441558442
s(S'Implicit'
p6977
Ntp6978
F0.11688311688311688
s(NS'EntRel'
p6979
tp6980
F0.14935064935064934
s(NS'.2'
p6981
tp6982
F0.09090909090909091
s(g6979
Ntp6983
F0.05844155844155844
s(S'Explicit'
p6984
Ntp6985
F0.08441558441558442
s(NNtp6986
F0.5584415584415584
s(S'Temporal.2'
p6987
Ntp6988
F0.032467532467532464
s(NS'.1'
p6989
tp6990
F0.05844155844155844
s(g6984
g6977
tp6991
F0.032467532467532464
s(S'Expansion.2'
p6992
Ntp6993
F0.032467532467532464
s(g6989
Ntp6994
F0.05844155844155844
s(S'Temporal.1'
p6995
Ntp6996
F0.05194805194805195
s(S'Temporal.2'
p6997
g6992
tp6998
F0.032467532467532464
ssS'apwsE951009.0294-2-2-0.perm-12.txt.pipe'
p6999
(dp7000
s.