(dp0
S'apwsE960207.0124-2-2-0.perm-13.txt.pipe'
p1
(dp2
sS'apwsE951024.0072-2-2-0.perm-10.txt.pipe'
p3
(dp4
(NS'Comparison.2'
p5
tp6
F0.16666666666666666
s(NS'Comparison.1'
p7
tp8
F0.16666666666666666
s(S'Comparison.2'
p9
Ntp10
F0.14583333333333334
s(S'Comparison.1'
p11
S'Comparison.2'
p12
tp13
F0.020833333333333332
s(NNtp14
F0.3958333333333333
s(S'Comparison.1'
p15
Ntp16
F0.10416666666666667
ssS'apwsE960313.0026-2-2-0.perm-13.txt.pipe'
p17
(dp18
sS'apwsE960313.0250-0-1.perm-12.txt.pipe'
p19
(dp20
sS'apwsE960313.0250-0-1.perm-11.txt.pipe'
p21
(dp22
sS'apwsE951001.0279-2-2-0.perm-13.txt.pipe'
p23
(dp24
(NS'Temporal.2'
p25
tp26
F0.007598784194528876
s(NS'Temporal.1'
p27
tp28
F0.0060790273556231
s(S'.1'
p29
S'.1'
p30
tp31
F0.0022796352583586625
s(S'.1'
p32
Ntp33
F0.02127659574468085
s(S'Expansion.2'
p34
Ntp35
F0.041033434650455926
s(NS'Expansion.1'
p36
tp37
F0.03723404255319149
s(Ng32
tp38
F0.020516717325227963
s(S'Expansion.2'
p39
S'.2'
p40
tp41
F0.0022796352583586625
s(S'.2'
p42
S'.1'
p43
tp44
F0.0007598784194528875
s(g36
Ntp45
F0.04179331306990881
s(S'Temporal.2'
p46
S'Expansion.2'
p47
tp48
F0.003799392097264438
s(NS'.2'
p49
tp50
F0.02735562310030395
s(S'.2'
p51
S'.2'
p52
tp53
F0.0022796352583586625
s(g25
Ntp54
F0.003799392097264438
s(S'.2'
p55
S'Expansion.2'
p56
tp57
F0.0022796352583586625
s(S'Expansion.2'
p58
g47
tp59
F0.006838905775075988
s(g49
Ntp60
F0.015197568389057751
s(g27
Ntp61
F0.0060790273556231
s(S'Expansion.1'
p62
S'.1'
p63
tp64
F0.0007598784194528875
s(Ng34
tp65
F0.041033434650455926
s(NNtp66
F0.709726443768997
ssS'apwsE951001.0279-2-2-0.perm-1.txt.pipe'
p67
(dp68
(S'Expansion.2'
p69
S'.1'
p70
tp71
F0.0007616146230007616
s(S'.1'
p72
S'Expansion.1'
p73
tp74
F0.0015232292460015233
s(S'Expansion.1'
p75
S'Expansion.1'
p76
tp77
F0.0007616146230007616
s(S'.2'
p78
S'.2'
p79
tp80
F0.013709063214013708
s(S'Expansion.2'
p81
g73
tp82
F0.0007616146230007616
s(S'.1'
p83
S'.1'
p84
tp85
F0.00913937547600914
s(S'.1'
p86
Ntp87
F0.04493526275704494
s(S'Expansion.2'
p88
Ntp89
F0.015993907083015995
s(NS'Expansion.1'
p90
tp91
F0.019801980198019802
s(Ng86
tp92
F0.03351104341203351
s(S'Expansion.2'
p93
S'.2'
p94
tp95
F0.00456968773800457
s(S'.2'
p96
g84
tp97
F0.003808073115003808
s(S'Temporal.2'
p98
S'.2'
p99
tp100
F0.003808073115003808
s(g90
Ntp101
F0.019801980198019802
s(S'Temporal.1'
p102
S'.1'
p103
tp104
F0.0015232292460015233
s(NS'.2'
p105
tp106
F0.053313023610053314
s(S'Temporal.2'
p107
Ntp108
F0.003808073115003808
s(S'.2'
p109
S'Expansion.2'
p110
tp111
F0.00456968773800457
s(S'Expansion.2'
p112
S'Expansion.2'
p113
tp114
F0.002284843869002285
s(g105
Ntp115
F0.053313023610053314
s(S'Temporal.1'
p116
Ntp117
F0.00456968773800457
s(S'Expansion.1'
p118
S'.1'
p119
tp120
F0.0015232292460015233
s(Ng88
tp121
F0.021325209444021324
s(NNtp122
F0.6808834729626809
ssS'apwsE951009.0226-2-2-0.perm-10.txt.pipe'
p123
(dp124
sS'apwsE951221.0001-0-1.perm-11.txt.pipe'
p125
(dp126
sS'apwsE960109.0130-2-2-0.perm-10.txt.pipe'
p127
(dp128
(S'.1'
p129
S'Expansion.1'
p130
tp131
F0.0008136696501220504
s(S'.2'
p132
S'.2'
p133
tp134
F0.02115541090317331
s(S'Comparison.2'
p135
Ntp136
F0.0040683482506102524
s(S'.1'
p137
S'Comparison.2'
p138
tp139
F0.0016273393002441008
s(g137
S'.1'
p140
tp141
F0.007323026851098454
s(NNtp142
F0.6094385679414158
s(S'.1'
p143
Ntp144
F0.07648494711147275
s(Ng135
tp145
F0.0024410089503661514
s(S'Contingency.2'
p146
Ntp147
F0.005695687550854353
s(NS'Expansion.1'
p148
tp149
F0.0016273393002441008
s(Ng143
tp150
F0.06834825061025224
s(S'.2'
p151
g138
tp152
F0.0008136696501220504
s(g151
g140
tp153
F0.0040683482506102524
s(S'Contingency.1'
p154
Ntp155
F0.0008136696501220504
s(NS'.2'
p156
tp157
F0.0870626525630594
s(g148
Ntp158
F0.0024410089503661514
s(S'.2'
p159
S'Expansion.2'
p160
tp161
F0.0008136696501220504
s(NS'Comparison.1'
p162
tp163
F0.005695687550854353
s(g156
Ntp164
F0.0821806346623271
s(NS'Expansion.2'
p165
tp166
F0.011391375101708706
s(g162
Ntp167
F0.005695687550854353
ssS'apwsE960102.0206-0-1.perm-12.txt.pipe'
p168
(dp169
sS'apwsE950914.0074-0-1.perm-10.txt.pipe'
p170
(dp171
sS'apwsE951221.0049-2-2-0.perm-11.txt.pipe'
p172
(dp173
sS'apwsE950827.0022-2-2-0.perm-10.txt.pipe'
p174
(dp175
sS'apwsE951125.0054-2-2-0.perm-11.txt.pipe'
p176
(dp177
(S'Comparison.2'
p178
S'Expansion.2'
p179
tp180
F0.013761467889908258
s(S'Expansion.1'
p181
Ntp182
F0.06422018348623854
s(NS'.2'
p183
tp184
F0.045871559633027525
s(S'Comparison.2'
p185
Ntp186
F0.06880733944954129
s(S'Comparison.2'
p187
S'.2'
p188
tp189
F0.022935779816513763
s(NNtp190
F0.4724770642201835
s(NS'.1'
p191
tp192
F0.027522935779816515
s(Ng185
tp193
F0.07339449541284404
s(NS'Comparison.1'
p194
tp195
F0.05045871559633028
s(g179
Ntp196
F0.022935779816513763
s(S'Comparison.1'
p197
S'.1'
p198
tp199
F0.0045871559633027525
s(g191
Ntp200
F0.03211009174311927
s(NS'Expansion.2'
p201
tp202
F0.009174311926605505
s(S'Comparison.1'
p203
Ntp204
F0.09174311926605505
ssS'apwsE951215.0060-2-2-0.perm-13.txt.pipe'
p205
(dp206
sS'apwsE950914.0071-0-1.perm-12.txt.pipe'
p207
(dp208
sS'apwsE950307.0067-0-1.perm-12.txt.pipe'
p209
(dp210
sS'apwsE951222.0206-2-2-0.perm-12.txt.pipe'
p211
(dp212
sS'apwsE950827.0022-2-2-0.perm-12.txt.pipe'
p213
(dp214
(S'Contingency.1'
p215
Ntp216
F0.05555555555555555
s(NS'Temporal.2'
p217
tp218
F0.16666666666666666
s(NS'Temporal.1'
p219
tp220
F0.08333333333333333
s(S'Contingency.2'
p221
S'Temporal.2'
p222
tp223
F0.027777777777777776
s(NS'Comparison.2'
p224
tp225
F0.16666666666666666
s(NS'Comparison.1'
p226
tp227
F0.16666666666666666
s(S'Contingency.2'
p228
Ntp229
F0.2777777777777778
s(g221
S'Comparison.1'
p230
tp231
F0.027777777777777776
s(S'Contingency.1'
p232
S'Comparison.2'
p233
tp234
F0.027777777777777776
ssS'apwsE951101.0026-0-1.perm-10.txt.pipe'
p235
(dp236
sS'apwsE951009.0244-2-2-0.perm-13.txt.pipe'
p237
(dp238
(NS'Temporal.2'
p239
tp240
F0.006920415224913495
s(S'Expansion.2'
p241
Ntp242
F0.05190311418685121
s(S'Contingency.1'
p243
Ntp244
F0.02768166089965398
s(S'Comparison.2'
p245
Ntp246
F0.031141868512110725
s(NS'Temporal.1'
p247
tp248
F0.0034602076124567475
s(NNtp249
F0.6678200692041523
s(NS'.1'
p250
tp251
F0.03460207612456748
s(S'Contingency.2'
p252
Ntp253
F0.031141868512110725
s(NS'Expansion.1'
p254
tp255
F0.0034602076124567475
s(g250
Ntp256
F0.03460207612456748
s(S'Expansion.2'
p257
S'.2'
p258
tp259
F0.006920415224913495
s(S'Expansion.1'
p260
Ntp261
F0.01384083044982699
s(NS'.2'
p262
tp263
F0.006920415224913495
s(S'Expansion.1'
p264
S'Temporal.2'
p265
tp266
F0.006920415224913495
s(Ng241
tp267
F0.04152249134948097
s(S'Comparison.1'
p268
Ntp269
F0.031141868512110725
ssS'apwsE951122.0012-0-1.perm-11.txt.pipe'
p270
(dp271
sS'apwsE951009.0216-2-2-0.perm-1.txt.pipe'
p272
(dp273
sS'apwsE951009.0228-2-2-0.perm-13.txt.pipe'
p274
(dp275
(S'Expansion.2'
p276
S'.1'
p277
tp278
F0.0019267822736030828
s(S'Contingency.2'
p279
Ntp280
F0.011560693641618497
s(S'.2'
p281
S'.2'
p282
tp283
F0.009633911368015413
s(S'Comparison.2'
p284
Ntp285
F0.015414258188824663
s(S'Contingency.2'
p286
S'Expansion.1'
p287
tp288
F0.0019267822736030828
s(S'.1'
p289
g277
tp290
F0.0019267822736030828
s(NNtp291
F0.6570327552986512
s(S'.1'
p292
Ntp293
F0.030828516377649325
s(Ng284
tp294
F0.023121387283236993
s(S'Expansion.2'
p295
Ntp296
F0.017341040462427744
s(NS'Contingency.1'
p297
tp298
F0.0019267822736030828
s(NS'Expansion.1'
p299
tp300
F0.007707129094412331
s(Ng292
tp301
F0.030828516377649325
s(S'Expansion.2'
p302
g281
tp303
F0.0038535645472061657
s(S'Contingency.1'
p304
Ntp305
F0.01348747591522158
s(S'Comparison.1'
p306
g287
tp307
F0.0019267822736030828
s(NS'.2'
p308
tp309
F0.036608863198458574
s(NS'Contingency.2'
p310
tp311
F0.028901734104046242
s(g299
Ntp312
F0.009633911368015413
s(NS'Comparison.1'
p313
tp314
F0.02119460500963391
s(S'.2'
p315
Ntp316
F0.01348747591522158
s(Ng295
tp317
F0.023121387283236993
s(S'Comparison.1'
p318
Ntp319
F0.036608863198458574
ssS'apwsE951024.0005-2-2-0.perm-1.txt.pipe'
p320
(dp321
(S'Expansion.1'
p322
Ntp323
F0.13043478260869565
s(NNtp324
F0.34782608695652173
s(NS'Comparison.2'
p325
tp326
F0.13043478260869565
s(S'Expansion.2'
p327
S'Expansion.2'
p328
tp329
F0.021739130434782608
s(NS'Comparison.1'
p330
tp331
F0.08695652173913043
s(S'Expansion.2'
p332
Ntp333
F0.13043478260869565
s(NS'Expansion.1'
p334
tp335
F0.08695652173913043
s(g328
S'Comparison.1'
p336
tp337
F0.021739130434782608
s(NS'Expansion.2'
p338
tp339
F0.043478260869565216
ssS'apwsE951018.0070-2-2-0.perm-12.txt.pipe'
p340
(dp341
sS'apwsE950425.0109-0-1.perm-12.txt.pipe'
p342
(dp343
sS'apwsE951121.0032-2-2-0.perm-10.txt.pipe'
p344
(dp345
sS'apwsE951201.0010-0-1.perm-10.txt.pipe'
p346
(dp347
sS'apwsE951221.0056-2-2-0.perm-10.txt.pipe'
p348
(dp349
sS'apwsE950425.0109-0-1.perm-11.txt.pipe'
p350
(dp351
sS'apwsE951216.0211-2-2-0.perm-1.txt.pipe'
p352
(dp353
sS'apwsE951006.0493-2-2-0.perm-1.txt.pipe'
p354
(dp355
(S'Comparison.2'
p356
S'Expansion.2'
p357
tp358
F0.0043541364296081275
s(S'Expansion.2'
p359
Ntp360
F0.023222060957910014
s(S'Contingency.1'
p361
Ntp362
F0.0043541364296081275
s(S'Comparison.2'
p363
Ntp364
F0.013062409288824383
s(S'Expansion.2'
p365
S'Expansion.1'
p366
tp367
F0.001451378809869376
s(S'Comparison.1'
p368
S'Expansion.2'
p369
tp370
F0.001451378809869376
s(NNtp371
F0.6473149492017417
s(Ng363
tp372
F0.06531204644412192
s(S'Temporal.2'
p373
S'Comparison.1'
p374
tp375
F0.002902757619738752
s(S'Contingency.2'
p376
Ntp377
F0.018867924528301886
s(NS'Expansion.1'
p378
tp379
F0.02902757619738752
s(S'Expansion.1'
p380
S'Comparison.1'
p381
tp382
F0.0043541364296081275
s(g378
Ntp383
F0.02177068214804064
s(S'Comparison.1'
p384
g366
tp385
F0.001451378809869376
s(S'Comparison.2'
p386
g381
tp387
F0.002902757619738752
s(S'Temporal.2'
p388
Ntp389
F0.013062409288824383
s(S'Contingency.2'
p390
S'Comparison.2'
p391
tp392
F0.002902757619738752
s(NS'Comparison.1'
p393
tp394
F0.03918722786647315
s(S'Temporal.1'
p395
Ntp396
F0.013062409288824383
s(g373
S'Expansion.2'
p397
tp398
F0.002902757619738752
s(NS'Expansion.2'
p399
tp400
F0.027576197387518143
s(S'Comparison.1'
p401
Ntp402
F0.059506531204644414
ssS'apwsE960108.0194-2-2-0.perm-1.txt.pipe'
p403
(dp404
sS'apwsE951009.0216-2-2-0.perm-11.txt.pipe'
p405
(dp406
sS'apwsE960207.0124-2-2-0.perm-12.txt.pipe'
p407
(dp408
sS'apwsE960207.0018-2-2-0.perm-13.txt.pipe'
p409
(dp410
(S'Expansion.1'
p411
Ntp412
F0.14814814814814814
s(NS'Expansion.2'
p413
tp414
F0.3333333333333333
s(NS'Comparison.1'
p415
tp416
F0.18518518518518517
s(NNtp417
F0.2962962962962963
s(NS'Comparison.2'
p418
tp419
F0.037037037037037035
ssS'apwsE950119.0186-0-1.perm-1.txt.pipe'
p420
(dp421
sS'apwsE960122.0410-0-1.perm-10.txt.pipe'
p422
(dp423
(NS'Comparison.2'
p424
tp425
F0.2608695652173913
s(S'Comparison.1'
p426
S'Comparison.1'
p427
tp428
F0.08695652173913043
s(NS'Comparison.1'
p429
tp430
F0.17391304347826086
s(S'Comparison.2'
p431
S'Comparison.1'
p432
tp433
F0.043478260869565216
s(S'Comparison.2'
p434
Ntp435
F0.34782608695652173
s(S'Comparison.1'
p436
Ntp437
F0.08695652173913043
ssS'apwsE951020.0432-2-2-0.perm-12.txt.pipe'
p438
(dp439
(S'Comparison.1'
p440
S'Comparison.1'
p441
tp442
F0.0010235414534288639
s(S'Expansion.1'
p443
S'Contingency.1'
p444
tp445
F0.0010235414534288639
s(S'.2'
p446
S'.2'
p447
tp448
F0.012282497441146366
s(S'Comparison.2'
p449
Ntp450
F0.014329580348004094
s(S'.1'
p451
S'.1'
p452
tp453
F0.0010235414534288639
s(S'.1'
p454
Ntp455
F0.0255885363357216
s(Ng449
tp456
F0.028659160696008188
s(S'.1'
p457
S'Expansion.1'
p458
tp459
F0.0010235414534288639
s(NS'Contingency.1'
p460
tp461
F0.0020470829068577278
s(S'Expansion.2'
p462
S'Comparison.1'
p463
tp464
F0.0010235414534288639
s(S'Comparison.2'
p465
S'Comparison.2'
p466
tp467
F0.0030706243602865915
s(NS'.2'
p468
tp469
F0.04503582395087001
s(S'Contingency.2'
p470
Ntp471
F0.0030706243602865915
s(NS'Expansion.2'
p472
tp473
F0.0368474923234391
s(S'Comparison.1'
p474
Ntp475
F0.014329580348004094
s(S'Comparison.2'
p476
S'Expansion.2'
p477
tp478
F0.0020470829068577278
s(g444
Ntp479
F0.0030706243602865915
s(NNtp480
F0.5987717502558854
s(Ng454
tp481
F0.02456499488229273
s(S'.2'
p482
g458
tp483
F0.0010235414534288639
s(g472
Ntp484
F0.022517911975435005
s(g440
g451
tp485
F0.0020470829068577278
s(NS'Expansion.1'
p486
tp487
F0.027635619242579325
s(S'Expansion.2'
p488
S'.2'
p489
tp490
F0.006141248720573183
s(S'Expansion.1'
p491
S'Comparison.1'
p492
tp493
F0.0020470829068577278
s(g486
Ntp494
F0.033776867963152504
s(S'Comparison.2'
p495
g463
tp496
F0.0010235414534288639
s(Ng470
tp497
F0.0030706243602865915
s(S'Comparison.2'
p498
g489
tp499
F0.006141248720573183
s(g443
g466
tp500
F0.0010235414534288639
s(g468
S'Expansion.2'
p501
tp502
F0.00511770726714432
s(S'Expansion.2'
p503
S'Comparison.2'
p504
tp505
F0.0020470829068577278
s(g465
S'.1'
p506
tp507
F0.0010235414534288639
s(Ng474
tp508
F0.01842374616171955
s(S'.2'
p509
Ntp510
F0.04503582395087001
s(S'Expansion.1'
p511
g451
tp512
F0.0020470829068577278
s(g465
g444
tp513
F0.0010235414534288639
ssS'apwsE960109.0412-0-1.perm-1.txt.pipe'
p514
(dp515
sS'apwsE951018.0182-2-2-0.perm-13.txt.pipe'
p516
(dp517
(NS'Contingency.1'
p518
tp519
F0.06896551724137931
s(NS'Contingency.2'
p520
tp521
F0.4827586206896552
s(S'Temporal.2'
p522
Ntp523
F0.2413793103448276
s(S'Temporal.1'
p524
Ntp525
F0.20689655172413793
ssS'apwsE950112.0297-0-1.perm-1.txt.pipe'
p526
(dp527
sS'apwsE951024.0005-2-2-0.perm-10.txt.pipe'
p528
(dp529
(S'.2'
p530
S'.2'
p531
tp532
F0.03350083752093802
s(S'Comparison.2'
p533
Ntp534
F0.010050251256281407
s(NNtp535
F0.47906197654941374
s(NS'.1'
p536
tp537
F0.09045226130653267
s(g531
Ntp538
F0.10720268006700168
s(S'Expansion.2'
p539
Ntp540
F0.0033500837520938024
s(S'Comparison.1'
p541
S'.1'
p542
tp543
F0.0016750418760469012
s(NS'Expansion.1'
p544
tp545
F0.006700167504187605
s(g536
Ntp546
F0.10887772194304858
s(S'Expansion.2'
p547
S'.2'
p548
tp549
F0.0016750418760469012
s(S'.2'
p550
S'.1'
p551
tp552
F0.005025125628140704
s(g544
Ntp553
F0.006700167504187605
s(Ng530
tp554
F0.11725293132328309
s(S'.1'
p555
S'.1'
p556
tp557
F0.01675041876046901
s(Ng539
tp558
F0.005025125628140704
s(S'Comparison.1'
p559
Ntp560
F0.006700167504187605
ssS'apwsE951009.0294-2-2-0.perm-11.txt.pipe'
p561
(dp562
sS'apwsE951009.0294-2-2-0.perm-10.txt.pipe'
p563
(dp564
sS'apwsE951003.0004-2-2-0.perm-1.txt.pipe'
p565
(dp566
(S'Expansion.1'
p567
Ntp568
F0.2647058823529412
s(NS'Expansion.2'
p569
tp570
F0.3235294117647059
s(NNtp571
F0.4117647058823529
ssS'apwsE950827.0022-2-2-0.perm-1.txt.pipe'
p572
(dp573
(S'Comparison.2'
p574
Ntp575
F0.16666666666666666
s(S'Comparison.1'
p576
S'Contingency.2'
p577
tp578
F0.027777777777777776
s(S'Temporal.2'
p579
Ntp580
F0.16666666666666666
s(NS'Contingency.1'
p581
tp582
F0.05555555555555555
s(S'Temporal.1'
p583
Ntp584
F0.08333333333333333
s(S'Temporal.2'
p585
g577
tp586
F0.027777777777777776
s(NS'Contingency.2'
p587
tp588
F0.2777777777777778
s(S'Comparison.2'
p589
S'Contingency.1'
p590
tp591
F0.027777777777777776
s(S'Comparison.1'
p592
Ntp593
F0.16666666666666666
ssS'apwsE950925.0091-0-1.perm-10.txt.pipe'
p594
(dp595
(S'Expansion.1'
p596
Ntp597
F0.4166666666666667
s(NS'Expansion.2'
p598
tp599
F0.5833333333333334
ssS'apwsE951009.0245-2-2-0.perm-12.txt.pipe'
p600
(dp601
(S'Expansion.2'
p602
S'.1'
p603
tp604
F0.0008583690987124463
s(S'Contingency.1'
p605
Ntp606
F0.0068669527896995704
s(NS'Temporal.2'
p607
tp608
F0.002575107296137339
s(S'Expansion.1'
p609
S'Expansion.1'
p610
tp611
F0.0008583690987124463
s(S'Expansion.1'
p612
Ntp613
F0.04291845493562232
s(S'Comparison.2'
p614
Ntp615
F0.013733905579399141
s(NNtp616
F0.6412017167381975
s(S'.1'
p617
Ntp618
F0.00944206008583691
s(Ng614
tp619
F0.018025751072961373
s(S'Contingency.2'
p620
Ntp621
F0.005150214592274678
s(Ng605
tp622
F0.0068669527896995704
s(Ng612
tp623
F0.04034334763948498
s(Ng617
tp624
F0.008583690987124463
s(S'.2'
p625
S'Comparison.2'
p626
tp627
F0.0008583690987124463
s(S'Expansion.2'
p628
g625
tp629
F0.0008583690987124463
s(S'Comparison.2'
p630
S'Expansion.2'
p631
tp632
F0.005150214592274678
s(NS'Temporal.1'
p633
tp634
F0.0008583690987124463
s(S'Expansion.2'
p635
Ntp636
F0.06609442060085836
s(NS'.2'
p637
tp638
F0.004291845493562232
s(g625
S'Contingency.2'
p639
tp640
F0.0008583690987124463
s(S'Contingency.2'
p641
S'Expansion.2'
p642
tp643
F0.002575107296137339
s(Ng620
tp644
F0.0068669527896995704
s(S'Expansion.2'
p645
S'Temporal.2'
p646
tp647
F0.0008583690987124463
s(g637
S'Expansion.2'
p648
tp649
F0.0017167381974248926
s(S'Expansion.2'
p650
g635
tp651
F0.014592274678111588
s(NS'Comparison.1'
p652
tp653
F0.010300429184549357
s(S'.2'
p654
Ntp655
F0.0034334763948497852
s(S'Expansion.1'
p656
g603
tp657
F0.0008583690987124463
s(Ng650
tp658
F0.06351931330472103
s(S'Comparison.1'
p659
Ntp660
F0.01888412017167382
ssS'apwsE960313.0036-2-2-0.perm-1.txt.pipe'
p661
(dp662
sS'apwsE960102.0206-0-1.perm-1.txt.pipe'
p663
(dp664
(NS'.2'
p665
tp666
F0.35294117647058826
s(S'.1'
p667
Ntp668
F0.6470588235294118
ssS'apwsE951009.0305-2-2-0.perm-11.txt.pipe'
p669
(dp670
(S'Contingency.1'
p671
Ntp672
F0.015238095238095238
s(S'Contingency.2'
p673
Ntp674
F0.017142857142857144
s(S'Expansion.1'
p675
Ntp676
F0.024761904761904763
s(S'Comparison.2'
p677
Ntp678
F0.017142857142857144
s(NNtp679
F0.7276190476190476
s(S'Temporal.2'
p680
Ntp681
F0.007619047619047619
s(NS'Comparison.2'
p682
tp683
F0.024761904761904763
s(S'Expansion.2'
p684
Ntp685
F0.009523809523809525
s(S'Temporal.1'
p686
Ntp687
F0.0019047619047619048
s(Ng675
tp688
F0.04380952380952381
s(NS'Expansion.2'
p689
tp690
F0.06285714285714286
s(S'Comparison.1'
p691
Ntp692
F0.04380952380952381
s(S'Expansion.1'
p693
S'Expansion.1'
p694
tp695
F0.0038095238095238095
ssS'apwsE960108.0238-2-2-0.perm-1.txt.pipe'
p696
(dp697
sS'apwsE960303.0079-2-2-0.perm-12.txt.pipe'
p698
(dp699
sS'apwsE950919.0202-2-2-0.perm-13.txt.pipe'
p700
(dp701
sS'apwsE951023.0362-2-2-0.perm-10.txt.pipe'
p702
(dp703
sS'apwsE960313.0250-0-1.perm-13.txt.pipe'
p704
(dp705
sS'apwsE951001.0302-2-2-0.perm-11.txt.pipe'
p706
(dp707
(S'Expansion.2'
p708
S'.1'
p709
tp710
F0.0006218905472636816
s(S'.1'
p711
S'Expansion.1'
p712
tp713
F0.0012437810945273632
s(NS'Temporal.2'
p714
tp715
F0.004353233830845771
s(S'Expansion.1'
p716
S'Expansion.1'
p717
tp718
F0.0006218905472636816
s(S'.2'
p719
S'.2'
p720
tp721
F0.007462686567164179
s(NS'Temporal.1'
p722
tp723
F0.004975124378109453
s(S'.1'
p724
S'.1'
p725
tp726
F0.0037313432835820895
s(S'.1'
p727
Ntp728
F0.03669154228855721
s(S'Expansion.2'
p729
Ntp730
F0.023009950248756218
s(NS'Expansion.1'
p731
tp732
F0.022388059701492536
s(Ng727
tp733
F0.03109452736318408
s(S'Expansion.2'
p734
S'.2'
p735
tp736
F0.0006218905472636816
s(S'.2'
p737
g725
tp738
F0.0024875621890547263
s(g731
Ntp739
F0.023009950248756218
s(S'Temporal.2'
p740
S'Expansion.2'
p741
tp742
F0.003109452736318408
s(NS'.2'
p743
tp744
F0.04477611940298507
s(S'Expansion.2'
p745
g740
tp746
F0.0012437810945273632
s(S'Temporal.2'
p747
Ntp748
F0.003109452736318408
s(g716
g747
tp749
F0.0006218905472636816
s(S'.2'
p750
S'Expansion.2'
p751
tp752
F0.0037313432835820895
s(S'Expansion.2'
p753
S'Expansion.2'
p754
tp755
F0.006218905472636816
s(g743
Ntp756
F0.03917910447761194
s(g722
Ntp757
F0.004975124378109453
s(S'Expansion.1'
p758
S'.1'
p759
tp760
F0.0006218905472636816
s(NS'Expansion.2'
p761
tp762
F0.034203980099502485
s(NNtp763
F0.6958955223880597
ssS'apwsE950919.0594-2-2-0.perm-12.txt.pipe'
p764
(dp765
sS'apwsE951221.0001-0-1.perm-12.txt.pipe'
p766
(dp767
(NS'Comparison.2'
p768
tp769
F0.3333333333333333
s(S'Comparison.1'
p770
S'Comparison.1'
p771
tp772
F0.09523809523809523
s(NS'Comparison.1'
p773
tp774
F0.047619047619047616
s(S'Comparison.2'
p775
Ntp776
F0.2857142857142857
s(S'Comparison.1'
p777
S'Comparison.2'
p778
tp779
F0.047619047619047616
s(S'Comparison.1'
p780
Ntp781
F0.19047619047619047
ssS'apwsE951024.0072-2-2-0.perm-11.txt.pipe'
p782
(dp783
(S'Comparison.1'
p784
S'Expansion.1'
p785
tp786
F0.010416666666666666
s(S'Comparison.2'
p787
Ntp788
F0.16666666666666666
s(NNtp789
F0.4375
s(NS'Comparison.2'
p790
tp791
F0.08333333333333333
s(NS'Comparison.1'
p792
tp793
F0.08333333333333333
s(NS'Expansion.1'
p794
tp795
F0.03125
s(S'Comparison.1'
p796
S'Comparison.2'
p797
tp798
F0.010416666666666666
s(NS'Expansion.2'
p799
tp800
F0.052083333333333336
s(S'Comparison.1'
p801
Ntp802
F0.125
ssS'apwsE951006.0493-2-2-0.perm-13.txt.pipe'
p803
(dp804
(S'Contingency.1'
p805
S'Comparison.1'
p806
tp807
F0.0008635578583765112
s(NS'Temporal.2'
p808
tp809
F0.008635578583765112
s(S'Expansion.2'
p810
Ntp811
F0.017271157167530225
s(S'Expansion.1'
p812
Ntp813
F0.016407599309153715
s(S'Comparison.2'
p814
Ntp815
F0.04058721934369603
s(NS'Temporal.1'
p816
tp817
F0.0069084628670120895
s(NNtp818
F0.7245250431778929
s(NS'Comparison.2'
p819
tp820
F0.046632124352331605
s(S'Contingency.2'
p821
Ntp822
F0.012953367875647668
s(S'Comparison.2'
p823
S'Temporal.2'
p824
tp825
F0.0008635578583765112
s(NS'Expansion.1'
p826
tp827
F0.007772020725388601
s(S'Comparison.2'
p828
S'Expansion.2'
p829
tp830
F0.004317789291882556
s(S'Contingency.1'
p831
Ntp832
F0.0017271157167530224
s(g805
S'Expansion.2'
p833
tp834
F0.0008635578583765112
s(S'Expansion.2'
p835
S'Comparison.2'
p836
tp837
F0.0025906735751295338
s(NS'Comparison.1'
p838
tp839
F0.038860103626943004
s(S'Comparison.2'
p840
S'Temporal.1'
p841
tp842
F0.0008635578583765112
s(NS'Expansion.2'
p843
tp844
F0.02158894645941278
s(S'Comparison.1'
p845
Ntp846
F0.045768566493955096
ssS'apwsE950331.0603-0-1.perm-13.txt.pipe'
p847
(dp848
sS'apwsE951010.0048-2-2-0.perm-10.txt.pipe'
p849
(dp850
(S'Expansion.1'
p851
Ntp852
F0.007478632478632479
s(NS'Temporal.2'
p853
tp854
F0.042735042735042736
s(NS'Temporal.1'
p855
tp856
F0.024572649572649572
s(S'Comparison.2'
p857
Ntp858
F0.014957264957264958
s(S'Temporal.2'
p859
S'Comparison.2'
p860
tp861
F0.003205128205128205
s(NNtp862
F0.7382478632478633
s(S'Temporal.2'
p863
Ntp864
F0.03632478632478633
s(Ng857
tp865
F0.03418803418803419
s(NS'Comparison.1'
p866
tp867
F0.02564102564102564
s(S'Expansion.2'
p868
Ntp869
F0.00641025641025641
s(S'Temporal.1'
p870
Ntp871
F0.035256410256410256
s(g866
Ntp872
F0.030982905982905984
ssS'apwsE960313.0026-2-2-0.perm-12.txt.pipe'
p873
(dp874
sS'apwsE951003.0485-2-2-0.perm-13.txt.pipe'
p875
(dp876
sS'apwsE951203.0078-2-2-0.perm-13.txt.pipe'
p877
(dp878
(NS'Comparison.2'
p879
tp880
F0.3125
s(NS'Comparison.1'
p881
tp882
F0.0625
s(S'Comparison.2'
p883
S'Comparison.1'
p884
tp885
F0.125
s(S'Comparison.2'
p886
Ntp887
F0.125
s(S'Comparison.1'
p888
S'Comparison.2'
p889
tp890
F0.0625
s(S'Comparison.1'
p891
Ntp892
F0.3125
ssS'apwsE960508.0041-2-2-0.perm-11.txt.pipe'
p893
(dp894
sS'apwsE951010.0048-2-2-0.perm-11.txt.pipe'
p895
(dp896
(NS'Temporal.1'
p897
tp898
F0.028192371475953566
s(NS'Temporal.2'
p899
tp900
F0.05306799336650083
s(S'Temporal.1'
p901
S'Temporal.1'
p902
tp903
F0.003316749585406302
s(S'Comparison.2'
p904
Ntp905
F0.013266998341625208
s(NNtp906
F0.8009950248756219
s(S'Temporal.2'
p907
Ntp908
F0.01824212271973466
s(Ng904
tp909
F0.03150912106135987
s(NS'Expansion.1'
p910
tp911
F0.011608623548922056
s(g897
Ntp912
F0.02321724709784411
s(S'Temporal.2'
p913
S'Temporal.1'
p914
tp915
F0.001658374792703151
s(NS'Expansion.2'
p916
tp917
F0.009950248756218905
s(S'Comparison.1'
p918
Ntp919
F0.004975124378109453
ssS'apwsE951003.0004-2-2-0.perm-12.txt.pipe'
p920
(dp921
(S'Contingency.2'
p922
Ntp923
F0.009966777408637873
s(S'Contingency.1'
p924
Ntp925
F0.006644518272425249
s(NNtp926
F0.6378737541528239
s(S'.1'
p927
Ntp928
F0.03820598006644518
s(S'Expansion.2'
p929
Ntp930
F0.03820598006644518
s(S'Expansion.2'
p931
S'Contingency.2'
p932
tp933
F0.0033222591362126247
s(NS'Expansion.1'
p934
tp935
F0.03322259136212625
s(NS'.1'
p936
tp937
F0.023255813953488372
s(g934
Ntp938
F0.03322259136212625
s(NS'.2'
p939
tp940
F0.04152823920265781
s(Ng922
tp941
F0.009966777408637873
s(Ng924
tp942
F0.006644518272425249
s(S'.2'
p943
S'.2'
p944
tp945
F0.006644518272425249
s(S'.2'
p946
S'Expansion.2'
p947
tp948
F0.0016611295681063123
s(S'Contingency.2'
p949
S'Expansion.2'
p950
tp951
F0.0033222591362126247
s(g939
Ntp952
F0.03986710963455149
s(S'Expansion.2'
p953
S'Expansion.2'
p954
tp955
F0.008305647840531562
s(Ng929
tp956
F0.05813953488372093
ssS'apwsE951010.0048-2-2-0.perm-12.txt.pipe'
p957
(dp958
(NS'Temporal.1'
p959
tp960
F0.027777777777777776
s(S'Temporal.2'
p961
S'Temporal.2'
p962
tp963
F0.003968253968253968
s(NS'Temporal.2'
p964
tp965
F0.05291005291005291
s(S'Comparison.2'
p966
Ntp967
F0.03439153439153439
s(NNtp968
F0.7486772486772487
s(S'Temporal.2'
p969
Ntp970
F0.021164021164021163
s(NS'Comparison.2'
p971
tp972
F0.046296296296296294
s(NS'Comparison.1'
p973
tp974
F0.010582010582010581
s(S'Comparison.2'
p975
S'Temporal.1'
p976
tp977
F0.003968253968253968
s(g975
S'Temporal.2'
p978
tp979
F0.0026455026455026454
s(g959
Ntp980
F0.031746031746031744
s(S'Comparison.1'
p981
Ntp982
F0.015873015873015872
ssS'apwsE960203.0270-2-2-0.perm-1.txt.pipe'
p983
(dp984
sS'apwsE950928.0080-0-1.perm-13.txt.pipe'
p985
(dp986
sS'apwsE951210.0051-2-2-0.perm-11.txt.pipe'
p987
(dp988
sS'apwsE960207.0488-2-2-0.perm-10.txt.pipe'
p989
(dp990
(NS'Expansion.1'
p991
tp992
F0.13333333333333333
s(NS'Expansion.2'
p993
tp994
F0.5333333333333333
s(S'Expansion.1'
p995
S'Expansion.1'
p996
tp997
F0.03333333333333333
s(S'Expansion.1'
p998
Ntp999
F0.3
ssS'apwsE960109.0412-0-1.perm-10.txt.pipe'
p1000
(dp1001
sS'apwsE960313.0036-2-2-0.perm-10.txt.pipe'
p1002
(dp1003
(S'Contingency.1'
p1004
Ntp1005
F0.010638297872340425
s(NNtp1006
F0.35106382978723405
s(S'Temporal.2'
p1007
Ntp1008
F0.1276595744680851
s(NS'Comparison.2'
p1009
tp1010
F0.07446808510638298
s(NS'Comparison.1'
p1011
tp1012
F0.11702127659574468
s(S'Contingency.2'
p1013
Ntp1014
F0.10638297872340426
s(Ng1004
tp1015
F0.02127659574468085
s(S'Temporal.1'
p1016
Ntp1017
F0.07446808510638298
s(Ng1013
tp1018
F0.10638297872340426
s(S'Contingency.1'
p1019
S'Comparison.2'
p1020
tp1021
F0.010638297872340425
ssS'apwsE951023.0357-2-2-0.perm-11.txt.pipe'
p1022
(dp1023
sS'apwsE951020.0432-2-2-0.perm-11.txt.pipe'
p1024
(dp1025
(S'.1'
p1026
S'Expansion.1'
p1027
tp1028
F0.002702702702702703
s(S'Expansion.1'
p1029
S'Contingency.1'
p1030
tp1031
F0.0005405405405405405
s(S'.2'
p1032
S'.2'
p1033
tp1034
F0.005945945945945946
s(S'Comparison.2'
p1035
Ntp1036
F0.0075675675675675675
s(S'.1'
p1037
S'.1'
p1038
tp1039
F0.0005405405405405405
s(S'.1'
p1040
Ntp1041
F0.01945945945945946
s(NS'Comparison.2'
p1042
tp1043
F0.016216216216216217
s(S'Comparison.1'
p1044
S'Comparison.1'
p1045
tp1046
F0.0005405405405405405
s(NS'Contingency.1'
p1047
tp1048
F0.001081081081081081
s(S'Expansion.2'
p1049
S'Comparison.1'
p1050
tp1051
F0.0005405405405405405
s(S'Comparison.2'
p1052
S'Comparison.2'
p1053
tp1054
F0.0005405405405405405
s(S'.1'
p1055
g1044
tp1056
F0.001081081081081081
s(NS'.2'
p1057
tp1058
F0.03567567567567568
s(S'Expansion.1'
p1059
S'Expansion.1'
p1060
tp1061
F0.0016216216216216215
s(g1053
S'Expansion.1'
p1062
tp1063
F0.0005405405405405405
s(g1030
g1062
tp1064
F0.0005405405405405405
s(NS'Expansion.2'
p1065
tp1066
F0.0372972972972973
s(S'Comparison.1'
p1067
Ntp1068
F0.007027027027027027
s(S'Expansion.2'
p1069
g1055
tp1070
F0.001081081081081081
s(S'Expansion.1'
p1071
S'Comparison.1'
p1072
tp1073
F0.0016216216216216215
s(g1047
Ntp1074
F0.001081081081081081
s(S'Expansion.2'
p1075
S'Expansion.1'
p1076
tp1077
F0.001081081081081081
s(g1052
S'.1'
p1078
tp1079
F0.0005405405405405405
s(NNtp1080
F0.6686486486486487
s(Ng1040
tp1081
F0.01945945945945946
s(S'.2'
p1082
g1030
tp1083
F0.0005405405405405405
s(S'Contingency.2'
p1084
Ntp1085
F0.0016216216216216215
s(S'.2'
p1086
g1060
tp1087
F0.0016216216216216215
s(g1044
S'.1'
p1088
tp1089
F0.001081081081081081
s(NS'Expansion.1'
p1090
tp1091
F0.02918918918918919
s(g1082
g1053
tp1092
F0.0005405405405405405
s(S'Expansion.2'
p1093
S'.2'
p1094
tp1095
F0.008648648648648649
s(g1082
g1078
tp1096
F0.0005405405405405405
s(g1042
g1093
tp1097
F0.002162162162162162
s(g1090
Ntp1098
F0.03189189189189189
s(S'Comparison.1'
p1099
g1076
tp1100
F0.0005405405405405405
s(S'Expansion.2'
p1101
Ntp1102
F0.025405405405405406
s(Ng1084
tp1103
F0.0016216216216216215
s(S'Comparison.2'
p1104
S'.2'
p1105
tp1106
F0.003243243243243243
s(g1029
g1053
tp1107
F0.0005405405405405405
s(g1057
g1101
tp1108
F0.004864864864864865
s(S'Expansion.2'
p1109
S'Expansion.2'
p1110
tp1111
F0.0037837837837837837
s(Ng1067
tp1112
F0.008648648648648649
s(g1033
Ntp1113
F0.036756756756756756
s(S'.2'
p1114
g1072
tp1115
F0.0005405405405405405
s(S'Expansion.1'
p1116
g1055
tp1117
F0.002702702702702703
s(g1052
g1030
tp1118
F0.0005405405405405405
ssS'apwsE951009.0305-2-2-0.perm-13.txt.pipe'
p1119
(dp1120
(S'Comparison.2'
p1121
Ntp1122
F0.018433179723502304
s(S'Expansion.2'
p1123
S'Expansion.1'
p1124
tp1125
F0.002304147465437788
s(S'Comparison.1'
p1126
g1123
tp1127
F0.002304147465437788
s(NNtp1128
F0.7442396313364056
s(NS'Comparison.2'
p1129
tp1130
F0.03686635944700461
s(S'Temporal.2'
p1131
S'Comparison.1'
p1132
tp1133
F0.002304147465437788
s(S'Expansion.2'
p1134
Ntp1135
F0.004608294930875576
s(NS'Expansion.1'
p1136
tp1137
F0.03225806451612903
s(S'Comparison.2'
p1138
S'Expansion.2'
p1139
tp1140
F0.002304147465437788
s(S'Expansion.1'
p1141
Ntp1142
F0.03225806451612903
s(S'Temporal.2'
p1143
Ntp1144
F0.0069124423963133645
s(S'Expansion.2'
p1145
g1139
tp1146
F0.002304147465437788
s(NS'Comparison.1'
p1147
tp1148
F0.0069124423963133645
s(S'Temporal.1'
p1149
Ntp1150
F0.002304147465437788
s(NS'Expansion.2'
p1151
tp1152
F0.08755760368663594
s(S'Comparison.1'
p1153
Ntp1154
F0.016129032258064516
ssS'apwsE951009.0278-2-2-0.perm-10.txt.pipe'
p1155
(dp1156
(S'Expansion.1'
p1157
Ntp1158
F0.041666666666666664
s(S'Expansion.1'
p1159
S'Expansion.1'
p1160
tp1161
F0.002777777777777778
s(NS'.2'
p1162
tp1163
F0.019444444444444445
s(S'Expansion.2'
p1164
S'Expansion.1'
p1165
tp1166
F0.002777777777777778
s(NNtp1167
F0.7555555555555555
s(S'Temporal.2'
p1168
Ntp1169
F0.008333333333333333
s(S'.1'
p1170
Ntp1171
F0.005555555555555556
s(S'Expansion.2'
p1172
Ntp1173
F0.022222222222222223
s(S'Temporal.1'
p1174
Ntp1175
F0.002777777777777778
s(g1162
Ntp1176
F0.019444444444444445
s(Ng1157
tp1177
F0.05277777777777778
s(S'Temporal.2'
p1178
g1164
tp1179
F0.002777777777777778
s(NS'Expansion.2'
p1180
tp1181
F0.06388888888888888
ssS'apwsE950928.0094-0-1.perm-13.txt.pipe'
p1182
(dp1183
sS'apwsE951018.0070-2-2-0.perm-10.txt.pipe'
p1184
(dp1185
sS'apwsE951201.0010-0-1.perm-13.txt.pipe'
p1186
(dp1187
(NS'Comparison.2'
p1188
tp1189
F0.21428571428571427
s(S'Comparison.1'
p1190
S'Comparison.1'
p1191
tp1192
F0.07142857142857142
s(NS'Comparison.1'
p1193
tp1194
F0.14285714285714285
s(S'Comparison.2'
p1195
S'Comparison.1'
p1196
tp1197
F0.03571428571428571
s(S'Comparison.2'
p1198
Ntp1199
F0.35714285714285715
s(S'Comparison.1'
p1200
Ntp1201
F0.17857142857142858
ssS'apwsE960104.0037-0-1.perm-1.txt.pipe'
p1202
(dp1203
sS'apwsE950919.0564-2-2-0.perm-11.txt.pipe'
p1204
(dp1205
(S'Contingency.1'
p1206
Ntp1207
F0.13333333333333333
s(S'Contingency.1'
p1208
S'Expansion.1'
p1209
tp1210
F0.03333333333333333
s(S'Contingency.2'
p1211
Ntp1212
F0.16666666666666666
s(NS'Expansion.1'
p1213
tp1214
F0.06666666666666667
s(NS'Expansion.2'
p1215
tp1216
F0.13333333333333333
s(NNtp1217
F0.4666666666666667
ssS'apwsE951122.0012-0-1.perm-13.txt.pipe'
p1218
(dp1219
sS'apwsE951210.0356-2-2-0.perm-12.txt.pipe'
p1220
(dp1221
sS'apwsE951001.0242-2-2-0.perm-12.txt.pipe'
p1222
(dp1223
sS'apwsE960313.0026-2-2-0.perm-10.txt.pipe'
p1224
(dp1225
sS'apwsE951024.0005-2-2-0.perm-13.txt.pipe'
p1226
(dp1227
sS'apwsE951201.0010-0-1.perm-12.txt.pipe'
p1228
(dp1229
sS'apwsE960122.0410-0-1.perm-13.txt.pipe'
p1230
(dp1231
(NS'Comparison.2'
p1232
tp1233
F0.3793103448275862
s(S'Comparison.1'
p1234
S'Comparison.1'
p1235
tp1236
F0.06896551724137931
s(NS'Comparison.1'
p1237
tp1238
F0.1724137931034483
s(S'Comparison.2'
p1239
Ntp1240
F0.20689655172413793
s(S'Comparison.1'
p1241
S'Comparison.2'
p1242
tp1243
F0.034482758620689655
s(S'Comparison.1'
p1244
Ntp1245
F0.13793103448275862
ssS'apwsE950914.0074-0-1.perm-1.txt.pipe'
p1246
(dp1247
sS'apwsE950119.0186-0-1.perm-12.txt.pipe'
p1248
(dp1249
sS'apwsE951020.0432-2-2-0.perm-1.txt.pipe'
p1250
(dp1251
(S'Expansion.1'
p1252
Ntp1253
F0.1258741258741259
s(S'Expansion.1'
p1254
S'Expansion.1'
p1255
tp1256
F0.013986013986013986
s(NNtp1257
F0.5384615384615384
s(NS'Comparison.2'
p1258
tp1259
F0.027972027972027972
s(S'Expansion.2'
p1260
S'Expansion.2'
p1261
tp1262
F0.03496503496503497
s(NS'Comparison.1'
p1263
tp1264
F0.03496503496503497
s(S'Expansion.2'
p1265
Ntp1266
F0.04895104895104895
s(NS'Expansion.1'
p1267
tp1268
F0.02097902097902098
s(Ng1260
tp1269
F0.14685314685314685
s(S'Expansion.1'
p1270
S'Comparison.2'
p1271
tp1272
F0.006993006993006993
ssS'apwsE951024.0123-2-2-0.perm-1.txt.pipe'
p1273
(dp1274
(S'Expansion.1'
p1275
Ntp1276
F0.019230769230769232
s(S'Comparison.1'
p1277
S'Comparison.1'
p1278
tp1279
F0.028846153846153848
s(S'Comparison.2'
p1280
S'Comparison.2'
p1281
tp1282
F0.009615384615384616
s(S'Comparison.2'
p1283
Ntp1284
F0.057692307692307696
s(NNtp1285
F0.625
s(NS'Comparison.2'
p1286
tp1287
F0.09615384615384616
s(NS'Comparison.1'
p1288
tp1289
F0.10576923076923077
s(S'Expansion.2'
p1290
Ntp1291
F0.028846153846153848
s(S'Comparison.1'
p1292
S'Comparison.2'
p1293
tp1294
F0.009615384615384616
s(S'Comparison.1'
p1295
Ntp1296
F0.019230769230769232
ssS'apwsE951009.0305-2-2-0.perm-12.txt.pipe'
p1297
(dp1298
(S'Expansion.1'
p1299
S'Comparison.1'
p1300
tp1301
F0.0022123893805309734
s(S'Expansion.1'
p1302
Ntp1303
F0.030973451327433628
s(S'Comparison.2'
p1304
Ntp1305
F0.015486725663716814
s(NNtp1306
F0.7743362831858407
s(NS'Comparison.2'
p1307
tp1308
F0.02654867256637168
s(NS'Comparison.1'
p1309
tp1310
F0.00663716814159292
s(S'Expansion.2'
p1311
Ntp1312
F0.011061946902654867
s(NS'Expansion.1'
p1313
tp1314
F0.022123893805309734
s(NS'Expansion.2'
p1315
tp1316
F0.07743362831858407
s(S'Expansion.1'
p1317
S'Comparison.2'
p1318
tp1319
F0.0022123893805309734
s(S'Comparison.1'
p1320
Ntp1321
F0.030973451327433628
ssS'apwsE951001.0302-2-2-0.perm-10.txt.pipe'
p1322
(dp1323
(S'.1'
p1324
S'Expansion.1'
p1325
tp1326
F0.0005359056806002144
s(NS'Temporal.2'
p1327
tp1328
F0.0053590568060021436
s(S'Temporal.2'
p1329
S'.2'
p1330
tp1331
F0.0026795284030010718
s(S'.2'
p1332
S'.2'
p1333
tp1334
F0.013933547695605574
s(NS'Temporal.1'
p1335
tp1336
F0.004287245444801715
s(S'.1'
p1337
S'.1'
p1338
tp1339
F0.0037513397642015005
s(S'.1'
p1340
Ntp1341
F0.03965702036441586
s(NS'NoRel.2'
p1342
tp1343
F0.0037513397642015005
s(S'Expansion.2'
p1344
Ntp1345
F0.012861736334405145
s(NS'Expansion.1'
p1346
tp1347
F0.0053590568060021436
s(NS'NoRel.1'
p1348
tp1349
F0.005894962486602358
s(Ng1340
tp1350
F0.04019292604501608
s(S'Expansion.2'
p1351
g1330
tp1352
F0.004287245444801715
s(S'.2'
p1353
g1338
tp1354
F0.0005359056806002144
s(g1346
Ntp1355
F0.009110396570203644
s(NS'.2'
p1356
tp1357
F0.04876741693461951
s(g1327
Ntp1358
F0.0026795284030010718
s(S'.2'
p1359
S'Expansion.2'
p1360
tp1361
F0.0010718113612004287
s(g1348
Ntp1362
F0.005894962486602358
s(g1356
Ntp1363
F0.04394426580921758
s(g1335
Ntp1364
F0.004287245444801715
s(Ng1344
tp1365
F0.01607717041800643
s(NNtp1366
F0.72508038585209
ssS'apwsE950620.0596-0-1.perm-11.txt.pipe'
p1367
(dp1368
sS'apwsE960109.0103-2-2-0.perm-13.txt.pipe'
p1369
(dp1370
sS'apwsE951210.0051-2-2-0.perm-13.txt.pipe'
p1371
(dp1372
sS'apwsE950112.0297-0-1.perm-13.txt.pipe'
p1373
(dp1374
sS'apwsE960104.0037-0-1.perm-12.txt.pipe'
p1375
(dp1376
sS'apwsE951024.0020-2-2-0.perm-11.txt.pipe'
p1377
(dp1378
(S'Expansion.1'
p1379
Ntp1380
F0.02857142857142857
s(S'Comparison.1'
p1381
S'Expansion.1'
p1382
tp1383
F0.014285714285714285
s(S'Comparison.2'
p1384
Ntp1385
F0.07142857142857142
s(S'Comparison.1'
p1386
S'Expansion.2'
p1387
tp1388
F0.014285714285714285
s(NNtp1389
F0.44285714285714284
s(Ng1384
tp1390
F0.1
s(NS'Comparison.1'
p1391
tp1392
F0.05714285714285714
s(S'Expansion.2'
p1393
Ntp1394
F0.05714285714285714
s(NS'Expansion.1'
p1395
tp1396
F0.1
s(S'Expansion.2'
p1397
g1386
tp1398
F0.014285714285714285
s(NS'Expansion.2'
p1399
tp1400
F0.02857142857142857
s(S'Comparison.2'
p1401
S'Expansion.1'
p1402
tp1403
F0.02857142857142857
s(g1391
Ntp1404
F0.04285714285714286
ssS'apwsE960216.0269-2-2-0.perm-11.txt.pipe'
p1405
(dp1406
(NS'Comparison.2'
p1407
tp1408
F0.10526315789473684
s(NS'Temporal.2'
p1409
tp1410
F0.2982456140350877
s(S'Temporal.1'
p1411
S'Comparison.2'
p1412
tp1413
F0.017543859649122806
s(S'Temporal.1'
p1414
Ntp1415
F0.07017543859649122
s(NS'Comparison.1'
p1416
tp1417
F0.21052631578947367
s(NNtp1418
F0.2982456140350877
ssS'apwsE950331.0603-0-1.perm-1.txt.pipe'
p1419
(dp1420
sS'apwsE951106.0072-2-2-0.perm-11.txt.pipe'
p1421
(dp1422
sS'apwsE951221.0056-2-2-0.perm-1.txt.pipe'
p1423
(dp1424
sS'apwsE960508.0041-2-2-0.perm-10.txt.pipe'
p1425
(dp1426
sS'apwsE951203.0078-2-2-0.perm-1.txt.pipe'
p1427
(dp1428
sS'apwsE951024.0072-2-2-0.perm-12.txt.pipe'
p1429
(dp1430
(NS'Comparison.2'
p1431
tp1432
F0.14583333333333334
s(NS'Comparison.1'
p1433
tp1434
F0.125
s(NNtp1435
F0.5833333333333334
s(S'Expansion.2'
p1436
Ntp1437
F0.0625
s(S'Expansion.1'
p1438
Ntp1439
F0.08333333333333333
ssS'apwsE950331.0603-0-1.perm-10.txt.pipe'
p1440
(dp1441
sS'apwsE951009.0294-2-2-0.perm-13.txt.pipe'
p1442
(dp1443
sS'apwsE960313.0061-2-2-0.perm-1.txt.pipe'
p1444
(dp1445
sS'apwsE951006.0493-2-2-0.perm-11.txt.pipe'
p1446
(dp1447
(S'Expansion.2'
p1448
Ntp1449
F0.011538461538461539
s(S'Expansion.1'
p1450
Ntp1451
F0.013461538461538462
s(S'Comparison.2'
p1452
Ntp1453
F0.023076923076923078
s(S'Comparison.1'
p1454
S'Expansion.2'
p1455
tp1456
F0.0057692307692307696
s(NNtp1457
F0.6365384615384615
s(S'Temporal.1'
p1458
S'Expansion.2'
p1459
tp1460
F0.0019230769230769232
s(NS'Comparison.2'
p1461
tp1462
F0.05576923076923077
s(S'Contingency.2'
p1463
Ntp1464
F0.019230769230769232
s(NS'Expansion.1'
p1465
tp1466
F0.0038461538461538464
s(NS'Contingency.1'
p1467
tp1468
F0.0038461538461538464
s(S'Comparison.2'
p1469
S'Contingency.2'
p1470
tp1471
F0.0019230769230769232
s(S'Contingency.1'
p1472
Ntp1473
F0.0057692307692307696
s(S'Comparison.1'
p1474
S'Expansion.1'
p1475
tp1476
F0.0019230769230769232
s(g1461
S'Comparison.1'
p1477
tp1478
F0.0019230769230769232
s(NS'Contingency.2'
p1479
tp1480
F0.026923076923076925
s(S'Temporal.2'
p1481
S'Comparison.2'
p1482
tp1483
F0.007692307692307693
s(S'Temporal.1'
p1484
g1475
tp1485
F0.0019230769230769232
s(S'Temporal.2'
p1486
Ntp1487
F0.013461538461538462
s(g1479
S'Comparison.2'
p1488
tp1489
F0.009615384615384616
s(NS'Comparison.1'
p1490
tp1491
F0.026923076923076925
s(S'Temporal.1'
p1492
Ntp1493
F0.013461538461538462
s(S'Temporal.2'
p1494
S'Expansion.2'
p1495
tp1496
F0.0019230769230769232
s(NS'Expansion.2'
p1497
tp1498
F0.03076923076923077
s(g1461
g1472
tp1499
F0.0019230769230769232
s(g1477
Ntp1500
F0.07884615384615384
ssS'apwsE951216.0211-2-2-0.perm-13.txt.pipe'
p1501
(dp1502
sS'apwsE960106.0047-2-2-0.perm-13.txt.pipe'
p1503
(dp1504
sS'apwsE951218.0398-0-1.perm-1.txt.pipe'
p1505
(dp1506
sS'apwsE950919.0580-2-2-0.perm-12.txt.pipe'
p1507
(dp1508
sS'apwsE951024.0072-2-2-0.perm-13.txt.pipe'
p1509
(dp1510
(S'Expansion.1'
p1511
Ntp1512
F0.0625
s(NS'Comparison.1'
p1513
tp1514
F0.10416666666666667
s(S'Expansion.2'
p1515
Ntp1516
F0.08333333333333333
s(NS'Comparison.2'
p1517
tp1518
F0.125
s(S'Expansion.2'
p1519
S'Comparison.1'
p1520
tp1521
F0.020833333333333332
s(NNtp1522
F0.5833333333333334
s(S'Expansion.1'
p1523
S'Comparison.2'
p1524
tp1525
F0.020833333333333332
ssS'apwsE960207.0018-2-2-0.perm-1.txt.pipe'
p1526
(dp1527
(S'Expansion.1'
p1528
S'Comparison.1'
p1529
tp1530
F0.029411764705882353
s(S'Expansion.1'
p1531
Ntp1532
F0.4411764705882353
s(NS'Comparison.1'
p1533
tp1534
F0.11764705882352941
s(NS'Comparison.2'
p1535
tp1536
F0.029411764705882353
s(NS'Expansion.2'
p1537
tp1538
F0.11764705882352941
s(NNtp1539
F0.2647058823529412
ssS'apwsE951221.0001-0-1.perm-10.txt.pipe'
p1540
(dp1541
sS'apwsE951001.0302-2-2-0.perm-1.txt.pipe'
p1542
(dp1543
(S'Expansion.2'
p1544
S'.1'
p1545
tp1546
F0.00047709923664122136
s(S'.1'
p1547
S'Expansion.1'
p1548
tp1549
F0.0014312977099236641
s(NS'Temporal.2'
p1550
tp1551
F0.004770992366412214
s(S'Temporal.2'
p1552
S'.2'
p1553
tp1554
F0.002385496183206107
s(S'.2'
p1555
S'.2'
p1556
tp1557
F0.010019083969465648
s(S'Expansion.2'
p1558
g1548
tp1559
F0.00047709923664122136
s(NS'Temporal.1'
p1560
tp1561
F0.003816793893129771
s(S'.1'
p1562
S'.1'
p1563
tp1564
F0.00715648854961832
s(S'.1'
p1565
Ntp1566
F0.03625954198473282
s(S'Expansion.2'
p1567
Ntp1568
F0.009541984732824428
s(NS'Expansion.1'
p1569
tp1570
F0.01097328244274809
s(Ng1565
tp1571
F0.0357824427480916
s(S'Expansion.2'
p1572
S'.2'
p1573
tp1574
F0.0028625954198473282
s(S'.2'
p1575
g1563
tp1576
F0.003816793893129771
s(g1569
Ntp1577
F0.011450381679389313
s(S'Temporal.1'
p1578
S'.1'
p1579
tp1580
F0.0009541984732824427
s(NS'.2'
p1581
tp1582
F0.04150763358778626
s(g1550
Ntp1583
F0.002385496183206107
s(S'.2'
p1584
S'Expansion.2'
p1585
tp1586
F0.0028625954198473282
s(S'Expansion.2'
p1587
S'Expansion.2'
p1588
tp1589
F0.00047709923664122136
s(g1581
Ntp1590
F0.04007633587786259
s(g1560
Ntp1591
F0.0028625954198473282
s(S'Expansion.1'
p1592
S'.1'
p1593
tp1594
F0.0014312977099236641
s(Ng1567
tp1595
F0.016698473282442748
s(NNtp1596
F0.7495229007633588
ssS'apwsE960102.0206-0-1.perm-10.txt.pipe'
p1597
(dp1598
sS'apwsE960313.0024-2-2-0.perm-10.txt.pipe'
p1599
(dp1600
sS'apwsE951201.0003-2-2-0.perm-10.txt.pipe'
p1601
(dp1602
sS'apwsE951222.0206-2-2-0.perm-13.txt.pipe'
p1603
(dp1604
(S'Expansion.1'
p1605
Ntp1606
F0.031073446327683617
s(S'.1'
p1607
S'Expansion.1'
p1608
tp1609
F0.002824858757062147
s(NS'.2'
p1610
tp1611
F0.1327683615819209
s(S'.2'
p1612
S'.2'
p1613
tp1614
F0.03672316384180791
s(g1610
Ntp1615
F0.11016949152542373
s(NNtp1616
F0.4435028248587571
s(S'.1'
p1617
Ntp1618
F0.07344632768361582
s(S'.2'
p1619
S'Expansion.2'
p1620
tp1621
F0.01694915254237288
s(S'.1'
p1622
S'.1'
p1623
tp1624
F0.005649717514124294
s(Ng1605
tp1625
F0.02824858757062147
s(NS'.1'
p1626
tp1627
F0.06497175141242938
s(NS'Expansion.2'
p1628
tp1629
F0.0480225988700565
s(S'.2'
p1630
g1623
tp1631
F0.005649717514124294
ssS'apwsE950827.0035-2-2-0.perm-12.txt.pipe'
p1632
(dp1633
sS'apwsE950827.0022-2-2-0.perm-13.txt.pipe'
p1634
(dp1635
(S'Contingency.1'
p1636
Ntp1637
F0.05555555555555555
s(NS'Temporal.2'
p1638
tp1639
F0.16666666666666666
s(NS'Temporal.1'
p1640
tp1641
F0.08333333333333333
s(S'Contingency.2'
p1642
S'Temporal.2'
p1643
tp1644
F0.027777777777777776
s(NS'Comparison.2'
p1645
tp1646
F0.16666666666666666
s(NS'Comparison.1'
p1647
tp1648
F0.16666666666666666
s(S'Contingency.2'
p1649
Ntp1650
F0.2777777777777778
s(g1642
S'Comparison.1'
p1651
tp1652
F0.027777777777777776
s(S'Contingency.1'
p1653
S'Comparison.2'
p1654
tp1655
F0.027777777777777776
ssS'apwsE951009.0226-2-2-0.perm-12.txt.pipe'
p1656
(dp1657
sS'apwsE951201.0010-0-1.perm-1.txt.pipe'
p1658
(dp1659
sS'apwsE950905.0546-2-2-0.perm-10.txt.pipe'
p1660
(dp1661
sS'apwsE951201.0003-2-2-0.perm-12.txt.pipe'
p1662
(dp1663
sS'apwsE951218.0398-0-1.perm-10.txt.pipe'
p1664
(dp1665
sS'apwsE951201.0003-2-2-0.perm-1.txt.pipe'
p1666
(dp1667
sS'apwsE951023.0362-2-2-0.perm-12.txt.pipe'
p1668
(dp1669
sS'apwsE951215.0060-2-2-0.perm-11.txt.pipe'
p1670
(dp1671
sS'apwsE951101.0026-0-1.perm-13.txt.pipe'
p1672
(dp1673
sS'apwsE951009.0226-2-2-0.perm-11.txt.pipe'
p1674
(dp1675
sS'apwsE951122.0004-0-1.perm-1.txt.pipe'
p1676
(dp1677
sS'apwsE951009.0244-2-2-0.perm-10.txt.pipe'
p1678
(dp1679
(S'.1'
p1680
S'Expansion.1'
p1681
tp1682
F0.0013192612137203166
s(S'Expansion.1'
p1683
S'Contingency.1'
p1684
tp1685
F0.0006596306068601583
s(S'.2'
p1686
S'.2'
p1687
tp1688
F0.006596306068601583
s(S'Comparison.2'
p1689
Ntp1690
F0.0079155672823219
s(S'.1'
p1691
S'.1'
p1692
tp1693
F0.0006596306068601583
s(S'.1'
p1694
Ntp1695
F0.029023746701846966
s(Ng1689
tp1696
F0.011213720316622692
s(S'Comparison.2'
p1697
g1692
tp1698
F0.0013192612137203166
s(NS'Contingency.1'
p1699
tp1700
F0.004617414248021108
s(S'Expansion.1'
p1701
S'Expansion.1'
p1702
tp1703
F0.0006596306068601583
s(NS'.2'
p1704
tp1705
F0.040237467018469655
s(S'.2'
p1706
S'Expansion.2'
p1707
tp1708
F0.001978891820580475
s(S'Contingency.2'
p1709
S'.2'
p1710
tp1711
F0.001978891820580475
s(NS'Expansion.2'
p1712
tp1713
F0.04551451187335093
s(S'Comparison.1'
p1714
Ntp1715
F0.009234828496042216
s(S'Expansion.2'
p1716
g1680
tp1717
F0.0006596306068601583
s(S'Expansion.1'
p1718
Ntp1719
F0.01978891820580475
s(NNtp1720
F0.6827176781002638
s(Ng1694
tp1721
F0.02836411609498681
s(S'.2'
p1722
g1702
tp1723
F0.001978891820580475
s(S'Expansion.2'
p1724
Ntp1725
F0.021767810026385226
s(S'Contingency.2'
p1726
Ntp1727
F0.00395778364116095
s(NS'Expansion.1'
p1728
tp1729
F0.017810026385224276
s(g1706
S'Comparison.2'
p1730
tp1731
F0.0013192612137203166
s(S'Expansion.2'
p1732
S'.2'
p1733
tp1734
F0.00395778364116095
s(g1683
S'Comparison.1'
p1735
tp1736
F0.0006596306068601583
s(g1699
Ntp1737
F0.005277044854881266
s(Ng1726
tp1738
F0.004617414248021108
s(S'Comparison.2'
p1739
g1733
tp1740
F0.004617414248021108
s(g1706
g1709
tp1741
F0.0013192612137203166
s(S'Expansion.2'
p1742
S'Expansion.2'
p1743
tp1744
F0.0006596306068601583
s(Ng1714
tp1745
F0.007255936675461741
s(g1704
Ntp1746
F0.02836411609498681
s(S'Expansion.1'
p1747
g1691
tp1748
F0.0013192612137203166
s(g1747
g1697
tp1749
F0.0006596306068601583
ssS'apwsE960108.0238-2-2-0.perm-12.txt.pipe'
p1750
(dp1751
(S'Expansion.1'
p1752
Ntp1753
F0.1346153846153846
s(S'.1'
p1754
S'Expansion.1'
p1755
tp1756
F0.038461538461538464
s(NS'.2'
p1757
tp1758
F0.09615384615384616
s(NNtp1759
F0.2980769230769231
s(S'.1'
p1760
Ntp1761
F0.0673076923076923
s(S'.2'
p1762
S'Expansion.2'
p1763
tp1764
F0.038461538461538464
s(S'Expansion.2'
p1765
S'Expansion.2'
p1766
tp1767
F0.009615384615384616
s(g1763
Ntp1768
F0.08653846153846154
s(g1757
Ntp1769
F0.057692307692307696
s(Ng1752
tp1770
F0.09615384615384616
s(NS'Expansion.2'
p1771
tp1772
F0.07692307692307693
ssS'apwsE951010.0087-2-2-0.perm-10.txt.pipe'
p1773
(dp1774
(NS'Temporal.1'
p1775
tp1776
F0.01800327332242226
s(S'Comparison.2'
p1777
S'Temporal.2'
p1778
tp1779
F0.0016366612111292963
s(NS'Temporal.2'
p1780
tp1781
F0.06546644844517185
s(S'Comparison.2'
p1782
Ntp1783
F0.03436988543371522
s(S'Temporal.2'
p1784
S'Comparison.2'
p1785
tp1786
F0.019639934533551555
s(NNtp1787
F0.6972176759410802
s(g1780
Ntp1788
F0.03927986906710311
s(NS'Comparison.2'
p1789
tp1790
F0.03600654664484452
s(NS'Comparison.1'
p1791
tp1792
F0.011456628477905073
s(S'Temporal.1'
p1793
S'Comparison.1'
p1794
tp1795
F0.0016366612111292963
s(S'Temporal.1'
p1796
Ntp1797
F0.02127659574468085
s(g1791
Ntp1798
F0.054009819967266774
ssS'apwsE951001.0242-2-2-0.perm-13.txt.pipe'
p1799
(dp1800
sS'apwsE950425.0109-0-1.perm-10.txt.pipe'
p1801
(dp1802
sS'apwsE950213.0175-0-1.perm-1.txt.pipe'
p1803
(dp1804
sS'apwsE960102.0206-0-1.perm-13.txt.pipe'
p1805
(dp1806
sS'apwsE951001.0257-2-2-0.perm-1.txt.pipe'
p1807
(dp1808
(S'.1'
p1809
S'Expansion.1'
p1810
tp1811
F0.0029211295034079843
s(S'Temporal.2'
p1812
S'.2'
p1813
tp1814
F0.004868549172346641
s(S'.2'
p1815
S'.2'
p1816
tp1817
F0.016553067185978577
s(S'.1'
p1818
S'.1'
p1819
tp1820
F0.011684518013631937
s(S'.1'
p1821
Ntp1822
F0.06621226874391431
s(S'Expansion.2'
p1823
Ntp1824
F0.01557935735150925
s(NS'Expansion.1'
p1825
tp1826
F0.014605647517039922
s(Ng1821
tp1827
F0.05160662122687439
s(S'Expansion.2'
p1828
g1816
tp1829
F0.004868549172346641
s(S'.2'
p1830
g1819
tp1831
F0.004868549172346641
s(g1810
S'Expansion.1'
p1832
tp1833
F0.0009737098344693282
s(g1825
Ntp1834
F0.014605647517039922
s(S'Temporal.1'
p1835
S'.1'
p1836
tp1837
F0.0019474196689386564
s(NS'.2'
p1838
tp1839
F0.0691333982473223
s(S'Temporal.2'
p1840
Ntp1841
F0.004868549172346641
s(S'.2'
p1842
S'Expansion.2'
p1843
tp1844
F0.0029211295034079843
s(g1838
Ntp1845
F0.06718597857838364
s(S'Temporal.1'
p1846
Ntp1847
F0.005842259006815969
s(S'Expansion.1'
p1848
S'.1'
p1849
tp1850
F0.0019474196689386564
s(Ng1823
tp1851
F0.023369036027263874
s(NNtp1852
F0.6134371957156767
ssS'apwsE950620.0596-0-1.perm-1.txt.pipe'
p1853
(dp1854
sS'apwsE960508.0041-2-2-0.perm-1.txt.pipe'
p1855
(dp1856
sS'apwsE951024.0123-2-2-0.perm-11.txt.pipe'
p1857
(dp1858
(S'Expansion.1'
p1859
Ntp1860
F0.03205128205128205
s(S'Comparison.2'
p1861
Ntp1862
F0.03205128205128205
s(NNtp1863
F0.6282051282051282
s(NS'Comparison.2'
p1864
tp1865
F0.09615384615384616
s(NS'Comparison.1'
p1866
tp1867
F0.08333333333333333
s(S'Expansion.2'
p1868
Ntp1869
F0.03205128205128205
s(NS'Expansion.1'
p1870
tp1871
F0.01282051282051282
s(S'Expansion.2'
p1872
S'Comparison.1'
p1873
tp1874
F0.00641025641025641
s(Ng1868
tp1875
F0.019230769230769232
s(S'Expansion.1'
p1876
S'Comparison.2'
p1877
tp1878
F0.00641025641025641
s(S'Comparison.1'
p1879
Ntp1880
F0.05128205128205128
ssS'apwsE950919.0202-2-2-0.perm-1.txt.pipe'
p1881
(dp1882
sS'apwsE960313.0036-2-2-0.perm-11.txt.pipe'
p1883
(dp1884
sS'apwsE950914.0074-0-1.perm-12.txt.pipe'
p1885
(dp1886
sS'apwsE951020.0430-2-2-0.perm-12.txt.pipe'
p1887
(dp1888
(S'Comparison.2'
p1889
S'Expansion.2'
p1890
tp1891
F0.009950248756218905
s(S'Expansion.1'
p1892
Ntp1893
F0.08955223880597014
s(S'Comparison.2'
p1894
Ntp1895
F0.06467661691542288
s(NNtp1896
F0.5671641791044776
s(NS'Comparison.2'
p1897
tp1898
F0.024875621890547265
s(NS'Comparison.1'
p1899
tp1900
F0.03980099502487562
s(NS'Contingency.1'
p1901
tp1902
F0.014925373134328358
s(S'Comparison.2'
p1903
S'Contingency.2'
p1904
tp1905
F0.004975124378109453
s(NS'Expansion.2'
p1906
tp1907
F0.10945273631840796
s(S'Comparison.1'
p1908
Ntp1909
F0.05970149253731343
s(NS'Contingency.2'
p1910
tp1911
F0.014925373134328358
ssS'apwsE951003.0004-2-2-0.perm-13.txt.pipe'
p1912
(dp1913
(S'Expansion.2'
p1914
S'.1'
p1915
tp1916
F0.0014970059880239522
s(S'.1'
p1917
S'Expansion.1'
p1918
tp1919
F0.0014970059880239522
s(S'.2'
p1920
S'.2'
p1921
tp1922
F0.020958083832335328
s(S'.1'
p1923
g1915
tp1924
F0.005988023952095809
s(NS'.1'
p1925
tp1926
F0.058383233532934134
s(S'Expansion.2'
p1927
Ntp1928
F0.011976047904191617
s(NS'Expansion.1'
p1929
tp1930
F0.005988023952095809
s(g1925
Ntp1931
F0.06736526946107785
s(S'Expansion.2'
p1932
S'.2'
p1933
tp1934
F0.005988023952095809
s(S'.2'
p1935
S'.1'
p1936
tp1937
F0.005988023952095809
s(S'Expansion.1'
p1938
Ntp1939
F0.010479041916167664
s(NS'.2'
p1940
tp1941
F0.08682634730538923
s(g1940
Ntp1942
F0.07035928143712575
s(S'Expansion.1'
p1943
S'.1'
p1944
tp1945
F0.0014970059880239522
s(Ng1932
tp1946
F0.02694610778443114
s(NNtp1947
F0.6182634730538922
ssS'apwsE950925.0091-0-1.perm-12.txt.pipe'
p1948
(dp1949
(S'Expansion.1'
p1950
Ntp1951
F0.125
s(NS'Expansion.2'
p1952
tp1953
F0.875
ssS'apwsE951024.0123-2-2-0.perm-12.txt.pipe'
p1954
(dp1955
(S'Expansion.1'
p1956
Ntp1957
F0.03205128205128205
s(S'Comparison.2'
p1958
Ntp1959
F0.03205128205128205
s(S'Comparison.1'
p1960
S'Expansion.2'
p1961
tp1962
F0.00641025641025641
s(NNtp1963
F0.6089743589743589
s(NS'Comparison.2'
p1964
tp1965
F0.09615384615384616
s(NS'Comparison.1'
p1966
tp1967
F0.08333333333333333
s(S'Expansion.2'
p1968
Ntp1969
F0.03205128205128205
s(NS'Expansion.1'
p1970
tp1971
F0.02564102564102564
s(S'Expansion.2'
p1972
S'Comparison.1'
p1973
tp1974
F0.00641025641025641
s(NS'Expansion.2'
p1975
tp1976
F0.02564102564102564
s(S'Expansion.1'
p1977
S'Comparison.2'
p1978
tp1979
F0.00641025641025641
s(S'Comparison.1'
p1980
Ntp1981
F0.04487179487179487
ssS'apwsE960303.0090-2-2-0.perm-11.txt.pipe'
p1982
(dp1983
sS'apwsE950112.0297-0-1.perm-10.txt.pipe'
p1984
(dp1985
sS'apwsE951001.0328-2-2-0.perm-11.txt.pipe'
p1986
(dp1987
sS'apwsE951001.0328-2-2-0.perm-1.txt.pipe'
p1988
(dp1989
(NNtp1990
F0.425
s(NS'.2'
p1991
tp1992
F0.375
s(S'.1'
p1993
Ntp1994
F0.2
ssS'apwsE950424.0128-0-1.perm-11.txt.pipe'
p1995
(dp1996
sS'apwsE951108.0165-2-2-0.perm-12.txt.pipe'
p1997
(dp1998
(S'Expansion.1'
p1999
Ntp2000
F0.07222222222222222
s(NS'Comparison.1'
p2001
tp2002
F0.03888888888888889
s(S'Expansion.2'
p2003
Ntp2004
F0.03888888888888889
s(NS'Comparison.2'
p2005
tp2006
F0.08333333333333333
s(NS'Expansion.2'
p2007
tp2008
F0.06666666666666667
s(NNtp2009
F0.6611111111111111
s(g2001
Ntp2010
F0.03888888888888889
ssS'apwsE951221.0056-2-2-0.perm-13.txt.pipe'
p2011
(dp2012
sS'apwsE951221.0049-2-2-0.perm-10.txt.pipe'
p2013
(dp2014
sS'apwsE960303.0090-2-2-0.perm-10.txt.pipe'
p2015
(dp2016
sS'apwsE950919.0580-2-2-0.perm-13.txt.pipe'
p2017
(dp2018
sS'apwsE951221.0049-2-2-0.perm-12.txt.pipe'
p2019
(dp2020
sS'apwsE960221.0036-0-1.perm-12.txt.pipe'
p2021
(dp2022
sS'apwsE960303.0079-2-2-0.perm-11.txt.pipe'
p2023
(dp2024
sS'apwsE951221.0001-0-1.perm-1.txt.pipe'
p2025
(dp2026
sS'apwsE951009.0244-2-2-0.perm-1.txt.pipe'
p2027
(dp2028
(S'.1'
p2029
S'Expansion.1'
p2030
tp2031
F0.0003795066413662239
s(S'Expansion.1'
p2032
S'Contingency.1'
p2033
tp2034
F0.0003795066413662239
s(S'.2'
p2035
S'.2'
p2036
tp2037
F0.0064516129032258064
s(S'Comparison.2'
p2038
Ntp2039
F0.003795066413662239
s(S'.1'
p2040
S'Comparison.2'
p2041
tp2042
F0.0003795066413662239
s(S'.1'
p2043
S'.1'
p2044
tp2045
F0.0018975332068311196
s(S'.1'
p2046
Ntp2047
F0.023908918406072108
s(Ng2038
tp2048
F0.004933586337760911
s(NS'Expansion.1'
p2049
tp2050
F0.020872865275142316
s(S'Expansion.2'
p2051
S'Comparison.1'
p2052
tp2053
F0.0003795066413662239
s(g2032
S'Expansion.1'
p2054
tp2055
F0.0003795066413662239
s(NS'.2'
p2056
tp2057
F0.02808349146110057
s(S'Contingency.2'
p2058
S'Expansion.2'
p2059
tp2060
F0.0011385199240986717
s(NS'Expansion.2'
p2061
tp2062
F0.039468690702087285
s(g2051
g2033
tp2063
F0.0003795066413662239
s(S'Comparison.1'
p2064
Ntp2065
F0.004554079696394687
s(g2032
g2052
tp2066
F0.0003795066413662239
s(S'Contingency.1'
p2067
Ntp2068
F0.0030360531309297912
s(NS'Temporal.2'
p2069
tp2070
F0.0015180265654648956
s(NS'Temporal.1'
p2071
tp2072
F0.0003795066413662239
s(S'Expansion.2'
p2073
g2030
tp2074
F0.0007590132827324478
s(NNtp2075
F0.7127134724857686
s(Ng2046
tp2076
F0.022770398481973434
s(S'Expansion.2'
p2077
Ntp2078
F0.03149905123339659
s(S'Contingency.2'
p2079
Ntp2080
F0.0022770398481973433
s(Ng2067
tp2081
F0.0026565464895635673
s(S'.1'
p2082
S'Expansion.2'
p2083
tp2084
F0.0003795066413662239
s(S'Expansion.2'
p2085
S'.2'
p2086
tp2087
F0.007969639468690701
s(S'.2'
p2088
S'.1'
p2089
tp2090
F0.0015180265654648956
s(S'Comparison.2'
p2091
g2059
tp2092
F0.0011385199240986717
s(g2049
Ntp2093
F0.024667931688804556
s(g2061
g2077
tp2094
F0.0060721062618595825
s(Ng2079
tp2095
F0.0026565464895635673
s(S'Comparison.2'
p2096
S'.2'
p2097
tp2098
F0.0011385199240986717
s(g2056
S'Expansion.2'
p2099
tp2100
F0.003415559772296015
s(S'Expansion.2'
p2101
g2091
tp2102
F0.0007590132827324478
s(g2101
g2058
tp2103
F0.0007590132827324478
s(Ng2064
tp2104
F0.004174573055028463
s(S'.2'
p2105
Ntp2106
F0.027703984819734344
s(S'Expansion.1'
p2107
g2089
tp2108
F0.0022770398481973433
ssS'apwsE951018.0182-2-2-0.perm-12.txt.pipe'
p2109
(dp2110
sS'apwsE951215.0060-2-2-0.perm-10.txt.pipe'
p2111
(dp2112
(S'Expansion.1'
p2113
Ntp2114
F0.1875
s(NS'Contingency.2'
p2115
tp2116
F0.1875
s(S'Expansion.2'
p2117
Ntp2118
F0.4375
s(NS'Contingency.1'
p2119
tp2120
F0.1875
ssS'apwsE950119.0186-0-1.perm-13.txt.pipe'
p2121
(dp2122
sS'apwsE960207.0018-2-2-0.perm-11.txt.pipe'
p2123
(dp2124
(S'Expansion.1'
p2125
S'Comparison.1'
p2126
tp2127
F0.014705882352941176
s(S'Expansion.1'
p2128
Ntp2129
F0.25
s(S'Comparison.2'
p2130
Ntp2131
F0.07352941176470588
s(NNtp2132
F0.19117647058823528
s(NS'Comparison.2'
p2133
tp2134
F0.014705882352941176
s(NS'Comparison.1'
p2135
tp2136
F0.058823529411764705
s(Ng2128
tp2137
F0.25
s(NS'Expansion.2'
p2138
tp2139
F0.058823529411764705
s(S'Comparison.2'
p2140
g2125
tp2141
F0.014705882352941176
s(S'Comparison.1'
p2142
Ntp2143
F0.07352941176470588
ssS'apwsE951221.0056-2-2-0.perm-12.txt.pipe'
p2144
(dp2145
sS'apwsE951009.0278-2-2-0.perm-1.txt.pipe'
p2146
(dp2147
(S'Expansion.1'
p2148
Ntp2149
F0.06338028169014084
s(NS'Temporal.2'
p2150
tp2151
F0.028169014084507043
s(S'Expansion.2'
p2152
Ntp2153
F0.02112676056338028
s(S'Contingency.1'
p2154
Ntp2155
F0.056338028169014086
s(S'Comparison.2'
p2156
Ntp2157
F0.06338028169014084
s(NS'Temporal.1'
p2158
tp2159
F0.007042253521126761
s(NNtp2160
F0.5352112676056338
s(S'Expansion.2'
p2161
S'Expansion.2'
p2162
tp2163
F0.04225352112676056
s(S'Contingency.2'
p2164
Ntp2165
F0.06338028169014084
s(NS'Expansion.2'
p2166
tp2167
F0.056338028169014086
s(S'Comparison.1'
p2168
Ntp2169
F0.06338028169014084
ssS'apwsE951010.0048-2-2-0.perm-1.txt.pipe'
p2170
(dp2171
(NS'Temporal.1'
p2172
tp2173
F0.0032414910858995136
s(NS'Temporal.2'
p2174
tp2175
F0.03727714748784441
s(S'Expansion.1'
p2176
Ntp2177
F0.011345218800648298
s(S'Comparison.2'
p2178
Ntp2179
F0.012965964343598054
s(S'Temporal.2'
p2180
S'Comparison.2'
p2181
tp2182
F0.0016207455429497568
s(NNtp2183
F0.7844408427876823
s(S'Temporal.2'
p2184
Ntp2185
F0.017828200972447326
s(NS'Comparison.2'
p2186
tp2187
F0.04051863857374392
s(S'Expansion.2'
p2188
g2181
tp2189
F0.0016207455429497568
s(NS'Comparison.1'
p2190
tp2191
F0.012965964343598054
s(S'Expansion.2'
p2192
Ntp2193
F0.008103727714748784
s(S'Temporal.1'
p2194
Ntp2195
F0.027552674230145867
s(S'Comparison.1'
p2196
Ntp2197
F0.04051863857374392
ssS'apwsE950827.0035-2-2-0.perm-11.txt.pipe'
p2198
(dp2199
sS'apwsE950119.0186-0-1.perm-11.txt.pipe'
p2200
(dp2201
sS'apwsE951222.0206-2-2-0.perm-11.txt.pipe'
p2202
(dp2203
(NS'.2'
p2204
tp2205
F0.20652173913043478
s(S'.2'
p2206
S'.2'
p2207
tp2208
F0.03260869565217391
s(g2204
Ntp2209
F0.125
s(S'.1'
p2210
Ntp2211
F0.13043478260869565
s(NNtp2212
F0.4076086956521739
s(Ng2210
tp2213
F0.09782608695652174
ssS'apwsE960104.0037-0-1.perm-11.txt.pipe'
p2214
(dp2215
sS'apwsE951004.0060-2-2-0.perm-13.txt.pipe'
p2216
(dp2217
sS'apwsE960108.0238-2-2-0.perm-11.txt.pipe'
p2218
(dp2219
(S'Expansion.1'
p2220
Ntp2221
F0.125
s(S'Expansion.1'
p2222
S'.1'
p2223
tp2224
F0.025
s(NS'.2'
p2225
tp2226
F0.1
s(NNtp2227
F0.225
s(NS'.1'
p2228
tp2229
F0.1
s(S'Expansion.2'
p2230
Ntp2231
F0.125
s(g2228
Ntp2232
F0.125
s(Ng2230
tp2233
F0.15
s(S'Expansion.2'
p2234
S'.2'
p2235
tp2236
F0.025
ssS'apwsE960104.0037-0-1.perm-10.txt.pipe'
p2237
(dp2238
sS'apwsE950331.0603-0-1.perm-12.txt.pipe'
p2239
(dp2240
sS'apwsE960108.0194-2-2-0.perm-12.txt.pipe'
p2241
(dp2242
sS'apwsE951018.0170-2-2-0.perm-13.txt.pipe'
p2243
(dp2244
sS'apwsE951021.0001-2-2-0.perm-1.txt.pipe'
p2245
(dp2246
(S'Expansion.1'
p2247
Ntp2248
F0.04365079365079365
s(S'Comparison.2'
p2249
S'Comparison.1'
p2250
tp2251
F0.003968253968253968
s(S'Comparison.2'
p2252
Ntp2253
F0.01984126984126984
s(NNtp2254
F0.7103174603174603
s(Ng2252
tp2255
F0.051587301587301584
s(NS'Comparison.1'
p2256
tp2257
F0.027777777777777776
s(S'Expansion.2'
p2258
Ntp2259
F0.047619047619047616
s(Ng2247
tp2260
F0.01984126984126984
s(S'Expansion.2'
p2261
g2250
tp2262
F0.003968253968253968
s(Ng2258
tp2263
F0.051587301587301584
s(g2256
Ntp2264
F0.01984126984126984
ssS'apwsE950822.0071-0-1.perm-10.txt.pipe'
p2265
(dp2266
sS'apwsE951024.0110-2-2-0.perm-1.txt.pipe'
p2267
(dp2268
(S'Expansion.1'
p2269
Ntp2270
F0.019230769230769232
s(S'Comparison.1'
p2271
S'Comparison.1'
p2272
tp2273
F0.028846153846153848
s(S'Comparison.2'
p2274
S'Comparison.2'
p2275
tp2276
F0.009615384615384616
s(S'Comparison.2'
p2277
Ntp2278
F0.057692307692307696
s(NNtp2279
F0.625
s(NS'Comparison.2'
p2280
tp2281
F0.09615384615384616
s(NS'Comparison.1'
p2282
tp2283
F0.10576923076923077
s(S'Expansion.2'
p2284
Ntp2285
F0.028846153846153848
s(S'Comparison.1'
p2286
S'Comparison.2'
p2287
tp2288
F0.009615384615384616
s(S'Comparison.1'
p2289
Ntp2290
F0.019230769230769232
ssS'apwsE960303.0079-2-2-0.perm-1.txt.pipe'
p2291
(dp2292
sS'apwsE951203.0078-2-2-0.perm-11.txt.pipe'
p2293
(dp2294
sS'apwsE950307.0067-0-1.perm-1.txt.pipe'
p2295
(dp2296
sS'apwsE950307.0067-0-1.perm-11.txt.pipe'
p2297
(dp2298
sS'apwsE951001.0328-2-2-0.perm-10.txt.pipe'
p2299
(dp2300
(S'Expansion.1'
p2301
Ntp2302
F0.125
s(NS'Expansion.2'
p2303
tp2304
F0.375
s(NNtp2305
F0.5
ssS'apwsE950919.0594-2-2-0.perm-11.txt.pipe'
p2306
(dp2307
sS'apwsE960216.0241-2-2-0.perm-11.txt.pipe'
p2308
(dp2309
sS'apwsE951203.0078-2-2-0.perm-12.txt.pipe'
p2310
(dp2311
(NS'Comparison.2'
p2312
tp2313
F0.3125
s(NS'Comparison.1'
p2314
tp2315
F0.0625
s(S'Comparison.2'
p2316
S'Comparison.1'
p2317
tp2318
F0.125
s(S'Comparison.2'
p2319
Ntp2320
F0.125
s(S'Comparison.1'
p2321
S'Comparison.2'
p2322
tp2323
F0.0625
s(S'Comparison.1'
p2324
Ntp2325
F0.3125
ssS'apwsE950424.0128-0-1.perm-1.txt.pipe'
p2326
(dp2327
sS'apwsE951226.0004-2-2-0.perm-11.txt.pipe'
p2328
(dp2329
(S'Expansion.1'
p2330
Ntp2331
F0.5172413793103449
s(NS'Expansion.2'
p2332
tp2333
F0.4827586206896552
ssS'apwsE950925.0091-0-1.perm-13.txt.pipe'
p2334
(dp2335
(S'Expansion.1'
p2336
Ntp2337
F0.4090909090909091
s(NS'Expansion.2'
p2338
tp2339
F0.5909090909090909
ssS'apwsE951125.0054-2-2-0.perm-10.txt.pipe'
p2340
(dp2341
(S'Comparison.2'
p2342
S'Expansion.2'
p2343
tp2344
F0.04054054054054054
s(S'Expansion.1'
p2345
Ntp2346
F0.1891891891891892
s(NS'Comparison.2'
p2347
tp2348
F0.16216216216216217
s(S'Comparison.2'
p2349
Ntp2350
F0.05405405405405406
s(NS'Expansion.2'
p2351
tp2352
F0.02702702702702703
s(NNtp2353
F0.3783783783783784
s(S'Comparison.1'
p2354
Ntp2355
F0.14864864864864866
ssS'apwsE960102.0206-0-1.perm-11.txt.pipe'
p2356
(dp2357
(S'Expansion.1'
p2358
Ntp2359
F0.7
s(NS'Expansion.2'
p2360
tp2361
F0.3
ssS'apwsE951010.0087-2-2-0.perm-12.txt.pipe'
p2362
(dp2363
(NS'Temporal.1'
p2364
tp2365
F0.018425460636515914
s(NS'Temporal.2'
p2366
tp2367
F0.048576214405360134
s(S'Comparison.1'
p2368
Ntp2369
F0.021775544388609715
s(NS'Comparison.2'
p2370
tp2371
F0.04020100502512563
s(S'Temporal.1'
p2372
Ntp2373
F0.031825795644891124
s(NNtp2374
F0.8090452261306532
s(S'Temporal.2'
p2375
Ntp2376
F0.03015075376884422
ssS'apwsE951003.0485-2-2-0.perm-11.txt.pipe'
p2377
(dp2378
sS'apwsE950919.0202-2-2-0.perm-12.txt.pipe'
p2379
(dp2380
sS'apwsE951010.0048-2-2-0.perm-13.txt.pipe'
p2381
(dp2382
(S'Temporal.2'
p2383
S'Temporal.2'
p2384
tp2385
F0.001669449081803005
s(NS'Temporal.2'
p2386
tp2387
F0.041736227045075125
s(S'Comparison.2'
p2388
S'Comparison.2'
p2389
tp2390
F0.001669449081803005
s(S'Expansion.1'
p2391
Ntp2392
F0.011686143572621035
s(S'Temporal.1'
p2393
S'Temporal.2'
p2394
tp2395
F0.001669449081803005
s(S'Comparison.2'
p2396
Ntp2397
F0.01669449081803005
s(NNtp2398
F0.7045075125208681
s(g2393
S'Expansion.2'
p2399
tp2400
F0.001669449081803005
s(NS'Comparison.2'
p2401
tp2402
F0.038397328881469114
s(S'Expansion.2'
p2403
Ntp2404
F0.008347245409015025
s(Ng2391
tp2405
F0.01001669449081803
s(NS'Temporal.1'
p2406
tp2407
F0.02003338898163606
s(S'Temporal.1'
p2408
S'Temporal.1'
p2409
tp2410
F0.00333889816360601
s(S'Temporal.2'
p2411
g2396
tp2412
F0.001669449081803005
s(S'Expansion.2'
p2413
g2384
tp2414
F0.001669449081803005
s(g2408
S'Expansion.1'
p2415
tp2416
F0.001669449081803005
s(S'Temporal.2'
p2417
Ntp2418
F0.03672787979966611
s(NS'Comparison.1'
p2419
tp2420
F0.01335559265442404
s(S'Temporal.1'
p2421
Ntp2422
F0.038397328881469114
s(Ng2403
tp2423
F0.008347245409015025
s(S'Comparison.1'
p2424
Ntp2425
F0.03672787979966611
ssS'apwsE960203.0270-2-2-0.perm-12.txt.pipe'
p2426
(dp2427
sS'apwsE950827.0035-2-2-0.perm-1.txt.pipe'
p2428
(dp2429
(S'Comparison.1'
p2430
S'Contingency.1'
p2431
tp2432
F0.02702702702702703
s(S'Comparison.2'
p2433
Ntp2434
F0.16216216216216217
s(S'Comparison.1'
p2435
S'Contingency.2'
p2436
tp2437
F0.02702702702702703
s(S'Temporal.1'
p2438
g2431
tp2439
F0.02702702702702703
s(S'Temporal.2'
p2440
Ntp2441
F0.16216216216216217
s(S'Temporal.1'
p2442
Ntp2443
F0.08108108108108109
s(NS'Contingency.1'
p2444
tp2445
F0.02702702702702703
s(S'Temporal.2'
p2446
g2436
tp2447
F0.02702702702702703
s(NS'Contingency.2'
p2448
tp2449
F0.2702702702702703
s(S'Comparison.2'
p2450
S'Contingency.1'
p2451
tp2452
F0.02702702702702703
s(S'Comparison.1'
p2453
Ntp2454
F0.16216216216216217
ssS'apwsE960216.0241-2-2-0.perm-12.txt.pipe'
p2455
(dp2456
sS'apwsE951106.0072-2-2-0.perm-13.txt.pipe'
p2457
(dp2458
sS'apwsE951009.0216-2-2-0.perm-13.txt.pipe'
p2459
(dp2460
sS'apwsE951020.0430-2-2-0.perm-13.txt.pipe'
p2461
(dp2462
(S'Expansion.1'
p2463
Ntp2464
F0.06060606060606061
s(S'Expansion.1'
p2465
S'Expansion.1'
p2466
tp2467
F0.005050505050505051
s(S'Comparison.2'
p2468
Ntp2469
F0.030303030303030304
s(NNtp2470
F0.5606060606060606
s(NS'Comparison.2'
p2471
tp2472
F0.020202020202020204
s(S'Expansion.2'
p2473
S'Expansion.2'
p2474
tp2475
F0.025252525252525252
s(NS'Comparison.1'
p2476
tp2477
F0.04040404040404041
s(S'Expansion.2'
p2478
Ntp2479
F0.030303030303030304
s(Ng2463
tp2480
F0.06565656565656566
s(NS'Expansion.2'
p2481
tp2482
F0.11616161616161616
s(S'Expansion.1'
p2483
S'Comparison.2'
p2484
tp2485
F0.005050505050505051
s(S'Comparison.1'
p2486
Ntp2487
F0.04040404040404041
ssS'apwsE951125.0054-2-2-0.perm-13.txt.pipe'
p2488
(dp2489
(NS'Comparison.2'
p2490
tp2491
F0.38235294117647056
s(NNtp2492
F0.35294117647058826
s(S'Comparison.1'
p2493
Ntp2494
F0.2647058823529412
ssS'apwsE960109.0130-2-2-0.perm-13.txt.pipe'
p2495
(dp2496
(S'.1'
p2497
S'Contingency.1'
p2498
tp2499
F0.0007627765064836003
s(S'Contingency.2'
p2500
Ntp2501
F0.005339435545385202
s(g2498
Ntp2502
F0.0007627765064836003
s(g2497
S'.1'
p2503
tp2504
F0.006102212051868803
s(NNtp2505
F0.6460717009916095
s(NS'Comparison.2'
p2506
tp2507
F0.0038138825324180014
s(S'.2'
p2508
g2498
tp2509
F0.0007627765064836003
s(S'Expansion.2'
p2510
Ntp2511
F0.012967200610221205
s(NS'Expansion.1'
p2512
tp2513
F0.005339435545385202
s(S'.1'
p2514
Ntp2515
F0.06559877955758962
s(S'Expansion.2'
p2516
S'.2'
p2517
tp2518
F0.006864988558352402
s(g2508
g2503
tp2519
F0.0030511060259344014
s(g2512
Ntp2520
F0.005339435545385202
s(NS'.1'
p2521
tp2522
F0.05568268497330282
s(NS'.2'
p2523
tp2524
F0.07551487414187644
s(Ng2500
tp2525
F0.005339435545385202
s(S'.2'
p2526
S'.2'
p2527
tp2528
F0.012204424103737605
s(S'.2'
p2529
S'Expansion.2'
p2530
tp2531
F0.0030511060259344014
s(NS'Comparison.1'
p2532
tp2533
F0.005339435545385202
s(S'.2'
p2534
Ntp2535
F0.06331045003813883
s(Ng2516
tp2536
F0.016781083142639208
ssS'apwsE951122.0004-0-1.perm-11.txt.pipe'
p2537
(dp2538
sS'apwsE960122.0410-0-1.perm-12.txt.pipe'
p2539
(dp2540
sS'apwsE951121.0037-2-2-0.perm-1.txt.pipe'
p2541
(dp2542
(NS'Comparison.2'
p2543
tp2544
F0.5555555555555556
s(NNtp2545
F0.4444444444444444
ssS'apwsE960313.0036-2-2-0.perm-13.txt.pipe'
p2546
(dp2547
sS'apwsE960122.0410-0-1.perm-11.txt.pipe'
p2548
(dp2549
(NS'Comparison.2'
p2550
tp2551
F0.2608695652173913
s(S'Comparison.1'
p2552
S'Comparison.1'
p2553
tp2554
F0.08695652173913043
s(NS'Comparison.1'
p2555
tp2556
F0.17391304347826086
s(S'Comparison.2'
p2557
S'Comparison.1'
p2558
tp2559
F0.043478260869565216
s(S'Comparison.2'
p2560
Ntp2561
F0.34782608695652173
s(S'Comparison.1'
p2562
Ntp2563
F0.08695652173913043
ssS'apwsE951222.0206-2-2-0.perm-1.txt.pipe'
p2564
(dp2565
sS'apwsE951021.0001-2-2-0.perm-11.txt.pipe'
p2566
(dp2567
(S'Contingency.1'
p2568
S'Expansion.1'
p2569
tp2570
F0.0033444816053511705
s(S'Expansion.1'
p2571
Ntp2572
F0.023411371237458192
s(S'Comparison.2'
p2573
Ntp2574
F0.043478260869565216
s(S'Contingency.2'
p2575
S'Expansion.1'
p2576
tp2577
F0.0033444816053511705
s(S'Comparison.1'
p2578
S'Contingency.2'
p2579
tp2580
F0.0033444816053511705
s(NNtp2581
F0.6488294314381271
s(NS'Comparison.2'
p2582
tp2583
F0.026755852842809364
s(S'Contingency.2'
p2584
Ntp2585
F0.030100334448160536
s(NS'Contingency.1'
p2586
tp2587
F0.006688963210702341
s(NS'Expansion.1'
p2588
tp2589
F0.013377926421404682
s(S'Expansion.2'
p2590
S'Comparison.1'
p2591
tp2592
F0.0033444816053511705
s(S'Comparison.2'
p2593
S'Expansion.2'
p2594
tp2595
F0.010033444816053512
s(S'Contingency.1'
p2596
Ntp2597
F0.013377926421404682
s(S'Expansion.2'
p2598
Ntp2599
F0.020066889632107024
s(NS'Contingency.2'
p2600
tp2601
F0.010033444816053512
s(g2594
g2573
tp2602
F0.006688963210702341
s(NS'Comparison.1'
p2603
tp2604
F0.043478260869565216
s(NS'Expansion.2'
p2605
tp2606
F0.033444816053511704
s(g2582
S'Contingency.1'
p2607
tp2608
F0.0033444816053511705
s(g2603
Ntp2609
F0.05351170568561873
ssS'apwsE951226.0004-2-2-0.perm-10.txt.pipe'
p2610
(dp2611
(S'Expansion.1'
p2612
Ntp2613
F0.35294117647058826
s(NS'Expansion.2'
p2614
tp2615
F0.6470588235294118
ssS'apwsE950213.0175-0-1.perm-11.txt.pipe'
p2616
(dp2617
sS'apwsE951009.0245-2-2-0.perm-10.txt.pipe'
p2618
(dp2619
(S'Expansion.2'
p2620
S'.1'
p2621
tp2622
F0.0006872852233676976
s(S'.1'
p2623
S'Expansion.1'
p2624
tp2625
F0.0027491408934707906
s(NS'Temporal.2'
p2626
tp2627
F0.0027491408934707906
s(S'Expansion.1'
p2628
g2624
tp2629
F0.002061855670103093
s(S'.2'
p2630
S'.2'
p2631
tp2632
F0.002061855670103093
s(S'Comparison.2'
p2633
Ntp2634
F0.006872852233676976
s(S'Expansion.2'
p2635
g2624
tp2636
F0.0013745704467353953
s(NS'Temporal.1'
p2637
tp2638
F0.0006872852233676976
s(g2621
S'.1'
p2639
tp2640
F0.0006872852233676976
s(NNtp2641
F0.7615120274914089
s(S'.1'
p2642
Ntp2643
F0.010309278350515464
s(Ng2633
tp2644
F0.008934707903780068
s(S'.2'
p2645
S'Expansion.1'
p2646
tp2647
F0.0013745704467353953
s(S'Expansion.2'
p2648
Ntp2649
F0.017869415807560136
s(NS'Expansion.1'
p2650
tp2651
F0.017869415807560136
s(NS'Contingency.1'
p2652
tp2653
F0.005498281786941581
s(Ng2642
tp2654
F0.012371134020618556
s(S'Expansion.2'
p2655
S'.2'
p2656
tp2657
F0.008247422680412371
s(g2650
Ntp2658
F0.029553264604810996
s(NS'.2'
p2659
tp2660
F0.017869415807560136
s(NS'Contingency.2'
p2661
tp2662
F0.006872852233676976
s(g2626
Ntp2663
F0.0027491408934707906
s(S'.2'
p2664
S'Expansion.2'
p2665
tp2666
F0.002061855670103093
s(S'Expansion.2'
p2667
g2665
tp2668
F0.004810996563573883
s(NS'Comparison.1'
p2669
tp2670
F0.008934707903780068
s(g2659
Ntp2671
F0.02268041237113402
s(g2637
Ntp2672
F0.0006872852233676976
s(S'Expansion.1'
p2673
g2621
tp2674
F0.0006872852233676976
s(NS'Expansion.2'
p2675
tp2676
F0.03436426116838488
s(S'Comparison.1'
p2677
Ntp2678
F0.004810996563573883
ssS'apwsE951021.0001-2-2-0.perm-10.txt.pipe'
p2679
(dp2680
(S'Comparison.2'
p2681
S'Expansion.2'
p2682
tp2683
F0.01090909090909091
s(S'Expansion.1'
p2684
Ntp2685
F0.08727272727272728
s(S'Comparison.2'
p2686
Ntp2687
F0.014545454545454545
s(NNtp2688
F0.6872727272727273
s(S'Temporal.2'
p2689
Ntp2690
F0.014545454545454545
s(NS'Comparison.2'
p2691
tp2692
F0.02181818181818182
s(NS'Comparison.1'
p2693
tp2694
F0.01818181818181818
s(g2682
Ntp2695
F0.03272727272727273
s(S'Temporal.1'
p2696
Ntp2697
F0.02181818181818182
s(NS'Expansion.1'
p2698
tp2699
F0.01818181818181818
s(NS'Expansion.2'
p2700
tp2701
F0.06181818181818182
s(S'Comparison.1'
p2702
Ntp2703
F0.01090909090909091
ssS'apwsE951021.0001-2-2-0.perm-13.txt.pipe'
p2704
(dp2705
(S'Comparison.2'
p2706
S'Expansion.2'
p2707
tp2708
F0.016304347826086956
s(S'Contingency.1'
p2709
Ntp2710
F0.010869565217391304
s(g2706
S'Comparison.2'
p2711
tp2712
F0.008152173913043478
s(S'Expansion.1'
p2713
Ntp2714
F0.04076086956521739
s(S'Comparison.2'
p2715
Ntp2716
F0.029891304347826088
s(NNtp2717
F0.6793478260869565
s(Ng2706
tp2718
F0.029891304347826088
s(S'Contingency.2'
p2719
S'Comparison.2'
p2720
tp2721
F0.005434782608695652
s(NS'Comparison.1'
p2722
tp2723
F0.043478260869565216
s(S'Contingency.2'
p2724
Ntp2725
F0.016304347826086956
s(NS'Expansion.1'
p2726
tp2727
F0.01358695652173913
s(S'Contingency.2'
p2728
S'Comparison.1'
p2729
tp2730
F0.005434782608695652
s(NS'Expansion.2'
p2731
tp2732
F0.051630434782608696
s(S'Contingency.1'
p2733
S'Comparison.1'
p2734
tp2735
F0.002717391304347826
s(g2729
Ntp2736
F0.04619565217391304
ssS'apwsE960214.0448-2-2-0.perm-11.txt.pipe'
p2737
(dp2738
sS'apwsE951122.0004-0-1.perm-10.txt.pipe'
p2739
(dp2740
sS'apwsE960214.0448-2-2-0.perm-1.txt.pipe'
p2741
(dp2742
sS'apwsE951023.0357-2-2-0.perm-12.txt.pipe'
p2743
(dp2744
sS'apwsE951023.0362-2-2-0.perm-13.txt.pipe'
p2745
(dp2746
sS'apwsE951018.0182-2-2-0.perm-10.txt.pipe'
p2747
(dp2748
sS'apwsE951108.0165-2-2-0.perm-13.txt.pipe'
p2749
(dp2750
(S'Expansion.1'
p2751
S'Comparison.1'
p2752
tp2753
F0.005291005291005291
s(S'Expansion.1'
p2754
Ntp2755
F0.07936507936507936
s(NNtp2756
F0.6772486772486772
s(NS'Comparison.2'
p2757
tp2758
F0.07936507936507936
s(NS'Comparison.1'
p2759
tp2760
F0.031746031746031744
s(S'Expansion.2'
p2761
Ntp2762
F0.037037037037037035
s(NS'Expansion.2'
p2763
tp2764
F0.05291005291005291
s(g2759
Ntp2765
F0.037037037037037035
ssS'apwsE951023.0357-2-2-0.perm-1.txt.pipe'
p2766
(dp2767
sS'apwsE951226.0004-2-2-0.perm-12.txt.pipe'
p2768
(dp2769
(S'Expansion.1'
p2770
Ntp2771
F0.08695652173913043
s(NS'Expansion.2'
p2772
tp2773
F0.9130434782608695
ssS'apwsE951210.0356-2-2-0.perm-13.txt.pipe'
p2774
(dp2775
sS'apwsE951009.0245-2-2-0.perm-11.txt.pipe'
p2776
(dp2777
(S'Expansion.1'
p2778
S'Contingency.1'
p2779
tp2780
F0.0005330490405117271
s(S'.2'
p2781
S'.2'
p2782
tp2783
F0.0031982942430703624
s(S'Comparison.2'
p2784
Ntp2785
F0.006929637526652452
s(S'.1'
p2786
Ntp2787
F0.013859275053304905
s(Ng2784
tp2788
F0.007995735607675906
s(NS'Expansion.1'
p2789
tp2790
F0.023454157782515993
s(S'Comparison.2'
p2791
S'Comparison.2'
p2792
tp2793
F0.0015991471215351812
s(NS'.2'
p2794
tp2795
F0.015991471215351813
s(S'Expansion.1'
p2796
S'Expansion.1'
p2797
tp2798
F0.0026652452025586353
s(NS'Expansion.2'
p2799
tp2800
F0.04477611940298507
s(S'Comparison.1'
p2801
Ntp2802
F0.009594882729211088
s(S'Expansion.2'
p2803
S'.1'
p2804
tp2805
F0.0005330490405117271
s(S'Comparison.2'
p2806
S'Expansion.2'
p2807
tp2808
F0.0021321961620469083
s(NS'Temporal.2'
p2809
tp2810
F0.0021321961620469083
s(g2789
Ntp2811
F0.028784648187633263
s(S'Expansion.2'
p2812
g2797
tp2813
F0.0021321961620469083
s(NS'Temporal.1'
p2814
tp2815
F0.0005330490405117271
s(NNtp2816
F0.7329424307036247
s(Ng2786
tp2817
F0.013326226012793176
s(S'Expansion.2'
p2818
Ntp2819
F0.037846481876332626
s(S'Contingency.2'
p2820
Ntp2821
F0.0031982942430703624
s(NS'Contingency.1'
p2822
tp2823
F0.0037313432835820895
s(S'Expansion.2'
p2824
S'.2'
p2825
tp2826
F0.0015991471215351812
s(g2778
S'Comparison.1'
p2827
tp2828
F0.0005330490405117271
s(g2822
Ntp2829
F0.0042643923240938165
s(Ng2820
tp2830
F0.004797441364605544
s(S'Comparison.2'
p2831
S'Expansion.1'
p2832
tp2833
F0.0005330490405117271
s(S'Contingency.2'
p2834
g2792
tp2835
F0.0015991471215351812
s(S'Expansion.2'
p2836
S'Expansion.2'
p2837
tp2838
F0.005863539445628998
s(Ng2801
tp2839
F0.00906183368869936
s(g2794
Ntp2840
F0.012260127931769723
s(S'Expansion.1'
p2841
g2804
tp2842
F0.0005330490405117271
s(S'Expansion.1'
p2843
S'Comparison.2'
p2844
tp2845
F0.0010660980810234541
ssS'apwsE951018.0170-2-2-0.perm-11.txt.pipe'
p2846
(dp2847
sS'apwsE951108.0165-2-2-0.perm-11.txt.pipe'
p2848
(dp2849
(S'Expansion.1'
p2850
Ntp2851
F0.0603448275862069
s(NS'Expansion.2'
p2852
tp2853
F0.08620689655172414
s(NNtp2854
F0.7327586206896551
s(S'Comparison.1'
p2855
Ntp2856
F0.008620689655172414
s(NS'Comparison.2'
p2857
tp2858
F0.11206896551724138
ssS'apwsE951001.0279-2-2-0.perm-11.txt.pipe'
p2859
(dp2860
(NNtp2861
F0.37209302325581395
s(NS'.2'
p2862
tp2863
F0.4418604651162791
s(S'.1'
p2864
Ntp2865
F0.18604651162790697
ssS'apwsE951024.0005-2-2-0.perm-12.txt.pipe'
p2866
(dp2867
(NS'Expansion.1'
p2868
tp2869
F0.08695652173913043
s(S'Comparison.2'
p2870
Ntp2871
F0.2608695652173913
s(S'Comparison.1'
p2872
S'Expansion.2'
p2873
tp2874
F0.043478260869565216
s(NS'Expansion.2'
p2875
tp2876
F0.17391304347826086
s(NNtp2877
F0.2608695652173913
s(S'Comparison.1'
p2878
Ntp2879
F0.17391304347826086
ssS'apwsE951004.0060-2-2-0.perm-11.txt.pipe'
p2880
(dp2881
(S'Comparison.2'
p2882
Ntp2883
F0.34210526315789475
s(NS'Comparison.1'
p2884
tp2885
F0.3157894736842105
s(S'Comparison.2'
p2886
S'Comparison.2'
p2887
tp2888
F0.07894736842105263
s(S'Comparison.1'
p2889
Ntp2890
F0.13157894736842105
s(NS'Comparison.2'
p2891
tp2892
F0.13157894736842105
ssS'apwsE951009.0226-2-2-0.perm-1.txt.pipe'
p2893
(dp2894
sS'apwsE960303.0090-2-2-0.perm-12.txt.pipe'
p2895
(dp2896
(S'Expansion.1'
p2897
Ntp2898
F0.08571428571428572
s(NS'Comparison.1'
p2899
tp2900
F0.4
s(S'Expansion.2'
p2901
Ntp2902
F0.2571428571428571
s(NS'Comparison.2'
p2903
tp2904
F0.2571428571428571
ssS'apwsE960216.0269-2-2-0.perm-12.txt.pipe'
p2905
(dp2906
(NS'Temporal.2'
p2907
tp2908
F0.07518796992481203
s(S'Temporal.2'
p2909
S'.2'
p2910
tp2911
F0.007518796992481203
s(S'.2'
p2912
Ntp2913
F0.022556390977443608
s(S'.2'
p2914
S'.2'
p2915
tp2916
F0.022556390977443608
s(S'Comparison.2'
p2917
Ntp2918
F0.010025062656641603
s(NS'Temporal.1'
p2919
tp2920
F0.06015037593984962
s(S'.2'
p2921
S'Temporal.1'
p2922
tp2923
F0.005012531328320802
s(S'.1'
p2924
S'.1'
p2925
tp2926
F0.007518796992481203
s(NNtp2927
F0.3609022556390977
s(g2925
Ntp2928
F0.06265664160401002
s(NS'Comparison.2'
p2929
tp2930
F0.010025062656641603
s(S'.1'
p2931
S'Temporal.2'
p2932
tp2933
F0.005012531328320802
s(S'Temporal.1'
p2934
S'Comparison.2'
p2935
tp2936
F0.007518796992481203
s(S'Expansion.2'
p2937
Ntp2938
F0.007518796992481203
s(S'Comparison.1'
p2939
S'.1'
p2940
tp2941
F0.002506265664160401
s(Ng2924
tp2942
F0.05263157894736842
s(S'Expansion.1'
p2943
g2934
tp2944
F0.005012531328320802
s(S'Expansion.1'
p2945
Ntp2946
F0.02506265664160401
s(S'Temporal.1'
p2947
S'.1'
p2948
tp2949
F0.012531328320802004
s(NS'.2'
p2950
tp2951
F0.08270676691729323
s(S'Temporal.2'
p2952
S'.1'
p2953
tp2954
F0.002506265664160401
s(g2921
S'Temporal.2'
p2955
tp2956
F0.002506265664160401
s(g2929
g2910
tp2957
F0.007518796992481203
s(S'Expansion.2'
p2958
S'Temporal.2'
p2959
tp2960
F0.007518796992481203
s(g2907
Ntp2961
F0.047619047619047616
s(NS'Comparison.1'
p2962
tp2963
F0.022556390977443608
s(g2947
S'Comparison.1'
p2964
tp2965
F0.007518796992481203
s(S'Temporal.1'
p2966
Ntp2967
F0.010025062656641603
s(g2931
S'Temporal.1'
p2968
tp2969
F0.005012531328320802
s(Ng2958
tp2970
F0.015037593984962405
s(g2962
Ntp2971
F0.02756892230576441
ssS'apwsE951018.0182-2-2-0.perm-1.txt.pipe'
p2972
(dp2973
sS'apwsE951024.0110-2-2-0.perm-11.txt.pipe'
p2974
(dp2975
(NS'Expansion.1'
p2976
tp2977
F0.057692307692307696
s(S'Comparison.2'
p2978
Ntp2979
F0.11538461538461539
s(S'Comparison.1'
p2980
S'Expansion.2'
p2981
tp2982
F0.019230769230769232
s(NS'Expansion.2'
p2983
tp2984
F0.07692307692307693
s(NNtp2985
F0.6153846153846154
s(S'Comparison.1'
p2986
Ntp2987
F0.09615384615384616
s(S'Comparison.2'
p2988
S'Expansion.1'
p2989
tp2990
F0.019230769230769232
ssS'apwsE951009.0228-2-2-0.perm-10.txt.pipe'
p2991
(dp2992
(S'Contingency.1'
p2993
Ntp2994
F0.0033112582781456954
s(S'Comparison.2'
p2995
Ntp2996
F0.033112582781456956
s(NNtp2997
F0.5695364238410596
s(S'.1'
p2998
Ntp2999
F0.019867549668874173
s(NS'Comparison.2'
p3000
tp3001
F0.029801324503311258
s(S'Contingency.2'
p3002
Ntp3003
F0.019867549668874173
s(Ng2993
tp3004
F0.0033112582781456954
s(NS'Expansion.1'
p3005
tp3006
F0.016556291390728478
s(Ng2998
tp3007
F0.023178807947019868
s(S'.2'
p3008
g2995
tp3009
F0.006622516556291391
s(S'Contingency.2'
p3010
g3008
tp3011
F0.016556291390728478
s(g3000
g3010
tp3012
F0.0033112582781456954
s(g3005
Ntp3013
F0.016556291390728478
s(S'.1'
p3014
S'Comparison.1'
p3015
tp3016
F0.0033112582781456954
s(NS'.2'
p3017
tp3018
F0.033112582781456956
s(NS'Contingency.2'
p3019
tp3020
F0.033112582781456956
s(NS'Comparison.1'
p3021
tp3022
F0.029801324503311258
s(g3017
Ntp3023
F0.04304635761589404
s(NS'Expansion.2'
p3024
tp3025
F0.019867549668874173
s(g3021
Ntp3026
F0.076158940397351
ssS'apwsE950827.0035-2-2-0.perm-13.txt.pipe'
p3027
(dp3028
sS'apwsE950919.0580-2-2-0.perm-11.txt.pipe'
p3029
(dp3030
sS'apwsE951010.0087-2-2-0.perm-11.txt.pipe'
p3031
(dp3032
(S'Comparison.1'
p3033
S'Comparison.1'
p3034
tp3035
F0.0025
s(NS'Temporal.2'
p3036
tp3037
F0.055
s(S'Comparison.2'
p3038
S'Comparison.2'
p3039
tp3040
F0.0075
s(S'Comparison.2'
p3041
Ntp3042
F0.0475
s(g3036
g3041
tp3043
F0.025
s(NNtp3044
F0.645
s(S'Temporal.2'
p3045
Ntp3046
F0.03
s(NS'Comparison.2'
p3047
tp3048
F0.0475
s(NS'Comparison.1'
p3049
tp3050
F0.0475
s(S'Temporal.1'
p3051
Ntp3052
F0.045
s(g3049
Ntp3053
F0.0475
ssS'apwsE951121.0032-2-2-0.perm-11.txt.pipe'
p3054
(dp3055
sS'apwsE951009.0216-2-2-0.perm-12.txt.pipe'
p3056
(dp3057
sS'apwsE960109.0412-0-1.perm-12.txt.pipe'
p3058
(dp3059
sS'apwsE951218.0398-0-1.perm-12.txt.pipe'
p3060
(dp3061
(NS'Comparison.2'
p3062
tp3063
F0.2608695652173913
s(S'Comparison.1'
p3064
S'Comparison.1'
p3065
tp3066
F0.08695652173913043
s(NS'Comparison.1'
p3067
tp3068
F0.17391304347826086
s(S'Comparison.2'
p3069
S'Comparison.1'
p3070
tp3071
F0.043478260869565216
s(S'Comparison.2'
p3072
Ntp3073
F0.34782608695652173
s(S'Comparison.1'
p3074
Ntp3075
F0.08695652173913043
ssS'apwsE951009.0278-2-2-0.perm-13.txt.pipe'
p3076
(dp3077
(S'Expansion.1'
p3078
Ntp3079
F0.04950495049504951
s(NS'Temporal.2'
p3080
tp3081
F0.009900990099009901
s(NS'Temporal.1'
p3082
tp3083
F0.0049504950495049506
s(S'Comparison.2'
p3084
Ntp3085
F0.024752475247524754
s(S'Temporal.2'
p3086
S'Comparison.2'
p3087
tp3088
F0.0024752475247524753
s(NNtp3089
F0.7599009900990099
s(g3080
Ntp3090
F0.007425742574257425
s(NS'Comparison.2'
p3091
tp3092
F0.0049504950495049506
s(g3086
S'Expansion.1'
p3093
tp3094
F0.0024752475247524753
s(NS'Comparison.1'
p3095
tp3096
F0.009900990099009901
s(S'Expansion.2'
p3097
Ntp3098
F0.01485148514851485
s(g3082
Ntp3099
F0.0049504950495049506
s(Ng3078
tp3100
F0.04702970297029703
s(Ng3097
tp3101
F0.039603960396039604
s(S'Comparison.1'
p3102
Ntp3103
F0.017326732673267328
ssS'apwsE960109.0130-2-2-0.perm-12.txt.pipe'
p3104
(dp3105
(S'Expansion.2'
p3106
S'.1'
p3107
tp3108
F0.0009242144177449168
s(S'Contingency.2'
p3109
Ntp3110
F0.006469500924214418
s(S'.2'
p3111
S'.2'
p3112
tp3113
F0.019408502772643253
s(S'Comparison.2'
p3114
Ntp3115
F0.0046210720887245845
s(S'.1'
p3116
S'.1'
p3117
tp3118
F0.0046210720887245845
s(NS'.1'
p3119
tp3120
F0.06377079482439926
s(S'Expansion.2'
p3121
Ntp3122
F0.014787430683918669
s(NS'Contingency.1'
p3123
tp3124
F0.0009242144177449168
s(NS'Expansion.1'
p3125
tp3126
F0.006469500924214418
s(g3119
Ntp3127
F0.06377079482439926
s(S'Expansion.2'
p3128
S'.2'
p3129
tp3130
F0.0027726432532347504
s(S'.2'
p3131
g3117
tp3132
F0.0018484288354898336
s(S'Expansion.1'
p3133
Ntp3134
F0.01756007393715342
s(NS'.2'
p3135
tp3136
F0.08040665434380777
s(Ng3121
tp3137
F0.018484288354898338
s(S'Expansion.2'
p3138
S'Expansion.2'
p3139
tp3140
F0.0009242144177449168
s(S'Comparison.1'
p3141
Ntp3142
F0.006469500924214418
s(g3135
Ntp3143
F0.06746765249537892
s(g3123
g3117
tp3144
F0.0009242144177449168
s(Ng3109
tp3145
F0.006469500924214418
s(NNtp3146
F0.61090573012939
ssS'apwsE951001.0257-2-2-0.perm-11.txt.pipe'
p3147
(dp3148
(S'Expansion.2'
p3149
S'.1'
p3150
tp3151
F0.001256281407035176
s(S'.1'
p3152
S'Expansion.1'
p3153
tp3154
F0.0037688442211055275
s(NS'Temporal.2'
p3155
tp3156
F0.011306532663316583
s(S'Expansion.1'
p3157
S'Expansion.1'
p3158
tp3159
F0.001256281407035176
s(S'.2'
p3160
S'.2'
p3161
tp3162
F0.002512562814070352
s(S'Expansion.2'
p3163
S'Expansion.1'
p3164
tp3165
F0.001256281407035176
s(NS'Temporal.1'
p3166
tp3167
F0.010050251256281407
s(NNtp3168
F0.5841708542713567
s(S'.1'
p3169
Ntp3170
F0.0364321608040201
s(S'.2'
p3171
S'Expansion.1'
p3172
tp3173
F0.002512562814070352
s(S'Expansion.2'
p3174
Ntp3175
F0.04522613065326633
s(NS'Expansion.1'
p3176
tp3177
F0.035175879396984924
s(Ng3169
tp3178
F0.02763819095477387
s(S'Expansion.2'
p3179
S'.2'
p3180
tp3181
F0.005025125628140704
s(S'.2'
p3182
g3150
tp3183
F0.001256281407035176
s(S'Expansion.1'
p3184
Ntp3185
F0.04271356783919598
s(S'Expansion.1'
p3186
g3150
tp3187
F0.001256281407035176
s(NS'.2'
p3188
tp3189
F0.05150753768844221
s(S'Temporal.2'
p3190
Ntp3191
F0.00628140703517588
s(g3172
S'Temporal.2'
p3192
tp3193
F0.001256281407035176
s(S'.2'
p3194
S'Expansion.2'
p3195
tp3196
F0.007537688442211055
s(S'Expansion.2'
p3197
S'Expansion.2'
p3198
tp3199
F0.010050251256281407
s(S'.2'
p3200
Ntp3201
F0.02763819095477387
s(g3166
Ntp3202
F0.010050251256281407
s(g3192
S'Expansion.2'
p3203
tp3204
F0.00628140703517588
s(Ng3174
tp3205
F0.06658291457286432
ssS'apwsE960207.0124-2-2-0.perm-11.txt.pipe'
p3206
(dp3207
sS'apwsE960109.0412-0-1.perm-13.txt.pipe'
p3208
(dp3209
sS'apwsE951218.0398-0-1.perm-11.txt.pipe'
p3210
(dp3211
sS'apwsE951003.0004-2-2-0.perm-10.txt.pipe'
p3212
(dp3213
(S'Expansion.1'
p3214
Ntp3215
F0.05357142857142857
s(NS'.2'
p3216
tp3217
F0.08482142857142858
s(S'.2'
p3218
S'.2'
p3219
tp3220
F0.022321428571428572
s(S'.1'
p3221
S'.1'
p3222
tp3223
F0.008928571428571428
s(NNtp3224
F0.6428571428571429
s(NS'.1'
p3225
tp3226
F0.017857142857142856
s(S'.2'
p3227
Ntp3228
F0.022321428571428572
s(g3222
Ntp3229
F0.044642857142857144
s(NS'Expansion.2'
p3230
tp3231
F0.10267857142857142
ssS'apwsE950928.0080-0-1.perm-10.txt.pipe'
p3232
(dp3233
sS'apwsE950914.0071-0-1.perm-10.txt.pipe'
p3234
(dp3235
sS'apwsE951106.0072-2-2-0.perm-12.txt.pipe'
p3236
(dp3237
sS'apwsE951122.0012-0-1.perm-10.txt.pipe'
p3238
(dp3239
(S'Expansion.1'
p3240
Ntp3241
F0.125
s(NS'Comparison.1'
p3242
tp3243
F0.16666666666666666
s(S'Expansion.2'
p3244
Ntp3245
F0.20833333333333334
s(NS'Comparison.2'
p3246
tp3247
F0.10416666666666667
s(NS'Expansion.1'
p3248
tp3249
F0.08333333333333333
s(NS'Expansion.2'
p3250
tp3251
F0.125
s(NNtp3252
F0.1875
ssS'apwsE951020.0432-2-2-0.perm-10.txt.pipe'
p3253
(dp3254
(S'.1'
p3255
S'Expansion.1'
p3256
tp3257
F0.0018450184501845018
s(S'Expansion.1'
p3258
S'Expansion.1'
p3259
tp3260
F0.005535055350553505
s(S'.2'
p3261
S'.2'
p3262
tp3263
F0.0036900369003690036
s(S'Comparison.2'
p3264
Ntp3265
F0.007380073800738007
s(NNtp3266
F0.6346863468634686
s(S'.1'
p3267
Ntp3268
F0.016605166051660517
s(NS'Comparison.2'
p3269
tp3270
F0.007380073800738007
s(S'.2'
p3271
g3256
tp3272
F0.0018450184501845018
s(S'Expansion.2'
p3273
Ntp3274
F0.027675276752767528
s(NS'Expansion.1'
p3275
tp3276
F0.03505535055350553
s(Ng3267
tp3277
F0.01107011070110701
s(S'Comparison.2'
p3278
S'Expansion.2'
p3279
tp3280
F0.0036900369003690036
s(S'Expansion.1'
p3281
Ntp3282
F0.055350553505535055
s(S'Comparison.1'
p3283
g3259
tp3284
F0.0036900369003690036
s(NS'.2'
p3285
tp3286
F0.03690036900369004
s(g3285
S'Expansion.2'
p3287
tp3288
F0.005535055350553505
s(S'Expansion.2'
p3289
S'Expansion.2'
p3290
tp3291
F0.01845018450184502
s(NS'Comparison.1'
p3292
tp3293
F0.00922509225092251
s(S'.2'
p3294
Ntp3295
F0.02952029520295203
s(Ng3273
tp3296
F0.07380073800738007
s(S'Expansion.1'
p3297
S'Comparison.2'
p3298
tp3299
F0.0018450184501845018
s(S'Comparison.1'
p3300
Ntp3301
F0.00922509225092251
ssS'apwsE950928.0080-0-1.perm-1.txt.pipe'
p3302
(dp3303
sS'apwsE960313.0061-2-2-0.perm-12.txt.pipe'
p3304
(dp3305
(NS'Temporal.1'
p3306
tp3307
F0.12244897959183673
s(S'Comparison.1'
p3308
S'Temporal.2'
p3309
tp3310
F0.04081632653061224
s(NS'Temporal.2'
p3311
tp3312
F0.2857142857142857
s(S'Comparison.2'
p3313
S'Temporal.2'
p3314
tp3315
F0.04081632653061224
s(S'Comparison.2'
p3316
Ntp3317
F0.12244897959183673
s(NNtp3318
F0.20408163265306123
s(S'Comparison.1'
p3319
Ntp3320
F0.1836734693877551
ssS'apwsE950822.0071-0-1.perm-11.txt.pipe'
p3321
(dp3322
sS'apwsE951122.0004-0-1.perm-12.txt.pipe'
p3323
(dp3324
sS'apwsE951023.0357-2-2-0.perm-10.txt.pipe'
p3325
(dp3326
sS'apwsE951122.0012-0-1.perm-1.txt.pipe'
p3327
(dp3328
sS'apwsE950919.0564-2-2-0.perm-1.txt.pipe'
p3329
(dp3330
sS'apwsE951001.0257-2-2-0.perm-10.txt.pipe'
p3331
(dp3332
sS'apwsE951009.0228-2-2-0.perm-1.txt.pipe'
p3333
(dp3334
(S'Expansion.2'
p3335
S'.1'
p3336
tp3337
F0.0012706480304955528
s(S'.1'
p3338
S'Contingency.1'
p3339
tp3340
F0.0012706480304955528
s(S'Comparison.2'
p3341
S'Comparison.2'
p3342
tp3343
F0.0012706480304955528
s(S'.2'
p3344
S'.2'
p3345
tp3346
F0.007623888182973317
s(g3342
Ntp3347
F0.011435832274459974
s(S'.1'
p3348
g3336
tp3349
F0.0025412960609911056
s(NNtp3350
F0.6162642947903431
s(S'.1'
p3351
Ntp3352
F0.036848792884371026
s(Ng3341
tp3353
F0.011435832274459974
s(S'Expansion.2'
p3354
Ntp3355
F0.022871664548919948
s(NS'Contingency.1'
p3356
tp3357
F0.010165184243964422
s(S'Contingency.2'
p3358
Ntp3359
F0.010165184243964422
s(NS'Expansion.1'
p3360
tp3361
F0.022871664548919948
s(Ng3351
tp3362
F0.036848792884371026
s(S'Expansion.2'
p3363
g3344
tp3364
F0.0025412960609911056
s(g3356
Ntp3365
F0.011435832274459974
s(NS'.2'
p3366
tp3367
F0.06480304955527319
s(S'.2'
p3368
S'Contingency.2'
p3369
tp3370
F0.0012706480304955528
s(Ng3358
tp3371
F0.010165184243964422
s(g3360
Ntp3372
F0.022871664548919948
s(g3366
g3354
tp3373
F0.0038119440914866584
s(S'Contingency.2'
p3374
g3342
tp3375
F0.0012706480304955528
s(NS'Comparison.1'
p3376
tp3377
F0.008894536213468869
s(S'.2'
p3378
Ntp3379
F0.048284625158831
s(NS'Expansion.2'
p3380
tp3381
F0.022871664548919948
s(g3376
Ntp3382
F0.008894536213468869
ssS'apwsE951009.0226-2-2-0.perm-13.txt.pipe'
p3383
(dp3384
sS'apwsE960313.0061-2-2-0.perm-13.txt.pipe'
p3385
(dp3386
(NS'Contingency.1'
p3387
tp3388
F0.02127659574468085
s(S'Comparison.2'
p3389
Ntp3390
F0.14893617021276595
s(NS'Contingency.2'
p3391
tp3392
F0.2127659574468085
s(NNtp3393
F0.3617021276595745
s(S'Comparison.1'
p3394
Ntp3395
F0.23404255319148937
s(S'Comparison.2'
p3396
S'Contingency.1'
p3397
tp3398
F0.02127659574468085
ssS'apwsE950822.0071-0-1.perm-13.txt.pipe'
p3399
(dp3400
sS'apwsE960313.0250-0-1.perm-1.txt.pipe'
p3401
(dp3402
sS'apwsE951001.0242-2-2-0.perm-11.txt.pipe'
p3403
(dp3404
sS'apwsE950919.0594-2-2-0.perm-10.txt.pipe'
p3405
(dp3406
sS'apwsE960221.0036-0-1.perm-10.txt.pipe'
p3407
(dp3408
sS'apwsE960313.0026-2-2-0.perm-11.txt.pipe'
p3409
(dp3410
sS'apwsE960214.0448-2-2-0.perm-12.txt.pipe'
p3411
(dp3412
sS'apwsE951020.0432-2-2-0.perm-13.txt.pipe'
p3413
(dp3414
(S'Expansion.1'
p3415
S'Comparison.1'
p3416
tp3417
F0.0012903225806451613
s(S'.1'
p3418
g3415
tp3419
F0.0012903225806451613
s(g3415
S'Expansion.1'
p3420
tp3421
F0.0012903225806451613
s(S'Comparison.2'
p3422
Ntp3423
F0.00903225806451613
s(NNtp3424
F0.6438709677419355
s(S'.1'
p3425
Ntp3426
F0.01032258064516129
s(Ng3422
tp3427
F0.04
s(Ng3425
tp3428
F0.011612903225806452
s(NS'Contingency.1'
p3429
tp3430
F0.003870967741935484
s(NS'Expansion.1'
p3431
tp3432
F0.027096774193548386
s(S'Expansion.2'
p3433
S'Comparison.1'
p3434
tp3435
F0.0012903225806451613
s(S'Comparison.2'
p3436
S'Expansion.2'
p3437
tp3438
F0.005161290322580645
s(g3431
Ntp3439
F0.04774193548387097
s(S'Expansion.2'
p3440
Ntp3441
F0.05548387096774193
s(NS'.2'
p3442
tp3443
F0.011612903225806452
s(NS'Contingency.2'
p3444
tp3445
F0.003870967741935484
s(S'.2'
p3446
S'Expansion.2'
p3447
tp3448
F0.0025806451612903226
s(S'Expansion.2'
p3449
g3437
tp3450
F0.005161290322580645
s(NS'Comparison.1'
p3451
tp3452
F0.024516129032258065
s(g3442
Ntp3453
F0.00903225806451613
s(Ng3440
tp3454
F0.06838709677419355
s(g3451
Ntp3455
F0.015483870967741935
ssS'apwsE950331.0603-0-1.perm-11.txt.pipe'
p3456
(dp3457
sS'apwsE951210.0051-2-2-0.perm-1.txt.pipe'
p3458
(dp3459
sS'apwsE951221.0049-2-2-0.perm-1.txt.pipe'
p3460
(dp3461
sS'apwsE960207.0018-2-2-0.perm-12.txt.pipe'
p3462
(dp3463
(S'Expansion.1'
p3464
S'Comparison.1'
p3465
tp3466
F0.06060606060606061
s(S'Expansion.1'
p3467
Ntp3468
F0.3333333333333333
s(S'Comparison.2'
p3469
g3465
tp3470
F0.06060606060606061
s(S'Comparison.2'
p3471
Ntp3472
F0.06060606060606061
s(NS'Comparison.2'
p3473
tp3474
F0.030303030303030304
s(NS'Comparison.1'
p3475
tp3476
F0.09090909090909091
s(NS'Expansion.2'
p3477
tp3478
F0.15151515151515152
s(S'Comparison.2'
p3479
S'Expansion.2'
p3480
tp3481
F0.06060606060606061
s(S'Comparison.1'
p3482
Ntp3483
F0.15151515151515152
ssS'apwsE950112.0297-0-1.perm-11.txt.pipe'
p3484
(dp3485
sS'apwsE960221.0036-0-1.perm-11.txt.pipe'
p3486
(dp3487
sS'apwsE951009.0278-2-2-0.perm-12.txt.pipe'
p3488
(dp3489
(S'Expansion.1'
p3490
Ntp3491
F0.0625
s(NS'Temporal.2'
p3492
tp3493
F0.011029411764705883
s(NS'Temporal.1'
p3494
tp3495
F0.003676470588235294
s(S'Expansion.2'
p3496
S'Expansion.1'
p3497
tp3498
F0.003676470588235294
s(g3496
S'Temporal.2'
p3499
tp3500
F0.003676470588235294
s(NNtp3501
F0.7536764705882353
s(g3492
Ntp3502
F0.011029411764705883
s(S'Expansion.2'
p3503
Ntp3504
F0.05514705882352941
s(g3494
Ntp3505
F0.003676470588235294
s(NS'Expansion.1'
p3506
tp3507
F0.029411764705882353
s(S'Temporal.2'
p3508
S'Expansion.2'
p3509
tp3510
F0.003676470588235294
s(NS'Expansion.2'
p3511
tp3512
F0.058823529411764705
ssS'apwsE950119.0186-0-1.perm-10.txt.pipe'
p3513
(dp3514
sS'apwsE950112.0297-0-1.perm-12.txt.pipe'
p3515
(dp3516
sS'apwsE951001.0242-2-2-0.perm-1.txt.pipe'
p3517
(dp3518
sS'apwsE950928.0094-0-1.perm-12.txt.pipe'
p3519
(dp3520
sS'apwsE951024.0123-2-2-0.perm-10.txt.pipe'
p3521
(dp3522
(S'Comparison.2'
p3523
Ntp3524
F0.09615384615384616
s(NS'Expansion.2'
p3525
tp3526
F0.057692307692307696
s(NNtp3527
F0.6153846153846154
s(S'Comparison.1'
p3528
Ntp3529
F0.15384615384615385
s(NS'Expansion.1'
p3530
tp3531
F0.07692307692307693
ssS'apwsE951018.0070-2-2-0.perm-13.txt.pipe'
p3532
(dp3533
sS'apwsE951020.0430-2-2-0.perm-11.txt.pipe'
p3534
(dp3535
(S'Comparison.2'
p3536
S'Expansion.2'
p3537
tp3538
F0.014285714285714285
s(S'Expansion.1'
p3539
Ntp3540
F0.11428571428571428
s(S'Comparison.2'
p3541
Ntp3542
F0.02857142857142857
s(NNtp3543
F0.5285714285714286
s(NS'Comparison.2'
p3544
tp3545
F0.03571428571428571
s(NS'Comparison.1'
p3546
tp3547
F0.05714285714285714
s(NS'Expansion.2'
p3548
tp3549
F0.16428571428571428
s(S'Comparison.1'
p3550
Ntp3551
F0.05714285714285714
ssS'apwsE951122.0012-0-1.perm-12.txt.pipe'
p3552
(dp3553
sS'apwsE960313.0024-2-2-0.perm-12.txt.pipe'
p3554
(dp3555
sS'apwsE960207.0124-2-2-0.perm-10.txt.pipe'
p3556
(dp3557
sS'apwsE960203.0270-2-2-0.perm-13.txt.pipe'
p3558
(dp3559
(S'Expansion.1'
p3560
Ntp3561
F0.15
s(S'Expansion.2'
p3562
Ntp3563
F0.06
s(S'Expansion.1'
p3564
S'Expansion.2'
p3565
tp3566
F0.01
s(NS'Expansion.1'
p3567
tp3568
F0.05
s(NS'Expansion.2'
p3569
tp3570
F0.11
s(NNtp3571
F0.62
ssS'apwsE951024.0020-2-2-0.perm-12.txt.pipe'
p3572
(dp3573
(S'Expansion.1'
p3574
Ntp3575
F0.11428571428571428
s(NS'Comparison.1'
p3576
tp3577
F0.11428571428571428
s(S'Expansion.2'
p3578
Ntp3579
F0.05714285714285714
s(NS'Comparison.2'
p3580
tp3581
F0.2
s(S'Expansion.2'
p3582
S'Comparison.1'
p3583
tp3584
F0.02857142857142857
s(NNtp3585
F0.4857142857142857
ssS'apwsE960313.0061-2-2-0.perm-10.txt.pipe'
p3586
(dp3587
sS'apwsE960206.0441-2-2-0.perm-13.txt.pipe'
p3588
(dp3589
sS'apwsE951018.0182-2-2-0.perm-11.txt.pipe'
p3590
(dp3591
sS'apwsE960206.0441-2-2-0.perm-11.txt.pipe'
p3592
(dp3593
sS'apwsE950905.0546-2-2-0.perm-13.txt.pipe'
p3594
(dp3595
sS'apwsE960106.0047-2-2-0.perm-11.txt.pipe'
p3596
(dp3597
sS'apwsE950620.0596-0-1.perm-3.txt.pipe'
p3598
(dp3599
sS'apwsE951226.0004-2-2-0.perm-1.txt.pipe'
p3600
(dp3601
(S'Expansion.1'
p3602
Ntp3603
F0.4
s(NS'Expansion.2'
p3604
tp3605
F0.6
ssS'apwsE951106.0072-2-2-0.perm-1.txt.pipe'
p3606
(dp3607
sS'apwsE950914.0071-0-1.perm-1.txt.pipe'
p3608
(dp3609
sS'apwsE951009.0244-2-2-0.perm-11.txt.pipe'
p3610
(dp3611
(S'Contingency.1'
p3612
S'Expansion.1'
p3613
tp3614
F0.002207505518763797
s(S'.2'
p3615
S'.2'
p3616
tp3617
F0.006622516556291391
s(S'Comparison.2'
p3618
Ntp3619
F0.026490066225165563
s(NNtp3620
F0.6578366445916115
s(NS'.1'
p3621
tp3622
F0.037527593818984545
s(NS'Comparison.2'
p3623
tp3624
F0.008830022075055188
s(S'Expansion.2'
p3625
Ntp3626
F0.02207505518763797
s(S'Contingency.2'
p3627
Ntp3628
F0.019867549668874173
s(NS'Expansion.1'
p3629
tp3630
F0.008830022075055188
s(g3621
Ntp3631
F0.037527593818984545
s(S'Expansion.2'
p3632
S'.2'
p3633
tp3634
F0.004415011037527594
s(S'Contingency.1'
p3635
Ntp3636
F0.01545253863134658
s(NS'.2'
p3637
tp3638
F0.04856512141280353
s(S'Expansion.1'
p3639
Ntp3640
F0.002207505518763797
s(g3637
Ntp3641
F0.019867549668874173
s(Ng3625
tp3642
F0.05518763796909492
s(S'Comparison.2'
p3643
g3613
tp3644
F0.002207505518763797
s(S'Comparison.1'
p3645
Ntp3646
F0.024282560706401765
ssS'apwsE951003.0485-2-2-0.perm-12.txt.pipe'
p3647
(dp3648
sS'apwsE960108.0238-2-2-0.perm-10.txt.pipe'
p3649
(dp3650
(S'.1'
p3651
S'Expansion.1'
p3652
tp3653
F0.0033222591362126247
s(S'.2'
p3654
S'.2'
p3655
tp3656
F0.019933554817275746
s(NNtp3657
F0.38205980066445183
s(NS'.1'
p3658
tp3659
F0.10631229235880399
s(S'.2'
p3660
g3652
tp3661
F0.0033222591362126247
s(S'Expansion.2'
p3662
Ntp3663
F0.046511627906976744
s(NS'Expansion.1'
p3664
tp3665
F0.016611295681063124
s(g3658
Ntp3666
F0.12624584717607973
s(S'Expansion.2'
p3667
S'.2'
p3668
tp3669
F0.013289036544850499
s(S'.2'
p3670
S'.1'
p3671
tp3672
F0.0033222591362126247
s(g3664
Ntp3673
F0.016611295681063124
s(NS'.2'
p3674
tp3675
F0.10963455149501661
s(g3655
S'Expansion.2'
p3676
tp3677
F0.006644518272425249
s(g3674
Ntp3678
F0.08970099667774087
s(g3652
S'.1'
p3679
tp3680
F0.0033222591362126247
s(Ng3662
tp3681
F0.053156146179401995
ssS'apwsE951024.0110-2-2-0.perm-10.txt.pipe'
p3682
(dp3683
(S'Expansion.1'
p3684
Ntp3685
F0.038461538461538464
s(S'Comparison.1'
p3686
S'Expansion.1'
p3687
tp3688
F0.009615384615384616
s(S'Comparison.2'
p3689
Ntp3690
F0.08653846153846154
s(NNtp3691
F0.5576923076923077
s(NS'Comparison.2'
p3692
tp3693
F0.04807692307692308
s(NS'Comparison.1'
p3694
tp3695
F0.0673076923076923
s(S'Expansion.2'
p3696
Ntp3697
F0.038461538461538464
s(Ng3684
tp3698
F0.028846153846153848
s(S'Expansion.2'
p3699
S'Comparison.1'
p3700
tp3701
F0.009615384615384616
s(Ng3696
tp3702
F0.04807692307692308
s(S'Comparison.1'
p3703
Ntp3704
F0.0673076923076923
ssS'apwsE960221.0036-0-1.perm-1.txt.pipe'
p3705
(dp3706
sS'apwsE960108.0238-2-2-0.perm-13.txt.pipe'
p3707
(dp3708
(S'Expansion.2'
p3709
S'.1'
p3710
tp3711
F0.0019305019305019305
s(S'.2'
p3712
S'.2'
p3713
tp3714
F0.023166023166023165
s(S'.1'
p3715
S'.1'
p3716
tp3717
F0.009652509652509652
s(NS'.1'
p3718
tp3719
F0.07335907335907337
s(S'Expansion.2'
p3720
Ntp3721
F0.007722007722007722
s(NS'Expansion.1'
p3722
tp3723
F0.009652509652509652
s(g3718
Ntp3724
F0.09845559845559845
s(S'Expansion.2'
p3725
S'.2'
p3726
tp3727
F0.007722007722007722
s(S'.2'
p3728
S'.1'
p3729
tp3730
F0.005791505791505791
s(g3722
Ntp3731
F0.005791505791505791
s(NS'.2'
p3732
tp3733
F0.10424710424710425
s(S'.2'
p3734
g3720
tp3735
F0.003861003861003861
s(g3732
Ntp3736
F0.08687258687258688
s(S'Expansion.1'
p3737
g3729
tp3738
F0.003861003861003861
s(Ng3725
tp3739
F0.013513513513513514
s(NNtp3740
F0.5444015444015444
ssS'apwsE951121.0037-2-2-0.perm-11.txt.pipe'
p3741
(dp3742
(S'Comparison.2'
p3743
S'Comparison.2'
p3744
tp3745
F0.024096385542168676
s(NS'.2'
p3746
tp3747
F0.08433734939759036
s(S'Comparison.2'
p3748
Ntp3749
F0.1566265060240964
s(NNtp3750
F0.39759036144578314
s(NS'.1'
p3751
tp3752
F0.05421686746987952
s(Ng3748
tp3753
F0.10843373493975904
s(S'Comparison.2'
p3754
S'.1'
p3755
tp3756
F0.018072289156626505
s(g3751
Ntp3757
F0.07228915662650602
s(S'Comparison.1'
p3758
Ntp3759
F0.08433734939759036
ssS'apwsE950919.0564-2-2-0.perm-12.txt.pipe'
p3760
(dp3761
(S'Expansion.1'
p3762
Ntp3763
F0.043478260869565216
s(S'Expansion.1'
p3764
S'Contingency.1'
p3765
tp3766
F0.021739130434782608
s(S'Expansion.2'
p3767
Ntp3768
F0.2391304347826087
s(NS'Contingency.1'
p3769
tp3770
F0.08695652173913043
s(NS'Contingency.2'
p3771
tp3772
F0.10869565217391304
s(NNtp3773
F0.5
ssS'apwsE951024.0072-2-2-0.perm-1.txt.pipe'
p3774
(dp3775
(S'Comparison.1'
p3776
S'Comparison.1'
p3777
tp3778
F0.03125
s(S'Comparison.2'
p3779
S'Comparison.2'
p3780
tp3781
F0.010416666666666666
s(S'Comparison.2'
p3782
S'Comparison.1'
p3783
tp3784
F0.010416666666666666
s(S'Comparison.2'
p3785
Ntp3786
F0.14583333333333334
s(NNtp3787
F0.4791666666666667
s(Ng3785
tp3788
F0.10416666666666667
s(NS'Comparison.1'
p3789
tp3790
F0.10416666666666667
s(S'Comparison.1'
p3791
S'Comparison.2'
p3792
tp3793
F0.010416666666666666
s(S'Comparison.1'
p3794
Ntp3795
F0.10416666666666667
ssS'apwsE951001.0302-2-2-0.perm-13.txt.pipe'
p3796
(dp3797
(S'Comparison.2'
p3798
S'Expansion.2'
p3799
tp3800
F0.003105590062111801
s(S'Expansion.1'
p3801
Ntp3802
F0.037267080745341616
s(S'Comparison.2'
p3803
Ntp3804
F0.006211180124223602
s(NNtp3805
F0.7888198757763976
s(Ng3803
tp3806
F0.009316770186335404
s(NS'Comparison.1'
p3807
tp3808
F0.034161490683229816
s(NS'Expansion.1'
p3809
tp3810
F0.003105590062111801
s(NS'Expansion.2'
p3811
tp3812
F0.08385093167701864
s(g3807
Ntp3813
F0.034161490683229816
ssS'apwsE960108.0194-2-2-0.perm-13.txt.pipe'
p3814
(dp3815
sS'apwsE950424.0128-0-1.perm-13.txt.pipe'
p3816
(dp3817
sS'apwsE951121.0037-2-2-0.perm-13.txt.pipe'
p3818
(dp3819
(S'Comparison.2'
p3820
S'Comparison.2'
p3821
tp3822
F0.024096385542168676
s(NS'.2'
p3823
tp3824
F0.12048192771084337
s(S'Comparison.2'
p3825
Ntp3826
F0.1746987951807229
s(NNtp3827
F0.41566265060240964
s(NS'.1'
p3828
tp3829
F0.03614457831325301
s(Ng3825
tp3830
F0.10843373493975904
s(g3828
Ntp3831
F0.03614457831325301
s(S'Comparison.1'
p3832
Ntp3833
F0.08433734939759036
ssS'apwsE960313.0250-0-1.perm-10.txt.pipe'
p3834
(dp3835
sS'apwsE960108.0194-2-2-0.perm-10.txt.pipe'
p3836
(dp3837
sS'apwsE951216.0211-2-2-0.perm-12.txt.pipe'
p3838
(dp3839
sS'apwsE960206.0441-2-2-0.perm-12.txt.pipe'
p3840
(dp3841
sS'apwsE950928.0080-0-1.perm-12.txt.pipe'
p3842
(dp3843
sS'apwsE960207.0018-2-2-0.perm-10.txt.pipe'
p3844
(dp3845
(S'Expansion.1'
p3846
Ntp3847
F0.2894736842105263
s(NS'Comparison.2'
p3848
tp3849
F0.02631578947368421
s(NS'Expansion.2'
p3850
tp3851
F0.34210526315789475
s(NS'Comparison.1'
p3852
tp3853
F0.13157894736842105
s(NNtp3854
F0.21052631578947367
ssS'apwsE951215.0060-2-2-0.perm-1.txt.pipe'
p3855
(dp3856
sS'apwsE951203.0078-2-2-0.perm-10.txt.pipe'
p3857
(dp3858
sS'apwsE950925.0091-0-1.perm-11.txt.pipe'
p3859
(dp3860
(S'Expansion.1'
p3861
Ntp3862
F0.4090909090909091
s(NS'Expansion.2'
p3863
tp3864
F0.5909090909090909
ssS'apwsE951101.0026-0-1.perm-1.txt.pipe'
p3865
(dp3866
sS'apwsE960203.0270-2-2-0.perm-10.txt.pipe'
p3867
(dp3868
(S'Expansion.1'
p3869
Ntp3870
F0.24489795918367346
s(NS'Expansion.2'
p3871
tp3872
F0.061224489795918366
s(NNtp3873
F0.6938775510204082
ssS'apwsE960207.0488-2-2-0.perm-12.txt.pipe'
p3874
(dp3875
(S'Expansion.1'
p3876
S'Expansion.2'
p3877
tp3878
F0.08333333333333333
s(NS'Expansion.1'
p3879
tp3880
F0.20833333333333334
s(NS'Expansion.2'
p3881
tp3882
F0.5
s(S'Expansion.1'
p3883
Ntp3884
F0.20833333333333334
ssS'apwsE951009.0305-2-2-0.perm-10.txt.pipe'
p3885
(dp3886
(NS'Temporal.2'
p3887
tp3888
F0.009456264775413711
s(S'Expansion.2'
p3889
Ntp3890
F0.004728132387706856
s(S'Expansion.1'
p3891
Ntp3892
F0.0425531914893617
s(S'Comparison.2'
p3893
Ntp3894
F0.037825059101654845
s(S'Expansion.2'
p3895
S'Expansion.1'
p3896
tp3897
F0.002364066193853428
s(S'Comparison.1'
p3898
g3895
tp3899
F0.002364066193853428
s(NNtp3900
F0.6595744680851063
s(NS'Comparison.2'
p3901
tp3902
F0.016548463356973995
s(S'Contingency.2'
p3903
Ntp3904
F0.02127659574468085
s(NS'Expansion.1'
p3905
tp3906
F0.03309692671394799
s(S'Comparison.2'
p3907
S'Expansion.2'
p3908
tp3909
F0.002364066193853428
s(S'Contingency.1'
p3910
Ntp3911
F0.018912529550827423
s(S'Temporal.2'
p3912
S'Comparison.2'
p3913
tp3914
F0.002364066193853428
s(g3887
Ntp3915
F0.0070921985815602835
s(S'Expansion.2'
p3916
g3908
tp3917
F0.002364066193853428
s(NS'Comparison.1'
p3918
tp3919
F0.01182033096926714
s(S'Temporal.1'
p3920
Ntp3921
F0.002364066193853428
s(NS'Expansion.2'
p3922
tp3923
F0.08983451536643026
s(S'Comparison.1'
p3924
Ntp3925
F0.030732860520094562
s(Ng3920
tp3926
F0.002364066193853428
ssS'apwsE950914.0071-0-1.perm-13.txt.pipe'
p3927
(dp3928
sS'apwsE951210.0051-2-2-0.perm-10.txt.pipe'
p3929
(dp3930
sS'apwsE960303.0079-2-2-0.perm-10.txt.pipe'
p3931
(dp3932
sS'apwsE950827.0035-2-2-0.perm-10.txt.pipe'
p3933
(dp3934
(S'Contingency.1'
p3935
S'Comparison.1'
p3936
tp3937
F0.02702702702702703
s(S'Contingency.1'
p3938
Ntp3939
F0.02702702702702703
s(NS'Temporal.2'
p3940
tp3941
F0.16216216216216217
s(NS'Temporal.1'
p3942
tp3943
F0.08108108108108109
s(S'Contingency.2'
p3944
S'Temporal.2'
p3945
tp3946
F0.02702702702702703
s(g3935
S'Temporal.1'
p3947
tp3948
F0.02702702702702703
s(NS'Comparison.2'
p3949
tp3950
F0.16216216216216217
s(NS'Comparison.1'
p3951
tp3952
F0.16216216216216217
s(S'Contingency.2'
p3953
Ntp3954
F0.2702702702702703
s(g3944
S'Comparison.1'
p3955
tp3956
F0.02702702702702703
s(S'Contingency.1'
p3957
S'Comparison.2'
p3958
tp3959
F0.02702702702702703
ssS'apwsE951221.0001-0-1.perm-13.txt.pipe'
p3960
(dp3961
(NS'Comparison.2'
p3962
tp3963
F0.2608695652173913
s(S'Comparison.1'
p3964
S'Comparison.1'
p3965
tp3966
F0.08695652173913043
s(NS'Comparison.1'
p3967
tp3968
F0.17391304347826086
s(S'Comparison.2'
p3969
S'Comparison.1'
p3970
tp3971
F0.043478260869565216
s(S'Comparison.2'
p3972
Ntp3973
F0.34782608695652173
s(S'Comparison.1'
p3974
Ntp3975
F0.08695652173913043
ssS'apwsE951018.0170-2-2-0.perm-10.txt.pipe'
p3976
(dp3977
sS'apwsE960216.0241-2-2-0.perm-10.txt.pipe'
p3978
(dp3979
sS'apwsE951108.0165-2-2-0.perm-10.txt.pipe'
p3980
(dp3981
(S'Expansion.1'
p3982
Ntp3983
F0.1440677966101695
s(S'Expansion.2'
p3984
S'Expansion.2'
p3985
tp3986
F0.025423728813559324
s(S'Expansion.2'
p3987
Ntp3988
F0.03389830508474576
s(NS'Comparison.2'
p3989
tp3990
F0.11016949152542373
s(NS'Expansion.2'
p3991
tp3992
F0.0847457627118644
s(NNtp3993
F0.5932203389830508
s(S'Comparison.1'
p3994
Ntp3995
F0.00847457627118644
ssS'apwsE951023.0362-2-2-0.perm-1.txt.pipe'
p3996
(dp3997
sS'apwsE950213.0175-0-1.perm-13.txt.pipe'
p3998
(dp3999
sS'apwsE960313.0061-2-2-0.perm-11.txt.pipe'
p4000
(dp4001
sS'apwsE960313.0024-2-2-0.perm-11.txt.pipe'
p4002
(dp4003
sS'apwsE960106.0047-2-2-0.perm-12.txt.pipe'
p4004
(dp4005
sS'apwsE950213.0175-0-1.perm-10.txt.pipe'
p4006
(dp4007
sS'apwsE951001.0302-2-2-0.perm-12.txt.pipe'
p4008
(dp4009
(S'Expansion.2'
p4010
S'.1'
p4011
tp4012
F0.0024009603841536613
s(g4010
S'Temporal.1'
p4013
tp4014
F0.0024009603841536613
s(S'.1'
p4015
S'Expansion.1'
p4016
tp4017
F0.0012004801920768306
s(NS'Temporal.2'
p4018
tp4019
F0.012004801920768308
s(S'Temporal.2'
p4020
S'.2'
p4021
tp4022
F0.006002400960384154
s(S'.2'
p4023
S'.2'
p4024
tp4025
F0.01920768307322929
s(NS'Temporal.1'
p4026
tp4027
F0.007202881152460984
s(S'.1'
p4028
S'.1'
p4029
tp4030
F0.009603841536614645
s(g4029
Ntp4031
F0.04801920768307323
s(S'Expansion.2'
p4032
Ntp4033
F0.024009603841536616
s(NS'Expansion.1'
p4034
tp4035
F0.01920768307322929
s(Ng4028
tp4036
F0.03481392557022809
s(S'Expansion.2'
p4037
S'.2'
p4038
tp4039
F0.0012004801920768306
s(S'.2'
p4040
g4029
tp4041
F0.007202881152460984
s(S'Expansion.1'
p4042
S'Expansion.1'
p4043
tp4044
F0.0024009603841536613
s(g4034
Ntp4045
F0.025210084033613446
s(g4026
g4029
tp4046
F0.006002400960384154
s(NS'.2'
p4047
tp4048
F0.057623049219687875
s(S'Temporal.2'
p4049
S'.1'
p4050
tp4051
F0.0012004801920768306
s(g4018
Ntp4052
F0.006002400960384154
s(S'.2'
p4053
S'Expansion.2'
p4054
tp4055
F0.0024009603841536613
s(S'Expansion.2'
p4056
S'Expansion.2'
p4057
tp4058
F0.0012004801920768306
s(S'.2'
p4059
Ntp4060
F0.03481392557022809
s(S'Temporal.1'
p4061
Ntp4062
F0.003601440576230492
s(S'.1'
p4063
g4013
tp4064
F0.0024009603841536613
s(Ng4032
tp4065
F0.04321728691476591
s(NNtp4066
F0.6194477791116446
ssS'apwsE960109.0103-2-2-0.perm-12.txt.pipe'
p4067
(dp4068
sS'apwsE951010.0087-2-2-0.perm-1.txt.pipe'
p4069
(dp4070
(S'Expansion.1'
p4071
Ntp4072
F0.011532125205930808
s(NS'Temporal.2'
p4073
tp4074
F0.03130148270181219
s(NS'Temporal.1'
p4075
tp4076
F0.0032948929159802307
s(S'Comparison.2'
p4077
Ntp4078
F0.013179571663920923
s(S'Temporal.2'
p4079
S'Comparison.2'
p4080
tp4081
F0.0016474464579901153
s(NNtp4082
F0.7841845140032949
s(S'Temporal.2'
p4083
Ntp4084
F0.018121911037891267
s(NS'Comparison.2'
p4085
tp4086
F0.044481054365733116
s(S'Expansion.2'
p4087
g4080
tp4088
F0.0016474464579901153
s(NS'Comparison.1'
p4089
tp4090
F0.013179571663920923
s(S'Expansion.2'
p4091
Ntp4092
F0.008237232289950576
s(S'Temporal.1'
p4093
Ntp4094
F0.02800658978583196
s(S'Comparison.1'
p4095
Ntp4096
F0.04118616144975288
ssS'apwsE950914.0074-0-1.perm-13.txt.pipe'
p4097
(dp4098
sS'apwsE951024.0020-2-2-0.perm-10.txt.pipe'
p4099
(dp4100
(S'Expansion.1'
p4101
Ntp4102
F0.12857142857142856
s(S'Expansion.1'
p4103
S'Expansion.2'
p4104
tp4105
F0.014285714285714285
s(S'Comparison.2'
p4106
Ntp4107
F0.1
s(S'Comparison.1'
p4108
S'Expansion.2'
p4109
tp4110
F0.014285714285714285
s(NNtp4111
F0.4857142857142857
s(S'Expansion.2'
p4112
S'Expansion.2'
p4113
tp4114
F0.014285714285714285
s(S'Expansion.2'
p4115
Ntp4116
F0.02857142857142857
s(NS'Expansion.1'
p4117
tp4118
F0.08571428571428572
s(NS'Expansion.2'
p4119
tp4120
F0.07142857142857142
s(S'Comparison.1'
p4121
Ntp4122
F0.05714285714285714
ssS'apwsE951020.0430-2-2-0.perm-1.txt.pipe'
p4123
(dp4124
(S'Expansion.1'
p4125
Ntp4126
F0.125
s(S'Expansion.1'
p4127
S'Expansion.1'
p4128
tp4129
F0.013888888888888888
s(NNtp4130
F0.5
s(NS'Comparison.2'
p4131
tp4132
F0.027777777777777776
s(S'Expansion.2'
p4133
S'Expansion.2'
p4134
tp4135
F0.034722222222222224
s(NS'Comparison.1'
p4136
tp4137
F0.05555555555555555
s(S'Expansion.2'
p4138
Ntp4139
F0.04861111111111111
s(NS'Expansion.1'
p4140
tp4141
F0.020833333333333332
s(Ng4133
tp4142
F0.16666666666666666
s(g4140
S'Comparison.2'
p4143
tp4144
F0.006944444444444444
ssS'apwsE951210.0356-2-2-0.perm-1.txt.pipe'
p4145
(dp4146
sS'apwsE951201.0003-2-2-0.perm-13.txt.pipe'
p4147
(dp4148
sS'apwsE951021.0001-2-2-0.perm-12.txt.pipe'
p4149
(dp4150
(NS'Temporal.2'
p4151
tp4152
F0.006980802792321117
s(S'Comparison.2'
p4153
S'Comparison.2'
p4154
tp4155
F0.005235602094240838
s(NS'Temporal.1'
p4156
tp4157
F0.010471204188481676
s(g4154
Ntp4158
F0.03315881326352531
s(S'Comparison.1'
p4159
S'Contingency.2'
p4160
tp4161
F0.0017452006980802793
s(NNtp4162
F0.7207678883071553
s(NS'Comparison.2'
p4163
tp4164
F0.012216404886561954
s(S'Expansion.2'
p4165
Ntp4166
F0.008726003490401396
s(NS'Contingency.1'
p4167
tp4168
F0.010471204188481676
s(S'Expansion.1'
p4169
S'Contingency.1'
p4170
tp4171
F0.0017452006980802793
s(S'Expansion.1'
p4172
Ntp4173
F0.06806282722513089
s(S'Expansion.1'
p4174
S'Contingency.2'
p4175
tp4176
F0.0017452006980802793
s(NS'Contingency.2'
p4177
tp4178
F0.020942408376963352
s(S'Expansion.2'
p4179
g4154
tp4180
F0.005235602094240838
s(NS'Comparison.1'
p4181
tp4182
F0.02443280977312391
s(NS'Expansion.2'
p4183
tp4184
F0.029668411867364748
s(S'Comparison.2'
p4185
S'Contingency.1'
p4186
tp4187
F0.0017452006980802793
s(g4181
Ntp4188
F0.03664921465968586
ssS'apwsE951024.0110-2-2-0.perm-13.txt.pipe'
p4189
(dp4190
(S'Expansion.1'
p4191
S'Comparison.1'
p4192
tp4193
F0.009615384615384616
s(S'Expansion.1'
p4194
Ntp4195
F0.0673076923076923
s(NS'Comparison.1'
p4196
tp4197
F0.14423076923076922
s(S'Expansion.2'
p4198
Ntp4199
F0.07692307692307693
s(NS'Comparison.2'
p4200
tp4201
F0.1346153846153846
s(NNtp4202
F0.5673076923076923
ssS'apwsE951003.0485-2-2-0.perm-10.txt.pipe'
p4203
(dp4204
sS'apwsE951108.0165-2-2-0.perm-1.txt.pipe'
p4205
(dp4206
(S'Expansion.1'
p4207
Ntp4208
F0.07373271889400922
s(S'Comparison.2'
p4209
Ntp4210
F0.06451612903225806
s(NNtp4211
F0.5852534562211982
s(NS'Comparison.2'
p4212
tp4213
F0.06912442396313365
s(S'Expansion.2'
p4214
Ntp4215
F0.02304147465437788
s(NS'Expansion.1'
p4216
tp4217
F0.03686635944700461
s(NS'Expansion.2'
p4218
tp4219
F0.09216589861751152
s(S'Comparison.2'
p4220
S'Expansion.1'
p4221
tp4222
F0.004608294930875576
s(S'Comparison.1'
p4223
Ntp4224
F0.05069124423963134
ssS'apwsE950919.0594-2-2-0.perm-1.txt.pipe'
p4225
(dp4226
sS'apwsE951009.0305-2-2-0.perm-1.txt.pipe'
p4227
(dp4228
(NS'Temporal.2'
p4229
tp4230
F0.00808080808080808
s(S'Contingency.2'
p4231
Ntp4232
F0.01818181818181818
s(S'Expansion.1'
p4233
Ntp4234
F0.030303030303030304
s(S'Comparison.2'
p4235
Ntp4236
F0.03838383838383838
s(S'Expansion.2'
p4237
S'Expansion.1'
p4238
tp4239
F0.00202020202020202
s(NS'Temporal.1'
p4240
tp4241
F0.00202020202020202
s(NNtp4242
F0.6202020202020202
s(NS'Comparison.2'
p4243
tp4244
F0.026262626262626262
s(S'Expansion.2'
p4245
Ntp4246
F0.03636363636363636
s(NS'Expansion.1'
p4247
tp4248
F0.028282828282828285
s(S'Comparison.2'
p4249
S'Comparison.2'
p4250
tp4251
F0.00202020202020202
s(S'Expansion.1'
p4252
S'Comparison.1'
p4253
tp4254
F0.006060606060606061
s(S'Contingency.1'
p4255
Ntp4256
F0.01616161616161616
s(S'Comparison.1'
p4257
g4238
tp4258
F0.00202020202020202
s(S'Expansion.2'
p4259
S'Comparison.2'
p4260
tp4261
F0.010101010101010102
s(S'Expansion.2'
p4262
S'Expansion.2'
p4263
tp4264
F0.00202020202020202
s(NS'Comparison.1'
p4265
tp4266
F0.03434343434343434
s(NS'Expansion.2'
p4267
tp4268
F0.06868686868686869
s(S'Comparison.1'
p4269
Ntp4270
F0.048484848484848485
ssS'apwsE960221.0036-0-1.perm-13.txt.pipe'
p4271
(dp4272
sS'apwsE951024.0110-2-2-0.perm-12.txt.pipe'
p4273
(dp4274
(S'Expansion.1'
p4275
Ntp4276
F0.019230769230769232
s(S'Comparison.2'
p4277
Ntp4278
F0.04807692307692308
s(NNtp4279
F0.6538461538461539
s(NS'Comparison.2'
p4280
tp4281
F0.0673076923076923
s(NS'Comparison.1'
p4282
tp4283
F0.057692307692307696
s(S'Expansion.2'
p4284
Ntp4285
F0.028846153846153848
s(Ng4275
tp4286
F0.019230769230769232
s(Ng4284
tp4287
F0.028846153846153848
s(S'Comparison.1'
p4288
Ntp4289
F0.07692307692307693
ssS'apwsE951018.0070-2-2-0.perm-1.txt.pipe'
p4290
(dp4291
sS'apwsE960108.0194-2-2-0.perm-11.txt.pipe'
p4292
(dp4293
sS'apwsE950620.0596-0-1.perm-10.txt.pipe'
p4294
(dp4295
sS'apwsE950822.0071-0-1.perm-12.txt.pipe'
p4296
(dp4297
sS'apwsE950905.0546-2-2-0.perm-1.txt.pipe'
p4298
(dp4299
sS'apwsE951024.0020-2-2-0.perm-1.txt.pipe'
p4300
(dp4301
(S'Expansion.1'
p4302
Ntp4303
F0.12380952380952381
s(S'Expansion.1'
p4304
S'Expansion.2'
p4305
tp4306
F0.02857142857142857
s(S'Expansion.2'
p4307
S'Expansion.1'
p4308
tp4309
F0.009523809523809525
s(NNtp4310
F0.5047619047619047
s(NS'Comparison.2'
p4311
tp4312
F0.06666666666666667
s(S'Expansion.2'
p4313
S'Expansion.2'
p4314
tp4315
F0.009523809523809525
s(NS'Comparison.1'
p4316
tp4317
F0.0380952380952381
s(S'Expansion.2'
p4318
Ntp4319
F0.0761904761904762
s(NS'Expansion.1'
p4320
tp4321
F0.06666666666666667
s(g4314
S'Comparison.1'
p4322
tp4323
F0.009523809523809525
s(NS'Expansion.2'
p4324
tp4325
F0.06666666666666667
ssS'apwsE950928.0080-0-1.perm-11.txt.pipe'
p4326
(dp4327
sS'apwsE951009.0294-2-2-0.perm-1.txt.pipe'
p4328
(dp4329
sS'apwsE950919.0202-2-2-0.perm-10.txt.pipe'
p4330
(dp4331
sS'apwsE951004.0060-2-2-0.perm-1.txt.pipe'
p4332
(dp4333
sS'apwsE950424.0128-0-1.perm-10.txt.pipe'
p4334
(dp4335
sS'apwsE951009.0216-2-2-0.perm-10.txt.pipe'
p4336
(dp4337
sS'apwsE960109.0130-2-2-0.perm-1.txt.pipe'
p4338
(dp4339
sS'apwsE951122.0004-0-1.perm-13.txt.pipe'
p4340
(dp4341
sS'apwsE950919.0594-2-2-0.perm-13.txt.pipe'
p4342
(dp4343
sS'apwsE951101.0026-0-1.perm-12.txt.pipe'
p4344
(dp4345
(NS'Comparison.2'
p4346
tp4347
F0.2608695652173913
s(S'Comparison.1'
p4348
S'Comparison.1'
p4349
tp4350
F0.08695652173913043
s(NS'Comparison.1'
p4351
tp4352
F0.17391304347826086
s(S'Comparison.2'
p4353
S'Comparison.1'
p4354
tp4355
F0.043478260869565216
s(S'Comparison.2'
p4356
Ntp4357
F0.34782608695652173
s(S'Comparison.1'
p4358
Ntp4359
F0.08695652173913043
ssS'apwsE950425.0109-0-1.perm-1.txt.pipe'
p4360
(dp4361
sS'apwsE951020.0430-2-2-0.perm-10.txt.pipe'
p4362
(dp4363
(S'Expansion.1'
p4364
Ntp4365
F0.039285714285714285
s(S'Comparison.1'
p4366
S'Comparison.1'
p4367
tp4368
F0.0035714285714285713
s(S'Comparison.2'
p4369
Ntp4370
F0.03571428571428571
s(NNtp4371
F0.6642857142857143
s(NS'Comparison.2'
p4372
tp4373
F0.039285714285714285
s(NS'Comparison.1'
p4374
tp4375
F0.05357142857142857
s(S'Expansion.2'
p4376
Ntp4377
F0.02857142857142857
s(Ng4364
tp4378
F0.025
s(Ng4376
tp4379
F0.1
s(S'Comparison.1'
p4380
Ntp4381
F0.010714285714285714
ssS'apwsE951121.0032-2-2-0.perm-13.txt.pipe'
p4382
(dp4383
sS'apwsE950919.0580-2-2-0.perm-1.txt.pipe'
p4384
(dp4385
sS'apwsE951009.0278-2-2-0.perm-11.txt.pipe'
p4386
(dp4387
(S'Expansion.1'
p4388
Ntp4389
F0.08547008547008547
s(Ng4388
tp4390
F0.04700854700854701
s(S'Comparison.2'
p4391
Ntp4392
F0.029914529914529916
s(NS'Expansion.2'
p4393
tp4394
F0.05555555555555555
s(NNtp4395
F0.7692307692307693
s(S'Comparison.1'
p4396
Ntp4397
F0.01282051282051282
ssS'apwsE950914.0071-0-1.perm-11.txt.pipe'
p4398
(dp4399
sS'apwsE960109.0412-0-1.perm-11.txt.pipe'
p4400
(dp4401
sS'apwsE951221.0049-2-2-0.perm-13.txt.pipe'
p4402
(dp4403
sS'apwsE950919.0202-2-2-0.perm-11.txt.pipe'
p4404
(dp4405
sS'apwsE960313.0024-2-2-0.perm-1.txt.pipe'
p4406
(dp4407
sS'apwsE951218.0398-0-1.perm-13.txt.pipe'
p4408
(dp4409
(NS'Comparison.2'
p4410
tp4411
F0.2608695652173913
s(S'Comparison.1'
p4412
S'Comparison.1'
p4413
tp4414
F0.08695652173913043
s(NS'Comparison.1'
p4415
tp4416
F0.17391304347826086
s(S'Comparison.2'
p4417
S'Comparison.1'
p4418
tp4419
F0.043478260869565216
s(S'Comparison.2'
p4420
Ntp4421
F0.34782608695652173
s(S'Comparison.1'
p4422
Ntp4423
F0.08695652173913043
ssS'apwsE951024.0005-2-2-0.perm-11.txt.pipe'
p4424
(dp4425
(S'Expansion.2'
p4426
S'.1'
p4427
tp4428
F0.0013245033112582781
s(S'.1'
p4429
S'Expansion.1'
p4430
tp4431
F0.0026490066225165563
s(S'.2'
p4432
S'.2'
p4433
tp4434
F0.033112582781456956
s(S'Comparison.2'
p4435
Ntp4436
F0.006622516556291391
s(S'Comparison.1'
p4437
S'Expansion.2'
p4438
tp4439
F0.0013245033112582781
s(S'.1'
p4440
g4427
tp4441
F0.018543046357615896
s(NNtp4442
F0.49933774834437084
s(S'.1'
p4443
Ntp4444
F0.09536423841059603
s(NS'Comparison.2'
p4445
tp4446
F0.007947019867549669
s(g4445
S'.1'
p4447
tp4448
F0.0013245033112582781
s(S'.2'
p4449
g4430
tp4450
F0.0026490066225165563
s(S'Expansion.2'
p4451
Ntp4452
F0.003973509933774834
s(S'Comparison.1'
p4453
S'.1'
p4454
tp4455
F0.0026490066225165563
s(NS'Expansion.1'
p4456
tp4457
F0.005298013245033113
s(S'.1'
p4458
S'Expansion.2'
p4459
tp4460
F0.0026490066225165563
s(Ng4443
tp4461
F0.08344370860927153
s(S'Expansion.2'
p4462
S'.2'
p4463
tp4464
F0.0013245033112582781
s(S'.2'
p4465
g4427
tp4466
F0.009271523178807948
s(g4456
Ntp4467
F0.0026490066225165563
s(S'.1'
p4468
g4453
tp4469
F0.0013245033112582781
s(Ng4432
tp4470
F0.11258278145695365
s(S'.2'
p4471
g4459
tp4472
F0.0026490066225165563
s(NS'Comparison.1'
p4473
tp4474
F0.005298013245033113
s(g4433
Ntp4475
F0.0847682119205298
s(Ng4426
tp4476
F0.007947019867549669
s(g4473
Ntp4477
F0.003973509933774834
ssS'apwsE951018.0170-2-2-0.perm-12.txt.pipe'
p4478
(dp4479
sS'apwsE951106.0072-2-2-0.perm-10.txt.pipe'
p4480
(dp4481
sS'apwsE951210.0051-2-2-0.perm-12.txt.pipe'
p4482
(dp4483
sS'apwsE951009.0245-2-2-0.perm-13.txt.pipe'
p4484
(dp4485
(S'.1'
p4486
S'Contingency.1'
p4487
tp4488
F0.0011273957158962795
s(S'Expansion.1'
p4489
S'Expansion.1'
p4490
tp4491
F0.0033821871476888386
s(S'.2'
p4492
S'.2'
p4493
tp4494
F0.008455467869222097
s(S'Comparison.2'
p4495
Ntp4496
F0.002254791431792559
s(g4486
S'Comparison.2'
p4497
tp4498
F0.0005636978579481398
s(S'.1'
p4499
S'.1'
p4500
tp4501
F0.002254791431792559
s(S'.1'
p4502
Ntp4503
F0.02874859075535513
s(NS'Comparison.2'
p4504
tp4505
F0.0062006764374295375
s(NS'Contingency.1'
p4506
tp4507
F0.0033821871476888386
s(S'Expansion.1'
p4508
g4487
tp4509
F0.0005636978579481398
s(NS'.2'
p4510
tp4511
F0.03664036076662908
s(S'.2'
p4512
S'Contingency.2'
p4513
tp4514
F0.0005636978579481398
s(S'Temporal.2'
p4515
Ntp4516
F0.0005636978579481398
s(S'Temporal.1'
p4517
Ntp4518
F0.0005636978579481398
s(NS'Contingency.2'
p4519
tp4520
F0.004509582863585118
s(S'Comparison.1'
p4521
Ntp4522
F0.007891770011273957
s(S'Expansion.2'
p4523
g4500
tp4524
F0.0011273957158962795
s(NS'Temporal.2'
p4525
tp4526
F0.002254791431792559
s(Ng4517
tp4527
F0.0005636978579481398
s(NNtp4528
F0.7125140924464487
s(Ng4502
tp4529
F0.02987598647125141
s(g4525
g4490
tp4530
F0.0011273957158962795
s(S'.2'
p4531
g4490
tp4532
F0.0011273957158962795
s(S'Expansion.2'
p4533
Ntp4534
F0.02818489289740699
s(NS'Expansion.1'
p4535
tp4536
F0.015219842164599774
s(S'.1'
p4537
S'Expansion.2'
p4538
tp4539
F0.0005636978579481398
s(S'.2'
p4540
g4497
tp4541
F0.0011273957158962795
s(S'Expansion.2'
p4542
S'.2'
p4543
tp4544
F0.009019165727170236
s(S'.2'
p4545
S'.1'
p4546
tp4547
F0.0005636978579481398
s(g4535
Ntp4548
F0.014656144306651634
s(S'.1'
p4549
S'Comparison.1'
p4550
tp4551
F0.0005636978579481398
s(Ng4533
tp4552
F0.03720405862457723
s(g4545
g4538
tp4553
F0.0011273957158962795
s(S'Expansion.2'
p4554
S'Expansion.2'
p4555
tp4556
F0.005636978579481398
s(NS'Comparison.1'
p4557
tp4558
F0.004509582863585118
s(g4493
Ntp4559
F0.02367531003382187
s(g4540
g4487
tp4560
F0.0005636978579481398
s(S'Temporal.2'
p4561
S'Expansion.2'
p4562
tp4563
F0.0005636978579481398
s(g4508
g4497
tp4564
F0.0005636978579481398
ssS'apwsE960207.0488-2-2-0.perm-13.txt.pipe'
p4565
(dp4566
(NS'Expansion.1'
p4567
tp4568
F0.1724137931034483
s(NS'Expansion.2'
p4569
tp4570
F0.5172413793103449
s(S'Expansion.1'
p4571
Ntp4572
F0.3103448275862069
ssS'apwsE950425.0109-0-1.perm-13.txt.pipe'
p4573
(dp4574
sS'apwsE960313.0024-2-2-0.perm-13.txt.pipe'
p4575
(dp4576
sS'apwsE960216.0269-2-2-0.perm-13.txt.pipe'
p4577
(dp4578
(S'Expansion.1'
p4579
Ntp4580
F0.11191335740072202
s(NS'Temporal.2'
p4581
tp4582
F0.061371841155234655
s(NS'Temporal.1'
p4583
tp4584
F0.018050541516245487
s(NNtp4585
F0.48014440433212996
s(S'Temporal.2'
p4586
Ntp4587
F0.039711191335740074
s(NS'Comparison.2'
p4588
tp4589
F0.021660649819494584
s(S'Expansion.2'
p4590
S'Comparison.2'
p4591
tp4592
F0.0036101083032490976
s(NS'Comparison.1'
p4593
tp4594
F0.04332129963898917
s(S'Temporal.1'
p4595
g4591
tp4596
F0.0036101083032490976
s(S'Expansion.2'
p4597
Ntp4598
F0.04332129963898917
s(S'Temporal.1'
p4599
Ntp4600
F0.08303249097472924
s(Ng4579
tp4601
F0.04332129963898917
s(S'Temporal.2'
p4602
S'Expansion.2'
p4603
tp4604
F0.007220216606498195
s(Ng4597
tp4605
F0.039711191335740074
ssS'apwsE960109.0103-2-2-0.perm-11.txt.pipe'
p4606
(dp4607
sS'apwsE960214.0448-2-2-0.perm-13.txt.pipe'
p4608
(dp4609
sS'apwsE951006.0493-2-2-0.perm-10.txt.pipe'
p4610
(dp4611
(S'Comparison.2'
p4612
S'Comparison.2'
p4613
tp4614
F0.001098901098901099
s(S'Expansion.1'
p4615
Ntp4616
F0.025274725274725275
s(S'Comparison.2'
p4617
Ntp4618
F0.035164835164835165
s(S'Comparison.1'
p4619
S'Expansion.2'
p4620
tp4621
F0.0032967032967032967
s(NNtp4622
F0.7032967032967034
s(S'Temporal.1'
p4623
S'Expansion.2'
p4624
tp4625
F0.001098901098901099
s(Ng4617
tp4626
F0.05054945054945055
s(g4620
Ntp4627
F0.015384615384615385
s(NS'Expansion.1'
p4628
tp4629
F0.014285714285714285
s(S'Contingency.2'
p4630
Ntp4631
F0.01098901098901099
s(NS'Contingency.1'
p4632
tp4633
F0.001098901098901099
s(S'Comparison.2'
p4634
S'Contingency.2'
p4635
tp4636
F0.0032967032967032967
s(S'Contingency.1'
p4637
Ntp4638
F0.0032967032967032967
s(S'Comparison.1'
p4639
S'Expansion.1'
p4640
tp4641
F0.002197802197802198
s(S'Comparison.2'
p4642
S'Comparison.1'
p4643
tp4644
F0.001098901098901099
s(NS'Contingency.2'
p4645
tp4646
F0.013186813186813187
s(S'Temporal.2'
p4647
g4612
tp4648
F0.004395604395604396
s(S'Temporal.1'
p4649
g4640
tp4650
F0.001098901098901099
s(S'Temporal.2'
p4651
Ntp4652
F0.007692307692307693
s(S'Comparison.2'
p4653
g4637
tp4654
F0.002197802197802198
s(g4645
S'Expansion.2'
p4655
tp4656
F0.005494505494505495
s(NS'Comparison.1'
p4657
tp4658
F0.025274725274725275
s(S'Temporal.1'
p4659
Ntp4660
F0.007692307692307693
s(S'Temporal.2'
p4661
S'Expansion.2'
p4662
tp4663
F0.001098901098901099
s(NS'Expansion.2'
p4664
tp4665
F0.016483516483516484
s(g4653
g4615
tp4666
F0.002197802197802198
s(g4657
Ntp4667
F0.041758241758241756
ssS'apwsE960214.0448-2-2-0.perm-10.txt.pipe'
p4668
(dp4669
sS'apwsE951125.0054-2-2-0.perm-1.txt.pipe'
p4670
(dp4671
(NS'Comparison.2'
p4672
tp4673
F0.21052631578947367
s(NS'Comparison.1'
p4674
tp4675
F0.14473684210526316
s(NNtp4676
F0.32894736842105265
s(g4674
Ntp4677
F0.23684210526315788
s(S'Comparison.2'
p4678
Ntp4679
F0.07894736842105263
ssS'apwsE960206.0441-2-2-0.perm-10.txt.pipe'
p4680
(dp4681
sS'apwsE951024.0020-2-2-0.perm-13.txt.pipe'
p4682
(dp4683
(S'Expansion.1'
p4684
S'Comparison.1'
p4685
tp4686
F0.02857142857142857
s(S'Expansion.1'
p4687
Ntp4688
F0.047619047619047616
s(S'Comparison.1'
p4689
S'Expansion.1'
p4690
tp4691
F0.009523809523809525
s(S'Comparison.2'
p4692
Ntp4693
F0.047619047619047616
s(S'Comparison.1'
p4694
S'Expansion.2'
p4695
tp4696
F0.009523809523809525
s(NNtp4697
F0.4857142857142857
s(NS'Comparison.2'
p4698
tp4699
F0.05714285714285714
s(S'Expansion.2'
p4700
g4692
tp4701
F0.009523809523809525
s(S'Expansion.2'
p4702
S'Expansion.2'
p4703
tp4704
F0.009523809523809525
s(NS'Comparison.1'
p4705
tp4706
F0.01904761904761905
s(S'Expansion.2'
p4707
Ntp4708
F0.08571428571428572
s(NS'Expansion.1'
p4709
tp4710
F0.08571428571428572
s(NS'Expansion.2'
p4711
tp4712
F0.05714285714285714
s(S'Comparison.2'
p4713
S'Expansion.1'
p4714
tp4715
F0.01904761904761905
s(g4705
Ntp4716
F0.02857142857142857
ssS'apwsE960508.0041-2-2-0.perm-12.txt.pipe'
p4717
(dp4718
sS'apwsE951210.0356-2-2-0.perm-11.txt.pipe'
p4719
(dp4720
sS'apwsE951001.0328-2-2-0.perm-13.txt.pipe'
p4721
(dp4722
(S'Temporal.1'
p4723
Ntp4724
F0.19047619047619047
s(S'Temporal.2'
p4725
S'Expansion.2'
p4726
tp4727
F0.11904761904761904
s(NS'Expansion.2'
p4728
tp4729
F0.2619047619047619
s(S'Temporal.2'
p4730
Ntp4731
F0.11904761904761904
s(S'Expansion.1'
p4732
Ntp4733
F0.30952380952380953
ssS'apwsE951009.0228-2-2-0.perm-12.txt.pipe'
p4734
(dp4735
sS'apwsE951018.0170-2-2-0.perm-1.txt.pipe'
p4736
(dp4737
sS'apwsE951004.0060-2-2-0.perm-12.txt.pipe'
p4738
(dp4739
sS'apwsE960104.0037-0-1.perm-13.txt.pipe'
p4740
(dp4741
sS'apwsE950822.0071-0-1.perm-1.txt.pipe'
p4742
(dp4743
sS'apwsE951226.0004-2-2-0.perm-13.txt.pipe'
p4744
(dp4745
(S'Expansion.1'
p4746
Ntp4747
F0.2777777777777778
s(NS'Expansion.2'
p4748
tp4749
F0.7222222222222222
ssS'apwsE951018.0070-2-2-0.perm-11.txt.pipe'
p4750
(dp4751
sS'apwsE960207.0488-2-2-0.perm-1.txt.pipe'
p4752
(dp4753
(NS'Expansion.1'
p4754
tp4755
F0.1724137931034483
s(NS'Expansion.2'
p4756
tp4757
F0.5172413793103449
s(S'Expansion.1'
p4758
Ntp4759
F0.3103448275862069
ssS'apwsE960216.0269-2-2-0.perm-10.txt.pipe'
p4760
(dp4761
(S'Expansion.2'
p4762
S'Temporal.1'
p4763
tp4764
F0.002079002079002079
s(NS'Temporal.2'
p4765
tp4766
F0.062370062370062374
s(S'Temporal.2'
p4767
S'.2'
p4768
tp4769
F0.004158004158004158
s(S'Expansion.1'
p4770
Ntp4771
F0.029106029106029108
s(S'.2'
p4772
Ntp4773
F0.018711018711018712
s(NNtp4774
F0.4407484407484408
s(S'.1'
p4775
Ntp4776
F0.037422037422037424
s(NS'Comparison.2'
p4777
tp4778
F0.014553014553014554
s(S'Expansion.1'
p4779
S'Temporal.1'
p4780
tp4781
F0.004158004158004158
s(S'Expansion.2'
p4782
Ntp4783
F0.04365904365904366
s(S'.2'
p4784
S'Comparison.1'
p4785
tp4786
F0.002079002079002079
s(Ng4770
tp4787
F0.02494802494802495
s(S'Temporal.2'
p4788
g4763
tp4789
F0.002079002079002079
s(Ng4775
tp4790
F0.037422037422037424
s(S'Expansion.2'
p4791
g4768
tp4792
F0.006237006237006237
s(NS'Temporal.1'
p4793
tp4794
F0.05197505197505198
s(g4779
S'.1'
p4795
tp4796
F0.006237006237006237
s(S'Temporal.1'
p4797
g4763
tp4798
F0.002079002079002079
s(Ng4772
tp4799
F0.031185031185031187
s(S'.2'
p4800
S'Temporal.2'
p4801
tp4802
F0.016632016632016633
s(g4765
Ntp4803
F0.02079002079002079
s(NS'Comparison.1'
p4804
tp4805
F0.02286902286902287
s(S'Temporal.1'
p4806
g4785
tp4807
F0.002079002079002079
s(g4793
Ntp4808
F0.058212058212058215
s(S'.1'
p4809
S'Temporal.1'
p4810
tp4811
F0.006237006237006237
s(Ng4782
tp4812
F0.05197505197505198
ssS'apwsE951210.0356-2-2-0.perm-10.txt.pipe'
p4813
(dp4814
sS'apwsE951009.0245-2-2-0.perm-1.txt.pipe'
p4815
(dp4816
(S'.1'
p4817
S'Expansion.1'
p4818
tp4819
F0.0003795066413662239
s(S'Expansion.1'
p4820
S'Contingency.1'
p4821
tp4822
F0.0003795066413662239
s(S'.2'
p4823
S'.2'
p4824
tp4825
F0.0064516129032258064
s(S'Comparison.2'
p4826
Ntp4827
F0.003795066413662239
s(S'.1'
p4828
S'Comparison.2'
p4829
tp4830
F0.0003795066413662239
s(S'.1'
p4831
S'.1'
p4832
tp4833
F0.0018975332068311196
s(S'.1'
p4834
Ntp4835
F0.023908918406072108
s(Ng4826
tp4836
F0.004933586337760911
s(NS'Expansion.1'
p4837
tp4838
F0.020872865275142316
s(S'Expansion.2'
p4839
S'Comparison.1'
p4840
tp4841
F0.0003795066413662239
s(g4820
S'Expansion.1'
p4842
tp4843
F0.0003795066413662239
s(NS'.2'
p4844
tp4845
F0.02808349146110057
s(S'Contingency.2'
p4846
S'Expansion.2'
p4847
tp4848
F0.0011385199240986717
s(NS'Expansion.2'
p4849
tp4850
F0.039468690702087285
s(g4839
g4821
tp4851
F0.0003795066413662239
s(S'Comparison.1'
p4852
Ntp4853
F0.004554079696394687
s(g4820
g4840
tp4854
F0.0003795066413662239
s(S'Contingency.1'
p4855
Ntp4856
F0.0030360531309297912
s(NS'Temporal.2'
p4857
tp4858
F0.0015180265654648956
s(NS'Temporal.1'
p4859
tp4860
F0.0003795066413662239
s(S'Expansion.2'
p4861
g4818
tp4862
F0.0007590132827324478
s(NNtp4863
F0.7127134724857686
s(Ng4834
tp4864
F0.022770398481973434
s(S'Expansion.2'
p4865
Ntp4866
F0.03149905123339659
s(S'Contingency.2'
p4867
Ntp4868
F0.0022770398481973433
s(Ng4855
tp4869
F0.0026565464895635673
s(S'.1'
p4870
S'Expansion.2'
p4871
tp4872
F0.0003795066413662239
s(S'Expansion.2'
p4873
S'.2'
p4874
tp4875
F0.007969639468690701
s(S'.2'
p4876
S'.1'
p4877
tp4878
F0.0015180265654648956
s(S'Comparison.2'
p4879
g4847
tp4880
F0.0011385199240986717
s(g4837
Ntp4881
F0.024667931688804556
s(g4849
g4865
tp4882
F0.0060721062618595825
s(Ng4867
tp4883
F0.0026565464895635673
s(S'Comparison.2'
p4884
S'.2'
p4885
tp4886
F0.0011385199240986717
s(g4844
S'Expansion.2'
p4887
tp4888
F0.003415559772296015
s(S'Expansion.2'
p4889
g4879
tp4890
F0.0007590132827324478
s(g4889
g4846
tp4891
F0.0007590132827324478
s(Ng4852
tp4892
F0.004174573055028463
s(S'.2'
p4893
Ntp4894
F0.027703984819734344
s(S'Expansion.1'
p4895
g4877
tp4896
F0.0022770398481973433
ssS'apwsE960216.0269-2-2-0.perm-1.txt.pipe'
p4897
(dp4898
(NS'Temporal.1'
p4899
tp4900
F0.09803921568627451
s(S'Temporal.2'
p4901
S'Temporal.2'
p4902
tp4903
F0.013071895424836602
s(NS'Temporal.2'
p4904
tp4905
F0.23529411764705882
s(S'Comparison.2'
p4906
Ntp4907
F0.0392156862745098
s(S'Comparison.1'
p4908
S'Temporal.1'
p4909
tp4910
F0.0196078431372549
s(NNtp4911
F0.16339869281045752
s(S'Temporal.2'
p4912
Ntp4913
F0.13725490196078433
s(Ng4906
tp4914
F0.0457516339869281
s(g4908
g4902
tp4915
F0.013071895424836602
s(NS'Comparison.1'
p4916
tp4917
F0.0718954248366013
s(S'Comparison.2'
p4918
S'Temporal.1'
p4919
tp4920
F0.006535947712418301
s(S'Temporal.1'
p4921
S'Comparison.1'
p4922
tp4923
F0.006535947712418301
s(S'Temporal.1'
p4924
Ntp4925
F0.06535947712418301
s(g4901
g4909
tp4926
F0.026143790849673203
s(g4916
Ntp4927
F0.058823529411764705
ssS'apwsE960106.0047-2-2-0.perm-10.txt.pipe'
p4928
(dp4929
sS'apwsE950928.0094-0-1.perm-1.txt.pipe'
p4930
(dp4931
sS'apwsE951001.0257-2-2-0.perm-12.txt.pipe'
p4932
(dp4933
(S'Expansion.1'
p4934
Ntp4935
F0.04830917874396135
s(S'.1'
p4936
S'.1'
p4937
tp4938
F0.004830917874396135
s(NS'.2'
p4939
tp4940
F0.09178743961352658
s(S'.2'
p4941
S'.2'
p4942
tp4943
F0.01932367149758454
s(NNtp4944
F0.5748792270531401
s(S'.1'
p4945
Ntp4946
F0.07729468599033816
s(S'Expansion.2'
p4947
S'Expansion.2'
p4948
tp4949
F0.01932367149758454
s(g4948
Ntp4950
F0.043478260869565216
s(g4939
Ntp4951
F0.043478260869565216
s(Ng4945
tp4952
F0.07729468599033816
ssS'apwsE951216.0211-2-2-0.perm-10.txt.pipe'
p4953
(dp4954
sS'apwsE951001.0279-2-2-0.perm-12.txt.pipe'
p4955
(dp4956
(S'Expansion.2'
p4957
S'.1'
p4958
tp4959
F0.0009049773755656109
s(S'.1'
p4960
S'Expansion.1'
p4961
tp4962
F0.0009049773755656109
s(NS'Temporal.2'
p4963
tp4964
F0.00904977375565611
s(S'.2'
p4965
S'.2'
p4966
tp4967
F0.008144796380090498
s(NS'Temporal.1'
p4968
tp4969
F0.007239819004524887
s(S'.1'
p4970
S'.1'
p4971
tp4972
F0.0027149321266968325
s(S'.1'
p4973
Ntp4974
F0.034389140271493215
s(S'Expansion.2'
p4975
Ntp4976
F0.03619909502262444
s(NS'Expansion.1'
p4977
tp4978
F0.02986425339366516
s(Ng4973
tp4979
F0.026244343891402715
s(S'Expansion.2'
p4980
S'.2'
p4981
tp4982
F0.0027149321266968325
s(S'.2'
p4983
S'.1'
p4984
tp4985
F0.0009049773755656109
s(g4977
Ntp4986
F0.02986425339366516
s(S'Expansion.1'
p4987
S'.1'
p4988
tp4989
F0.0009049773755656109
s(NS'.2'
p4990
tp4991
F0.048868778280542986
s(g4963
Ntp4992
F0.004524886877828055
s(S'.2'
p4993
S'Expansion.2'
p4994
tp4995
F0.0018099547511312218
s(S'Expansion.2'
p4996
S'Expansion.2'
p4997
tp4998
F0.007239819004524887
s(g4990
Ntp4999
F0.034389140271493215
s(g4968
Ntp5000
F0.007239819004524887
s(S'Temporal.2'
p5001
g4997
tp5002
F0.004524886877828055
s(Ng4975
tp5003
F0.03800904977375565
s(NNtp5004
F0.6633484162895927
ssS'apwsE951121.0037-2-2-0.perm-10.txt.pipe'
p5005
(dp5006
(NS'Comparison.2'
p5007
tp5008
F0.5555555555555556
s(NNtp5009
F0.4444444444444444
ssS'apwsE950424.0128-0-1.perm-12.txt.pipe'
p5010
(dp5011
sS'apwsE951003.0004-2-2-0.perm-11.txt.pipe'
p5012
(dp5013
(S'Expansion.1'
p5014
Ntp5015
F0.0926517571884984
s(S'Expansion.1'
p5016
S'Expansion.1'
p5017
tp5018
F0.003194888178913738
s(NS'.2'
p5019
tp5020
F0.009584664536741214
s(NNtp5021
F0.48562300319488816
s(NS'.1'
p5022
tp5023
F0.025559105431309903
s(S'Expansion.2'
p5024
S'Expansion.2'
p5025
tp5026
F0.02875399361022364
s(S'Expansion.2'
p5027
Ntp5028
F0.10862619808306709
s(Ng5014
tp5029
F0.06070287539936102
s(g5022
Ntp5030
F0.025559105431309903
s(Ng5027
tp5031
F0.14376996805111822
s(S'Expansion.2'
p5032
S'.2'
p5033
tp5034
F0.01597444089456869
ssS'apwsE951101.0026-0-1.perm-11.txt.pipe'
p5035
(dp5036
sS'apwsE950827.0022-2-2-0.perm-11.txt.pipe'
p5037
(dp5038
sS'apwsE960313.0036-2-2-0.perm-12.txt.pipe'
p5039
(dp5040
sS'apwsE950919.0564-2-2-0.perm-10.txt.pipe'
p5041
(dp5042
sS'apwsE951023.0357-2-2-0.perm-13.txt.pipe'
p5043
(dp5044
sS'apwsE950919.0580-2-2-0.perm-10.txt.pipe'
p5045
(dp5046
sS'apwsE951009.0244-2-2-0.perm-12.txt.pipe'
p5047
(dp5048
(NS'Temporal.2'
p5049
tp5050
F0.009950248756218905
s(S'Expansion.2'
p5051
Ntp5052
F0.012437810945273632
s(S'Expansion.1'
p5053
Ntp5054
F0.04975124378109453
s(S'Comparison.2'
p5055
Ntp5056
F0.02736318407960199
s(NS'Temporal.1'
p5057
tp5058
F0.0024875621890547263
s(NNtp5059
F0.7139303482587065
s(NS'Comparison.2'
p5060
tp5061
F0.0024875621890547263
s(S'Contingency.2'
p5062
Ntp5063
F0.022388059701492536
s(Ng5053
tp5064
F0.03731343283582089
s(S'Contingency.1'
p5065
Ntp5066
F0.01990049751243781
s(S'Temporal.2'
p5067
S'Comparison.2'
p5068
tp5069
F0.0024875621890547263
s(g5049
Ntp5070
F0.007462686567164179
s(NS'Comparison.1'
p5071
tp5072
F0.009950248756218905
s(g5057
Ntp5073
F0.0024875621890547263
s(NS'Expansion.2'
p5074
tp5075
F0.0472636815920398
s(S'Comparison.1'
p5076
Ntp5077
F0.03233830845771144
ssS'apwsE951004.0060-2-2-0.perm-10.txt.pipe'
p5078
(dp5079
sS'apwsE950919.0564-2-2-0.perm-13.txt.pipe'
p5080
(dp5081
(S'Expansion.1'
p5082
Ntp5083
F0.04878048780487805
s(NS'Comparison.1'
p5084
tp5085
F0.24390243902439024
s(S'Expansion.2'
p5086
Ntp5087
F0.0975609756097561
s(NS'Comparison.2'
p5088
tp5089
F0.1951219512195122
s(NNtp5090
F0.3902439024390244
s(S'Expansion.1'
p5091
S'Comparison.2'
p5092
tp5093
F0.024390243902439025
ssS'apwsE951001.0328-2-2-0.perm-12.txt.pipe'
p5094
(dp5095
(S'Expansion.1'
p5096
Ntp5097
F0.19444444444444445
s(NS'Expansion.2'
p5098
tp5099
F0.3611111111111111
s(NNtp5100
F0.4444444444444444
ssS'apwsE960122.0410-0-1.perm-1.txt.pipe'
p5101
(dp5102
sS'apwsE951010.0087-2-2-0.perm-13.txt.pipe'
p5103
(dp5104
(NS'Temporal.1'
p5105
tp5106
F0.016129032258064516
s(NS'Temporal.2'
p5107
tp5108
F0.05846774193548387
s(S'Temporal.2'
p5109
S'Comparison.2'
p5110
tp5111
F0.020161290322580645
s(NNtp5112
F0.6814516129032258
s(g5107
Ntp5113
F0.0625
s(NS'Comparison.2'
p5114
tp5115
F0.04233870967741935
s(NS'Comparison.1'
p5116
tp5117
F0.038306451612903226
s(S'Temporal.1'
p5118
S'Comparison.1'
p5119
tp5120
F0.0020161290322580645
s(g5105
Ntp5121
F0.038306451612903226
s(g5116
Ntp5122
F0.04032258064516129
ssS'apwsE950620.0596-0-1.perm-2.txt.pipe'
p5123
(dp5124
sS'apwsE960508.0041-2-2-0.perm-13.txt.pipe'
p5125
(dp5126
sS'apwsE960313.0026-2-2-0.perm-1.txt.pipe'
p5127
(dp5128
sS'apwsE951121.0037-2-2-0.perm-12.txt.pipe'
p5129
(dp5130
(NS'Comparison.2'
p5131
tp5132
F0.4186046511627907
s(S'Comparison.2'
p5133
S'Comparison.2'
p5134
tp5135
F0.09302325581395349
s(S'Comparison.1'
p5136
Ntp5137
F0.32558139534883723
s(S'Comparison.2'
p5138
Ntp5139
F0.16279069767441862
ssS'apwsE951006.0493-2-2-0.perm-12.txt.pipe'
p5140
(dp5141
(S'Expansion.2'
p5142
S'Temporal.1'
p5143
tp5144
F0.0010905125408942203
s(S'Contingency.1'
p5145
Ntp5146
F0.003271537622682661
s(NS'Temporal.2'
p5147
tp5148
F0.010905125408942203
s(S'Comparison.2'
p5149
S'Comparison.2'
p5150
tp5151
F0.003271537622682661
s(NS'Temporal.1'
p5152
tp5153
F0.007633587786259542
s(S'Comparison.2'
p5154
Ntp5155
F0.04580152671755725
s(S'Expansion.2'
p5156
S'Contingency.1'
p5157
tp5158
F0.0010905125408942203
s(NNtp5159
F0.6706652126499455
s(S'Expansion.1'
p5160
S'Temporal.1'
p5161
tp5162
F0.0010905125408942203
s(Ng5154
tp5163
F0.04252998909487459
s(S'Contingency.2'
p5164
Ntp5165
F0.010905125408942203
s(Ng5145
tp5166
F0.0021810250817884407
s(S'Comparison.2'
p5167
S'Temporal.2'
p5168
tp5169
F0.0010905125408942203
s(NS'Expansion.1'
p5170
tp5171
F0.011995637949836423
s(S'Expansion.2'
p5172
S'Comparison.1'
p5173
tp5174
F0.004362050163576881
s(g5160
S'Comparison.1'
p5175
tp5176
F0.0010905125408942203
s(g5170
Ntp5177
F0.011995637949836423
s(S'Expansion.2'
p5178
Ntp5179
F0.009814612868047983
s(S'Comparison.2'
p5180
g5173
tp5181
F0.004362050163576881
s(NS'Contingency.2'
p5182
tp5183
F0.016357688113413305
s(S'Temporal.2'
p5184
S'Comparison.2'
p5185
tp5186
F0.004362050163576881
s(S'Expansion.2'
p5187
g5168
tp5188
F0.0010905125408942203
s(g5147
Ntp5189
F0.007633587786259542
s(g5182
S'Comparison.2'
p5190
tp5191
F0.0054525627044711015
s(NS'Comparison.1'
p5192
tp5193
F0.03598691384950927
s(S'Comparison.2'
p5194
g5143
tp5195
F0.0021810250817884407
s(g5152
Ntp5196
F0.009814612868047983
s(Ng5178
tp5197
F0.028353326063249727
s(S'Comparison.2'
p5198
S'Expansion.1'
p5199
tp5200
F0.0010905125408942203
s(g5192
Ntp5201
F0.04252998909487459
ssS'apwsE951121.0032-2-2-0.perm-12.txt.pipe'
p5202
(dp5203
sS'apwsE951024.0123-2-2-0.perm-13.txt.pipe'
p5204
(dp5205
(S'Expansion.1'
p5206
Ntp5207
F0.01282051282051282
s(S'Comparison.1'
p5208
S'Comparison.1'
p5209
tp5210
F0.019230769230769232
s(S'Comparison.2'
p5211
S'Comparison.2'
p5212
tp5213
F0.00641025641025641
s(S'Comparison.2'
p5214
S'Comparison.1'
p5215
tp5216
F0.00641025641025641
s(S'Comparison.2'
p5217
Ntp5218
F0.057692307692307696
s(S'Comparison.1'
p5219
S'Expansion.2'
p5220
tp5221
F0.00641025641025641
s(NNtp5222
F0.6025641025641025
s(NS'Comparison.2'
p5223
tp5224
F0.09615384615384616
s(NS'Comparison.1'
p5225
tp5226
F0.057692307692307696
s(S'Expansion.2'
p5227
Ntp5228
F0.01282051282051282
s(NS'Expansion.1'
p5229
tp5230
F0.019230769230769232
s(S'Expansion.2'
p5231
S'Comparison.1'
p5232
tp5233
F0.00641025641025641
s(NS'Expansion.2'
p5234
tp5235
F0.02564102564102564
s(g5223
S'Expansion.1'
p5236
tp5237
F0.00641025641025641
s(S'Comparison.1'
p5238
Ntp5239
F0.0641025641025641
ssS'apwsE960106.0047-2-2-0.perm-1.txt.pipe'
p5240
(dp5241
sS'apwsE950914.0074-0-1.perm-11.txt.pipe'
p5242
(dp5243
sS'apwsE951003.0485-2-2-0.perm-1.txt.pipe'
p5244
(dp5245
sS'apwsE951201.0010-0-1.perm-11.txt.pipe'
p5246
(dp5247
sS'apwsE950928.0094-0-1.perm-10.txt.pipe'
p5248
(dp5249
sS'apwsE960303.0090-2-2-0.perm-1.txt.pipe'
p5250
(dp5251
sS'apwsE951222.0206-2-2-0.perm-10.txt.pipe'
p5252
(dp5253
sS'apwsE951221.0056-2-2-0.perm-11.txt.pipe'
p5254
(dp5255
sS'apwsE960109.0103-2-2-0.perm-1.txt.pipe'
p5256
(dp5257
sS'apwsE950925.0091-0-1.perm-1.txt.pipe'
p5258
(dp5259
(S'Expansion.1'
p5260
Ntp5261
F0.47058823529411764
s(NS'Expansion.2'
p5262
tp5263
F0.5294117647058824
ssS'apwsE960216.0241-2-2-0.perm-13.txt.pipe'
p5264
(dp5265
sS'apwsE951215.0060-2-2-0.perm-12.txt.pipe'
p5266
(dp5267
sS'apwsE960207.0488-2-2-0.perm-11.txt.pipe'
p5268
(dp5269
(NS'Expansion.1'
p5270
tp5271
F0.1724137931034483
s(NS'Expansion.2'
p5272
tp5273
F0.5172413793103449
s(S'Expansion.1'
p5274
Ntp5275
F0.3103448275862069
ssS'apwsE960109.0130-2-2-0.perm-11.txt.pipe'
p5276
(dp5277
(S'Expansion.2'
p5278
S'.1'
p5279
tp5280
F0.0018484288354898336
s(S'.1'
p5281
S'Expansion.1'
p5282
tp5283
F0.0004621072088724584
s(S'Contingency.2'
p5284
Ntp5285
F0.003234750462107209
s(S'.2'
p5286
S'.2'
p5287
tp5288
F0.01432532347504621
s(S'Comparison.2'
p5289
Ntp5290
F0.0023105360443622922
s(S'.1'
p5291
S'.1'
p5292
tp5293
F0.005545286506469501
s(NNtp5294
F0.7019408502772643
s(S'.1'
p5295
Ntp5296
F0.04713493530499076
s(Ng5289
tp5297
F0.0023105360443622922
s(S'Expansion.2'
p5298
Ntp5299
F0.013401109057301294
s(NS'Expansion.1'
p5300
tp5301
F0.011090573012939002
s(Ng5295
tp5302
F0.047597042513863215
s(S'Expansion.2'
p5303
S'.2'
p5304
tp5305
F0.0036968576709796672
s(S'.2'
p5306
g5292
tp5307
F0.0009242144177449168
s(g5300
Ntp5308
F0.0166358595194085
s(NS'.2'
p5309
tp5310
F0.0522181146025878
s(S'.2'
p5311
S'Expansion.2'
p5312
tp5313
F0.0027726432532347504
s(S'Contingency.1'
p5314
Ntp5315
F0.0004621072088724584
s(NS'Comparison.1'
p5316
tp5317
F0.003234750462107209
s(g5304
Ntp5318
F0.04944547134935305
s(Ng5303
tp5319
F0.016173752310536044
s(g5316
Ntp5320
F0.003234750462107209
ssS'apwsE951009.0228-2-2-0.perm-11.txt.pipe'
p5321
(dp5322
(S'Contingency.1'
p5323
Ntp5324
F0.013824884792626729
s(S'Comparison.2'
p5325
Ntp5326
F0.016129032258064516
s(NNtp5327
F0.5967741935483871
s(NS'.1'
p5328
tp5329
F0.029953917050691243
s(NS'Comparison.2'
p5330
tp5331
F0.027649769585253458
s(S'Contingency.2'
p5332
Ntp5333
F0.02534562211981567
s(Ng5323
tp5334
F0.013824884792626729
s(S'Comparison.1'
p5335
S'.1'
p5336
tp5337
F0.002304147465437788
s(NS'Expansion.1'
p5338
tp5339
F0.016129032258064516
s(g5328
Ntp5340
F0.03225806451612903
s(S'Comparison.2'
p5341
S'Expansion.2'
p5342
tp5343
F0.002304147465437788
s(g5338
Ntp5344
F0.016129032258064516
s(NS'.2'
p5345
tp5346
F0.04838709677419355
s(Ng5332
tp5347
F0.018433179723502304
s(S'.2'
p5348
S'.2'
p5349
tp5350
F0.002304147465437788
s(g5345
S'Contingency.2'
p5351
tp5352
F0.01152073732718894
s(g5351
S'Expansion.2'
p5353
tp5354
F0.004608294930875576
s(NS'Comparison.1'
p5355
tp5356
F0.009216589861751152
s(S'.2'
p5357
Ntp5358
F0.03686635944700461
s(NS'Expansion.2'
p5359
tp5360
F0.02304147465437788
s(g5355
Ntp5361
F0.052995391705069124
ssS'apwsE960303.0079-2-2-0.perm-13.txt.pipe'
p5362
(dp5363
sS'apwsE960207.0124-2-2-0.perm-1.txt.pipe'
p5364
(dp5365
sS'apwsE950307.0067-0-1.perm-13.txt.pipe'
p5366
(dp5367
sS'apwsE960216.0241-2-2-0.perm-1.txt.pipe'
p5368
(dp5369
sS'apwsE951125.0054-2-2-0.perm-12.txt.pipe'
p5370
(dp5371
(S'Expansion.2'
p5372
S'.1'
p5373
tp5374
F0.003257328990228013
s(S'.2'
p5375
S'.2'
p5376
tp5377
F0.009771986970684038
s(S'Comparison.2'
p5378
Ntp5379
F0.03908794788273615
s(NNtp5380
F0.4592833876221498
s(NS'.1'
p5381
tp5382
F0.06188925081433225
s(NS'Comparison.2'
p5383
tp5384
F0.06188925081433225
s(S'Expansion.2'
p5385
Ntp5386
F0.019543973941368076
s(NS'Expansion.1'
p5387
tp5388
F0.026058631921824105
s(g5381
Ntp5389
F0.06514657980456026
s(S'Comparison.2'
p5390
g5385
tp5391
F0.016286644951140065
s(g5387
Ntp5392
F0.026058631921824105
s(S'.1'
p5393
S'Comparison.1'
p5394
tp5395
F0.009771986970684038
s(NS'.2'
p5396
tp5397
F0.09771986970684039
s(g5383
g5376
tp5398
F0.006514657980456026
s(g5393
S'.1'
p5399
tp5400
F0.013029315960912053
s(NS'Comparison.1'
p5401
tp5402
F0.013029315960912053
s(S'.2'
p5403
Ntp5404
F0.03908794788273615
s(NS'Expansion.2'
p5405
tp5406
F0.006514657980456026
s(S'Comparison.1'
p5407
Ntp5408
F0.026058631921824105
ssS'apwsE951216.0211-2-2-0.perm-11.txt.pipe'
p5409
(dp5410
sS'apwsE950307.0067-0-1.perm-10.txt.pipe'
p5411
(dp5412
sS'apwsE960303.0090-2-2-0.perm-13.txt.pipe'
p5413
(dp5414
sS'apwsE951001.0242-2-2-0.perm-10.txt.pipe'
p5415
(dp5416
sS'apwsE951201.0003-2-2-0.perm-11.txt.pipe'
p5417
(dp5418
sS'apwsE951121.0032-2-2-0.perm-1.txt.pipe'
p5419
(dp5420
sS'apwsE950928.0094-0-1.perm-11.txt.pipe'
p5421
(dp5422
sS'apwsE950905.0546-2-2-0.perm-11.txt.pipe'
p5423
(dp5424
sS'apwsE950213.0175-0-1.perm-12.txt.pipe'
p5425
(dp5426
sS'apwsE951001.0279-2-2-0.perm-10.txt.pipe'
p5427
(dp5428
sS'apwsE960206.0441-2-2-0.perm-1.txt.pipe'
p5429
(dp5430
sS'apwsE960203.0270-2-2-0.perm-11.txt.pipe'
p5431
(dp5432
(S'Expansion.1'
p5433
Ntp5434
F0.16
s(S'Expansion.2'
p5435
Ntp5436
F0.06
s(S'Expansion.1'
p5437
S'Expansion.2'
p5438
tp5439
F0.01
s(NS'Expansion.1'
p5440
tp5441
F0.05
s(NS'Expansion.2'
p5442
tp5443
F0.11
s(NNtp5444
F0.61
ssS'apwsE960109.0103-2-2-0.perm-10.txt.pipe'
p5445
(dp5446
sS'apwsE951023.0362-2-2-0.perm-11.txt.pipe'
p5447
(dp5448
sS'apwsE950905.0546-2-2-0.perm-12.txt.pipe'
p5449
(dp5450
sS'apwsE951001.0257-2-2-0.perm-13.txt.pipe'
p5451
(dp5452
(S'.1'
p5453
Ntp5454
F0.05844155844155844
s(S'Expansion.1'
p5455
Ntp5456
F0.08441558441558442
s(NS'.2'
p5457
tp5458
F0.09090909090909091
s(NNtp5459
F0.5584415584415584
s(S'Temporal.2'
p5460
Ntp5461
F0.032467532467532464
s(Ng5453
tp5462
F0.05844155844155844
s(S'Expansion.2'
p5463
Ntp5464
F0.032467532467532464
s(S'Temporal.1'
p5465
Ntp5466
F0.05194805194805195
s(S'Temporal.2'
p5467
g5463
tp5468
F0.032467532467532464
ssS'apwsE951009.0294-2-2-0.perm-12.txt.pipe'
p5469
(dp5470
s.