(dp0
S'apwsE960207.0124-2-2-0.perm-13.txt.pipe'
p1
(dp2
sS'apwsE951024.0072-2-2-0.perm-10.txt.pipe'
p3
(dp4
(S'Comparison.Contrast.1'
p5
Ntp6
F0.10416666666666667
s(NS'Comparison.Concession.1'
p7
tp8
F0.16666666666666666
s(S'Comparison.Contrast.2'
p9
Ntp10
F0.14583333333333334
s(NS'Comparison.Concession.2'
p11
tp12
F0.16666666666666666
s(S'Comparison.Contrast.1'
p13
S'Comparison.Concession.2'
p14
tp15
F0.020833333333333332
s(NNtp16
F0.3958333333333333
ssS'apwsE960313.0026-2-2-0.perm-13.txt.pipe'
p17
(dp18
sS'apwsE960313.0250-0-1.perm-12.txt.pipe'
p19
(dp20
sS'apwsE960313.0250-0-1.perm-11.txt.pipe'
p21
(dp22
sS'apwsE951001.0279-2-2-0.perm-13.txt.pipe'
p23
(dp24
(S'.1'
p25
Ntp26
F0.05653710247349823
s(NS'Temporal.Asynchronous.2'
p27
tp28
F0.011778563015312132
s(NS'.2'
p29
tp30
F0.071849234393404
s(S'Expansion.Conjunction.1'
p31
Ntp32
F0.0176678445229682
s(NS'Temporal.Asynchronous.1'
p33
tp34
F0.009422850412249705
s(S'.2'
p35
S'.2'
p36
tp37
F0.011778563015312132
s(S'.1'
p38
S'.1'
p39
tp40
F0.004711425206124852
s(NS'Expansion.Conjunction.2'
p41
tp42
F0.028268551236749116
s(NNtp43
F0.6760895170789164
s(g41
Ntp44
F0.007067137809187279
s(NS'Expansion.Conjunction.1'
p45
tp46
F0.004711425206124852
s(g29
Ntp47
F0.04946996466431095
s(Ng25
tp48
F0.045936395759717315
s(S'.2'
p49
S'.1'
p50
tp51
F0.001177856301531213
s(S'.2'
p52
S'Expansion.Conjunction.2'
p53
tp54
F0.0035335689045936395
ssS'apwsE951001.0279-2-2-0.perm-1.txt.pipe'
p55
(dp56
(S'.1'
p57
Ntp58
F0.060167555217060166
s(S'.2'
p59
S'.2'
p60
tp61
F0.024371667936024372
s(S'Temporal.Asynchronous.1'
p62
Ntp63
F0.00456968773800457
s(S'Temporal.Asynchronous.1'
p64
S'.1'
p65
tp66
F0.0015232292460015233
s(S'.1'
p67
S'.1'
p68
tp69
F0.012185833968012186
s(NS'Expansion.Conjunction.2'
p70
tp71
F0.003808073115003808
s(NNtp72
F0.6808834729626809
s(S'Temporal.Asynchronous.2'
p73
Ntp74
F0.003808073115003808
s(Ng57
tp75
F0.04950495049504951
s(S'.2'
p76
g68
tp77
F0.005331302361005331
s(S'.2'
p78
S'Expansion.Conjunction.2'
p79
tp80
F0.0007616146230007616
s(S'.1'
p81
S'Expansion.Conjunction.1'
p82
tp83
F0.0007616146230007616
s(NS'.2'
p84
tp85
F0.07083015993907082
s(S'Expansion.Conjunction.1'
p86
Ntp87
F0.00456968773800457
s(S'Temporal.Asynchronous.2'
p88
S'.2'
p89
tp90
F0.003808073115003808
s(Ng86
tp91
F0.003808073115003808
s(g84
Ntp92
F0.06930693069306931
ssS'apwsE951009.0226-2-2-0.perm-10.txt.pipe'
p93
(dp94
sS'apwsE951221.0001-0-1.perm-11.txt.pipe'
p95
(dp96
sS'apwsE960109.0130-2-2-0.perm-10.txt.pipe'
p97
(dp98
(S'Contingency.Cause.1'
p99
Ntp100
F0.0008136696501220504
s(S'Comparison.Contrast.2'
p101
Ntp102
F0.0040683482506102524
s(S'.2'
p103
S'.2'
p104
tp105
F0.021969080553295363
s(S'.1'
p106
S'Comparison.Contrast.2'
p107
tp108
F0.0016273393002441008
s(Ng101
tp109
F0.0024410089503661514
s(g106
S'.1'
p110
tp111
F0.008136696501220505
s(NNtp112
F0.6094385679414158
s(S'Comparison.Contrast.1'
p113
Ntp114
F0.005695687550854353
s(NS'.1'
p115
tp116
F0.06997558991049634
s(S'Contingency.Cause.2'
p117
Ntp118
F0.005695687550854353
s(g115
Ntp119
F0.07892595606183889
s(S'.2'
p120
g110
tp121
F0.0040683482506102524
s(g120
g107
tp122
F0.0008136696501220504
s(NS'.2'
p123
tp124
F0.0984540276647681
s(Ng113
tp125
F0.005695687550854353
s(S'.2'
p126
Ntp127
F0.0821806346623271
ssS'apwsE960102.0206-0-1.perm-12.txt.pipe'
p128
(dp129
sS'apwsE950914.0074-0-1.perm-10.txt.pipe'
p130
(dp131
sS'apwsE951221.0049-2-2-0.perm-11.txt.pipe'
p132
(dp133
sS'apwsE950827.0022-2-2-0.perm-10.txt.pipe'
p134
(dp135
sS'apwsE951125.0054-2-2-0.perm-11.txt.pipe'
p136
(dp137
(S'Comparison.Contrast.2'
p138
Ntp139
F0.10576923076923077
s(NS'.2'
p140
tp141
F0.09615384615384616
s(S'Comparison.Contrast.1'
p142
S'.1'
p143
tp144
F0.009615384615384616
s(Ng138
tp145
F0.15384615384615385
s(S'Comparison.Contrast.2'
p146
S'.2'
p147
tp148
F0.04807692307692308
s(NS'.1'
p149
tp150
F0.057692307692307696
s(S'Comparison.Contrast.1'
p151
Ntp152
F0.09615384615384616
s(g149
Ntp153
F0.0673076923076923
s(NNtp154
F0.36538461538461536
ssS'apwsE951215.0060-2-2-0.perm-13.txt.pipe'
p155
(dp156
sS'apwsE950914.0071-0-1.perm-12.txt.pipe'
p157
(dp158
sS'apwsE950307.0067-0-1.perm-12.txt.pipe'
p159
(dp160
sS'apwsE951222.0206-2-2-0.perm-12.txt.pipe'
p161
(dp162
sS'apwsE950827.0022-2-2-0.perm-12.txt.pipe'
p163
(dp164
(S'Contingency.Cause.1'
p165
Ntp166
F0.05555555555555555
s(NS'Temporal.Asynchronous.2'
p167
tp168
F0.16666666666666666
s(NS'Temporal.Asynchronous.1'
p169
tp170
F0.08333333333333333
s(NS'Comparison.Contrast.1'
p171
tp172
F0.16666666666666666
s(S'Contingency.Cause.2'
p173
S'Comparison.Contrast.1'
p174
tp175
F0.027777777777777776
s(NS'Comparison.Contrast.2'
p176
tp177
F0.16666666666666666
s(g173
S'Temporal.Asynchronous.2'
p178
tp179
F0.027777777777777776
s(S'Contingency.Cause.2'
p180
Ntp181
F0.2777777777777778
s(S'Contingency.Cause.1'
p182
S'Comparison.Contrast.2'
p183
tp184
F0.027777777777777776
ssS'apwsE951101.0026-0-1.perm-10.txt.pipe'
p185
(dp186
sS'apwsE951009.0244-2-2-0.perm-13.txt.pipe'
p187
(dp188
(S'Contingency.Cause.1'
p189
Ntp190
F0.02768166089965398
s(S'Expansion.Restatement.1'
p191
Ntp192
F0.0034602076124567475
s(S'Comparison.Contrast.2'
p193
Ntp194
F0.031141868512110725
s(S'Expansion.Conjunction.1'
p195
Ntp196
F0.010380622837370242
s(NNtp197
F0.6678200692041523
s(S'.1'
p198
Ntp199
F0.03460207612456748
s(S'Comparison.Contrast.1'
p200
Ntp201
F0.031141868512110725
s(NS'Temporal.Synchrony.1'
p202
tp203
F0.0034602076124567475
s(S'Contingency.Cause.2'
p204
Ntp205
F0.031141868512110725
s(Ng198
tp206
F0.03460207612456748
s(NS'Expansion.Restatement.2'
p207
tp208
F0.04152249134948097
s(NS'.2'
p209
tp210
F0.006920415224913495
s(S'Expansion.Conjunction.1'
p211
S'Temporal.Synchrony.2'
p212
tp213
F0.006920415224913495
s(S'Expansion.Conjunction.2'
p214
Ntp215
F0.01730103806228374
s(g207
Ntp216
F0.03460207612456748
s(Ng191
tp217
F0.0034602076124567475
s(NS'Temporal.Synchrony.2'
p218
tp219
F0.006920415224913495
s(S'Expansion.Restatement.2'
p220
S'.2'
p221
tp222
F0.006920415224913495
ssS'apwsE951122.0012-0-1.perm-11.txt.pipe'
p223
(dp224
sS'apwsE951009.0216-2-2-0.perm-1.txt.pipe'
p225
(dp226
sS'apwsE951009.0228-2-2-0.perm-13.txt.pipe'
p227
(dp228
(S'Contingency.Cause.1'
p229
Ntp230
F0.01348747591522158
s(S'Contingency.Cause.2'
p231
S'.1'
p232
tp233
F0.0019267822736030828
s(S'Comparison.Contrast.2'
p234
Ntp235
F0.015414258188824663
s(S'.2'
p236
S'.2'
p237
tp238
F0.01348747591522158
s(S'.1'
p239
Ntp240
F0.04046242774566474
s(S'Comparison.Contrast.1'
p241
g232
tp242
F0.0019267822736030828
s(Ng234
tp243
F0.023121387283236993
s(S'.1'
p244
S'.1'
p245
tp246
F0.0019267822736030828
s(NNtp247
F0.6570327552986512
s(S'Comparison.Contrast.1'
p248
Ntp249
F0.036608863198458574
s(S'Contingency.Cause.2'
p250
Ntp251
F0.011560693641618497
s(Ng239
tp252
F0.038535645472061654
s(S'.2'
p253
g245
tp254
F0.0019267822736030828
s(NS'.2'
p255
tp256
F0.05973025048169557
s(NS'Contingency.Cause.2'
p257
tp258
F0.028901734104046242
s(NS'Comparison.Contrast.1'
p259
tp260
F0.02119460500963391
s(g255
Ntp261
F0.030828516377649325
s(NS'Contingency.Cause.1'
p262
tp263
F0.0019267822736030828
ssS'apwsE951024.0005-2-2-0.perm-1.txt.pipe'
p264
(dp265
(S'Expansion.Conjunction.1'
p266
Ntp267
F0.13043478260869565
s(NS'Comparison.Contrast.1'
p268
tp269
F0.08695652173913043
s(S'Expansion.Conjunction.2'
p270
S'Expansion.Conjunction.2'
p271
tp272
F0.021739130434782608
s(NS'Comparison.Contrast.2'
p273
tp274
F0.13043478260869565
s(NNtp275
F0.34782608695652173
s(NS'Expansion.Conjunction.2'
p276
tp277
F0.043478260869565216
s(S'Expansion.Conjunction.2'
p278
Ntp279
F0.13043478260869565
s(NS'Expansion.Conjunction.1'
p280
tp281
F0.08695652173913043
s(g271
S'Comparison.Contrast.1'
p282
tp283
F0.021739130434782608
ssS'apwsE951018.0070-2-2-0.perm-12.txt.pipe'
p284
(dp285
sS'apwsE950425.0109-0-1.perm-12.txt.pipe'
p286
(dp287
sS'apwsE951121.0032-2-2-0.perm-10.txt.pipe'
p288
(dp289
sS'apwsE951201.0010-0-1.perm-10.txt.pipe'
p290
(dp291
sS'apwsE951221.0056-2-2-0.perm-10.txt.pipe'
p292
(dp293
sS'apwsE950425.0109-0-1.perm-11.txt.pipe'
p294
(dp295
sS'apwsE951216.0211-2-2-0.perm-1.txt.pipe'
p296
(dp297
sS'apwsE951006.0493-2-2-0.perm-1.txt.pipe'
p298
(dp299
(S'Contingency.Cause.1'
p300
Ntp301
F0.0043541364296081275
s(S'Comparison.Contrast.2'
p302
S'Expansion.Conjunction.2'
p303
tp304
F0.0043541364296081275
s(S'Comparison.Contrast.2'
p305
Ntp306
F0.013062409288824383
s(S'Expansion.Conjunction.1'
p307
Ntp308
F0.02177068214804064
s(S'Temporal.Asynchronous.1'
p309
Ntp310
F0.013062409288824383
s(Ng305
tp311
F0.05224963715529753
s(NNtp312
F0.6473149492017417
s(NS'Expansion.Conjunction.2'
p313
tp314
F0.027576197387518143
s(S'Comparison.Contrast.1'
p315
Ntp316
F0.059506531204644414
s(S'Temporal.Asynchronous.2'
p317
Ntp318
F0.013062409288824383
s(S'Contingency.Cause.2'
p319
Ntp320
F0.018867924528301886
s(NS'Comparison.Concession.2'
p321
tp322
F0.013062409288824383
s(S'Expansion.Conjunction.2'
p323
S'Expansion.Conjunction.1'
p324
tp325
F0.001451378809869376
s(S'Temporal.Asynchronous.2'
p326
S'Comparison.Contrast.1'
p327
tp328
F0.002902757619738752
s(g326
S'Expansion.Conjunction.2'
p329
tp330
F0.002902757619738752
s(NS'Comparison.Contrast.1'
p331
tp332
F0.02902757619738752
s(S'Comparison.Contrast.2'
p333
S'Comparison.Contrast.1'
p334
tp335
F0.002902757619738752
s(S'Expansion.Conjunction.2'
p336
Ntp337
F0.023222060957910014
s(S'Comparison.Contrast.1'
p338
g324
tp339
F0.001451378809869376
s(NS'Comparison.Concession.1'
p340
tp341
F0.010159651669085631
s(S'Contingency.Cause.2'
p342
S'Comparison.Concession.2'
p343
tp344
F0.002902757619738752
s(Ng307
tp345
F0.02902757619738752
s(S'Expansion.Conjunction.1'
p346
g334
tp347
F0.0043541364296081275
s(S'Comparison.Contrast.1'
p348
S'Expansion.Conjunction.2'
p349
tp350
F0.001451378809869376
ssS'apwsE960108.0194-2-2-0.perm-1.txt.pipe'
p351
(dp352
sS'apwsE951009.0216-2-2-0.perm-11.txt.pipe'
p353
(dp354
sS'apwsE960207.0124-2-2-0.perm-12.txt.pipe'
p355
(dp356
sS'apwsE960207.0018-2-2-0.perm-13.txt.pipe'
p357
(dp358
(NS'Comparison.Contrast.1'
p359
tp360
F0.18518518518518517
s(NS'Comparison.Contrast.2'
p361
tp362
F0.037037037037037035
s(NNtp363
F0.2962962962962963
s(NS'Expansion.Conjunction.2'
p364
tp365
F0.3333333333333333
s(S'Expansion.Conjunction.1'
p366
Ntp367
F0.14814814814814814
ssS'apwsE950119.0186-0-1.perm-1.txt.pipe'
p368
(dp369
sS'apwsE960122.0410-0-1.perm-10.txt.pipe'
p370
(dp371
(S'Comparison.Contrast.1'
p372
Ntp373
F0.08695652173913043
s(S'Comparison.Contrast.1'
p374
S'Comparison.Contrast.1'
p375
tp376
F0.08695652173913043
s(S'Comparison.Contrast.2'
p377
Ntp378
F0.34782608695652173
s(NS'Comparison.Contrast.1'
p379
tp380
F0.17391304347826086
s(S'Comparison.Contrast.2'
p381
S'Comparison.Contrast.1'
p382
tp383
F0.043478260869565216
s(NS'Comparison.Contrast.2'
p384
tp385
F0.2608695652173913
ssS'apwsE951020.0432-2-2-0.perm-12.txt.pipe'
p386
(dp387
(S'Comparison.Contrast.2'
p388
Ntp389
F0.019178082191780823
s(S'.2'
p390
S'.2'
p391
tp392
F0.024657534246575342
s(NS'Comparison.Contrast.2'
p393
tp394
F0.030136986301369864
s(S'.1'
p395
S'.1'
p396
tp397
F0.00410958904109589
s(NS'Expansion.Conjunction.2'
p398
tp399
F0.02054794520547945
s(S'.1'
p400
Ntp401
F0.04794520547945205
s(S'Comparison.Contrast.2'
p402
g396
tp403
F0.0013698630136986301
s(S'Comparison.Contrast.1'
p404
Ntp405
F0.019178082191780823
s(S'.2'
p406
S'Expansion.Conjunction.2'
p407
tp408
F0.00684931506849315
s(S'.1'
p409
S'Expansion.Conjunction.1'
p410
tp411
F0.0013698630136986301
s(NS'.2'
p412
tp413
F0.0821917808219178
s(g402
S'Contingency.Condition.1'
p414
tp415
F0.0013698630136986301
s(NS'Comparison.Contrast.1'
p416
tp417
F0.015068493150684932
s(S'Comparison.Contrast.2'
p418
S'Comparison.Contrast.1'
p419
tp420
F0.0013698630136986301
s(S'Comparison.Contrast.2'
p421
S'.2'
p422
tp423
F0.010958904109589041
s(S'Expansion.Conjunction.2'
p424
Ntp425
F0.00684931506849315
s(NS'Expansion.Conjunction.1'
p426
tp427
F0.02054794520547945
s(NS'Contingency.Condition.1'
p428
tp429
F0.0027397260273972603
s(S'Expansion.Conjunction.1'
p430
g404
tp431
F0.0013698630136986301
s(g426
Ntp432
F0.026027397260273973
s(S'Expansion.Conjunction.2'
p433
g419
tp434
F0.0013698630136986301
s(g395
S'Comparison.Contrast.2'
p435
tp436
F0.0013698630136986301
s(S'Comparison.Contrast.1'
p437
S'.1'
p438
tp439
F0.0027397260273972603
s(NNtp440
F0.5164383561643836
s(NS'.1'
p441
tp442
F0.03287671232876712
s(S'Comparison.Contrast.2'
p443
S'Comparison.Contrast.2'
p444
tp445
F0.00410958904109589
s(NS'Contingency.Condition.2'
p446
tp447
F0.00410958904109589
s(g428
Ntp448
F0.00410958904109589
s(g395
g414
tp449
F0.0013698630136986301
s(g437
S'Comparison.Contrast.1'
p450
tp451
F0.0013698630136986301
s(g446
Ntp452
F0.00410958904109589
s(S'.1'
p453
g450
tp454
F0.0013698630136986301
s(S'.2'
p455
g410
tp456
F0.0013698630136986301
s(S'Expansion.Conjunction.2'
p457
g444
tp458
F0.0027397260273972603
s(g412
Ntp459
F0.07671232876712329
ssS'apwsE960109.0412-0-1.perm-1.txt.pipe'
p460
(dp461
sS'apwsE951018.0182-2-2-0.perm-13.txt.pipe'
p462
(dp463
(NS'Contingency.Condition.1'
p464
tp465
F0.06896551724137931
s(S'Temporal.Synchrony.2'
p466
Ntp467
F0.2413793103448276
s(S'Temporal.Synchrony.1'
p468
Ntp469
F0.20689655172413793
s(NS'Contingency.Condition.2'
p470
tp471
F0.4827586206896552
ssS'apwsE950112.0297-0-1.perm-1.txt.pipe'
p472
(dp473
sS'apwsE951024.0005-2-2-0.perm-10.txt.pipe'
p474
(dp475
(S'.1'
p476
Ntp477
F0.10887772194304858
s(S'Comparison.Contrast.2'
p478
Ntp479
F0.010050251256281407
s(S'.2'
p480
S'.2'
p481
tp482
F0.03350083752093802
s(S'Comparison.Contrast.1'
p483
S'.1'
p484
tp485
F0.0016750418760469012
s(S'.1'
p486
S'.1'
p487
tp488
F0.01675041876046901
s(NS'Expansion.Conjunction.2'
p489
tp490
F0.005025125628140704
s(NNtp491
F0.47906197654941374
s(S'Comparison.Contrast.1'
p492
Ntp493
F0.006700167504187605
s(Ng476
tp494
F0.09045226130653267
s(S'Expansion.Conjunction.2'
p495
S'.2'
p496
tp497
F0.0016750418760469012
s(S'.2'
p498
S'.1'
p499
tp500
F0.005025125628140704
s(Ng480
tp501
F0.11725293132328309
s(S'Expansion.Conjunction.1'
p502
Ntp503
F0.006700167504187605
s(g489
Ntp504
F0.0033500837520938024
s(Ng502
tp505
F0.006700167504187605
s(g481
Ntp506
F0.10720268006700168
ssS'apwsE951009.0294-2-2-0.perm-11.txt.pipe'
p507
(dp508
sS'apwsE951009.0294-2-2-0.perm-10.txt.pipe'
p509
(dp510
sS'apwsE951003.0004-2-2-0.perm-1.txt.pipe'
p511
(dp512
(NNtp513
F0.4117647058823529
s(NS'Expansion.Conjunction.2'
p514
tp515
F0.3235294117647059
s(S'Expansion.Conjunction.1'
p516
Ntp517
F0.2647058823529412
ssS'apwsE950827.0022-2-2-0.perm-1.txt.pipe'
p518
(dp519
(S'Comparison.Contrast.1'
p520
S'Contingency.Cause.2'
p521
tp522
F0.027777777777777776
s(S'Comparison.Contrast.2'
p523
Ntp524
F0.16666666666666666
s(NS'Contingency.Cause.2'
p525
tp526
F0.2777777777777778
s(S'Temporal.Asynchronous.1'
p527
Ntp528
F0.08333333333333333
s(S'Temporal.Asynchronous.2'
p529
g521
tp530
F0.027777777777777776
s(S'Comparison.Contrast.1'
p531
Ntp532
F0.16666666666666666
s(S'Temporal.Asynchronous.2'
p533
Ntp534
F0.16666666666666666
s(NS'Contingency.Cause.1'
p535
tp536
F0.05555555555555555
s(S'Comparison.Contrast.2'
p537
S'Contingency.Cause.1'
p538
tp539
F0.027777777777777776
ssS'apwsE950925.0091-0-1.perm-10.txt.pipe'
p540
(dp541
(NS'Expansion.Conjunction.2'
p542
tp543
F0.5833333333333334
s(S'Expansion.Conjunction.1'
p544
Ntp545
F0.4166666666666667
ssS'apwsE951009.0245-2-2-0.perm-12.txt.pipe'
p546
(dp547
(S'Contingency.Cause.1'
p548
Ntp549
F0.01283147989734816
s(S'Comparison.Contrast.2'
p550
Ntp551
F0.013686911890504704
s(S'.2'
p552
S'.2'
p553
tp554
F0.00427715996578272
s(Ng550
tp555
F0.017964071856287425
s(NS'Expansion.Conjunction.2'
p556
tp557
F0.01283147989734816
s(S'.1'
p558
Ntp559
F0.02737382378100941
s(S'Comparison.Contrast.1'
p560
Ntp561
F0.018819503849443968
s(S'Contingency.Cause.1'
p562
S'.1'
p563
tp564
F0.000855431993156544
s(S'Contingency.Cause.2'
p565
Ntp566
F0.01454234388366125
s(S'.2'
p567
S'Expansion.Conjunction.2'
p568
tp569
F0.00855431993156544
s(Ng567
tp570
F0.05132591958939264
s(NS'Contingency.Cause.2'
p571
tp572
F0.01454234388366125
s(g571
S'.2'
p573
tp574
F0.000855431993156544
s(NS'Comparison.Contrast.1'
p575
tp576
F0.010265183917878529
s(S'Comparison.Contrast.2'
p577
S'.2'
p578
tp579
F0.0025662959794696323
s(g568
Ntp580
F0.029940119760479042
s(NS'Expansion.Conjunction.1'
p581
tp582
F0.01283147989734816
s(S'Comparison.Contrast.2'
p583
S'Contingency.Cause.2'
p584
tp585
F0.0025662959794696323
s(S'Contingency.Cause.2'
p586
g584
tp587
F0.0025662959794696323
s(S'.2'
p588
g584
tp589
F0.003421727972626176
s(S'Expansion.Conjunction.1'
p590
Ntp591
F0.016253207869974338
s(NNtp592
F0.6390076988879384
s(g556
g573
tp593
F0.001710863986313088
s(S'Expansion.Conjunction.2'
p594
S'Temporal.Synchrony.2'
p595
tp596
F0.000855431993156544
s(S'Expansion.Conjunction.1'
p597
S'.1'
p598
tp599
F0.000855431993156544
s(Ng558
tp600
F0.02566295979469632
s(S'.2'
p601
g598
tp602
F0.000855431993156544
s(S'.2'
p603
S'Comparison.Contrast.2'
p604
tp605
F0.000855431993156544
s(NS'Temporal.Synchrony.1'
p606
tp607
F0.000855431993156544
s(g562
S'Expansion.Conjunction.1'
p608
tp609
F0.000855431993156544
s(S'.2'
p610
Ntp611
F0.033361847733105215
s(NS'Temporal.Synchrony.2'
p612
tp613
F0.0025662959794696323
s(Ng548
tp614
F0.013686911890504704
ssS'apwsE960313.0036-2-2-0.perm-1.txt.pipe'
p615
(dp616
sS'apwsE960102.0206-0-1.perm-1.txt.pipe'
p617
(dp618
(NS'.2'
p619
tp620
F0.35294117647058826
s(S'.1'
p621
Ntp622
F0.6470588235294118
ssS'apwsE951009.0305-2-2-0.perm-11.txt.pipe'
p623
(dp624
(S'Contingency.Cause.1'
p625
Ntp626
F0.015238095238095238
s(S'Temporal.Synchrony.2'
p627
Ntp628
F0.007619047619047619
s(S'Comparison.Contrast.2'
p629
Ntp630
F0.017142857142857144
s(S'Expansion.Conjunction.1'
p631
Ntp632
F0.024761904761904763
s(S'Contingency.Cause.2'
p633
Ntp634
F0.017142857142857144
s(NS'Comparison.Contrast.2'
p635
tp636
F0.024761904761904763
s(NNtp637
F0.7276190476190476
s(NS'Expansion.Conjunction.2'
p638
tp639
F0.06285714285714286
s(S'Expansion.Conjunction.2'
p640
Ntp641
F0.009523809523809525
s(S'Comparison.Contrast.1'
p642
Ntp643
F0.04380952380952381
s(Ng631
tp644
F0.04380952380952381
s(S'Temporal.Synchrony.1'
p645
Ntp646
F0.0019047619047619048
s(S'Expansion.Conjunction.1'
p647
S'Expansion.Conjunction.1'
p648
tp649
F0.0038095238095238095
ssS'apwsE960108.0238-2-2-0.perm-1.txt.pipe'
p650
(dp651
sS'apwsE960303.0079-2-2-0.perm-12.txt.pipe'
p652
(dp653
sS'apwsE950919.0202-2-2-0.perm-13.txt.pipe'
p654
(dp655
sS'apwsE951023.0362-2-2-0.perm-10.txt.pipe'
p656
(dp657
sS'apwsE960313.0250-0-1.perm-13.txt.pipe'
p658
(dp659
sS'apwsE951001.0302-2-2-0.perm-11.txt.pipe'
p660
(dp661
(S'Contingency.Cause.1'
p662
Ntp663
F0.0006218905472636816
s(S'.2'
p664
S'.2'
p665
tp666
F0.009328358208955223
s(NS'Temporal.Asynchronous.1'
p667
tp668
F0.004975124378109453
s(g667
Ntp669
F0.004975124378109453
s(S'.1'
p670
S'.1'
p671
tp672
F0.004353233830845771
s(NS'Expansion.Conjunction.2'
p673
tp674
F0.01181592039800995
s(S'.1'
p675
Ntp676
F0.041044776119402986
s(S'.2'
p677
S'Expansion.Restatement.2'
p678
tp679
F0.0012437810945273632
s(S'.2'
p680
S'Expansion.Conjunction.2'
p681
tp682
F0.003109452736318408
s(S'Expansion.Restatement.2'
p683
S'.1'
p684
tp685
F0.0006218905472636816
s(S'.1'
p686
S'Expansion.Restatement.1'
p687
tp688
F0.0006218905472636816
s(NS'Temporal.Asynchronous.2'
p689
tp690
F0.004353233830845771
s(NS'.2'
p691
tp692
F0.053482587064676616
s(NS'Contingency.Cause.2'
p693
tp694
F0.007462686567164179
s(NS'Expansion.Restatement.2'
p695
tp696
F0.006218905472636816
s(S'Expansion.Conjunction.2'
p697
Ntp698
F0.009328358208955223
s(S'Temporal.Asynchronous.2'
p699
S'Expansion.Conjunction.2'
p700
tp701
F0.003109452736318408
s(NS'Expansion.Conjunction.1'
p702
tp703
F0.014303482587064677
s(S'Expansion.Conjunction.1'
p704
S'Temporal.Asynchronous.2'
p705
tp706
F0.0006218905472636816
s(S'Expansion.Restatement.2'
p707
S'.2'
p708
tp709
F0.0006218905472636816
s(S'Expansion.Restatement.1'
p710
Ntp711
F0.0037313432835820895
s(g695
Ntp712
F0.006218905472636816
s(S'.2'
p713
S'Contingency.Cause.2'
p714
tp715
F0.0006218905472636816
s(g702
Ntp716
F0.014303482587064677
s(S'Expansion.Conjunction.2'
p717
g700
tp718
F0.003109452736318408
s(NNtp719
F0.6958955223880597
s(Ng675
tp720
F0.03482587064676617
s(g705
Ntp721
F0.003109452736318408
s(S'Expansion.Restatement.1'
p722
S'.1'
p723
tp724
F0.0006218905472636816
s(S'.2'
p725
g699
tp726
F0.0012437810945273632
s(S'.2'
p727
g671
tp728
F0.0024875621890547263
s(g704
S'Expansion.Conjunction.1'
p729
tp730
F0.0006218905472636816
s(g691
Ntp731
F0.04664179104477612
s(Ng722
tp732
F0.0037313432835820895
s(Ng662
tp733
F0.0006218905472636816
ssS'apwsE950919.0594-2-2-0.perm-12.txt.pipe'
p734
(dp735
sS'apwsE951221.0001-0-1.perm-12.txt.pipe'
p736
(dp737
(S'Comparison.Contrast.1'
p738
Ntp739
F0.19047619047619047
s(S'Comparison.Contrast.1'
p740
S'Comparison.Contrast.1'
p741
tp742
F0.09523809523809523
s(S'Comparison.Contrast.2'
p743
Ntp744
F0.2857142857142857
s(S'Comparison.Contrast.1'
p745
S'Comparison.Contrast.2'
p746
tp747
F0.047619047619047616
s(NS'Comparison.Contrast.1'
p748
tp749
F0.047619047619047616
s(NS'Comparison.Contrast.2'
p750
tp751
F0.3333333333333333
ssS'apwsE951024.0072-2-2-0.perm-11.txt.pipe'
p752
(dp753
(S'Comparison.Concession.1'
p754
Ntp755
F0.07291666666666667
s(S'Comparison.Contrast.2'
p756
Ntp757
F0.07291666666666667
s(NNtp758
F0.4375
s(NS'Expansion.Conjunction.2'
p759
tp760
F0.052083333333333336
s(S'Comparison.Concession.1'
p761
S'Expansion.Conjunction.1'
p762
tp763
F0.010416666666666666
s(S'Comparison.Contrast.1'
p764
Ntp765
F0.052083333333333336
s(Ng754
tp766
F0.08333333333333333
s(NS'Expansion.Conjunction.1'
p767
tp768
F0.03125
s(NS'Comparison.Concession.2'
p769
tp770
F0.08333333333333333
s(g769
Ntp771
F0.09375
s(S'Comparison.Contrast.1'
p772
S'Comparison.Concession.2'
p773
tp774
F0.010416666666666666
ssS'apwsE951006.0493-2-2-0.perm-13.txt.pipe'
p775
(dp776
(S'Contingency.Cause.1'
p777
Ntp778
F0.0017271157167530224
s(S'Comparison.Concession.1'
p779
Ntp780
F0.006044905008635579
s(S'Comparison.Contrast.2'
p781
Ntp782
F0.03540587219343696
s(S'Expansion.Conjunction.1'
p783
Ntp784
F0.016407599309153715
s(NS'Temporal.Asynchronous.1'
p785
tp786
F0.0069084628670120895
s(S'Contingency.Cause.2'
p787
Ntp788
F0.012953367875647668
s(NS'Comparison.Contrast.2'
p789
tp790
F0.046632124352331605
s(NNtp791
F0.7245250431778929
s(NS'Expansion.Conjunction.2'
p792
tp793
F0.02158894645941278
s(S'Comparison.Contrast.1'
p794
Ntp795
F0.039723661485319514
s(S'Comparison.Contrast.2'
p796
S'Temporal.Asynchronous.1'
p797
tp798
F0.0008635578583765112
s(S'Expansion.Conjunction.2'
p799
S'Comparison.Contrast.2'
p800
tp801
F0.0025906735751295338
s(S'Comparison.Concession.2'
p802
S'Expansion.Conjunction.2'
p803
tp804
F0.004317789291882556
s(NS'Temporal.Asynchronous.2'
p805
tp806
F0.008635578583765112
s(S'Contingency.Cause.1'
p807
S'Expansion.Conjunction.2'
p808
tp809
F0.0008635578583765112
s(Ng794
tp810
F0.038860103626943004
s(S'Comparison.Contrast.2'
p811
S'Temporal.Asynchronous.2'
p812
tp813
F0.0008635578583765112
s(S'Expansion.Conjunction.2'
p814
Ntp815
F0.017271157167530225
s(NS'Expansion.Conjunction.1'
p816
tp817
F0.007772020725388601
s(S'Comparison.Concession.2'
p818
Ntp819
F0.0051813471502590676
s(g807
S'Comparison.Contrast.1'
p820
tp821
F0.0008635578583765112
ssS'apwsE950331.0603-0-1.perm-13.txt.pipe'
p822
(dp823
sS'apwsE951010.0048-2-2-0.perm-10.txt.pipe'
p824
(dp825
(S'Temporal.Asynchronous.2'
p826
S'Comparison.Contrast.2'
p827
tp828
F0.0031914893617021275
s(S'Comparison.Contrast.2'
p829
Ntp830
F0.014893617021276596
s(S'Expansion.Conjunction.1'
p831
Ntp832
F0.007446808510638298
s(NS'Temporal.Asynchronous.1'
p833
tp834
F0.007446808510638298
s(S'Temporal.Asynchronous.1'
p835
Ntp836
F0.018085106382978722
s(Ng829
tp837
F0.03404255319148936
s(NNtp838
F0.7351063829787234
s(S'Comparison.Contrast.1'
p839
Ntp840
F0.030851063829787233
s(NS'Temporal.Synchrony.1'
p841
tp842
F0.019148936170212766
s(S'Temporal.Asynchronous.2'
p843
Ntp844
F0.031914893617021274
s(g841
Ntp845
F0.019148936170212766
s(S'Temporal.Synchrony.2'
p846
Ntp847
F0.00425531914893617
s(Ng843
tp848
F0.015957446808510637
s(Ng839
tp849
F0.02553191489361702
s(S'Expansion.Conjunction.2'
p850
Ntp851
F0.006382978723404255
s(NS'Temporal.Synchrony.2'
p852
tp853
F0.026595744680851064
ssS'apwsE960313.0026-2-2-0.perm-12.txt.pipe'
p854
(dp855
sS'apwsE951003.0485-2-2-0.perm-13.txt.pipe'
p856
(dp857
sS'apwsE951203.0078-2-2-0.perm-13.txt.pipe'
p858
(dp859
(S'Comparison.Contrast.1'
p860
Ntp861
F0.3125
s(S'Comparison.Contrast.2'
p862
Ntp863
F0.125
s(S'Comparison.Contrast.1'
p864
S'Comparison.Contrast.2'
p865
tp866
F0.0625
s(NS'Comparison.Contrast.1'
p867
tp868
F0.0625
s(S'Comparison.Contrast.2'
p869
S'Comparison.Contrast.1'
p870
tp871
F0.125
s(NS'Comparison.Contrast.2'
p872
tp873
F0.3125
ssS'apwsE960508.0041-2-2-0.perm-11.txt.pipe'
p874
(dp875
sS'apwsE951010.0048-2-2-0.perm-11.txt.pipe'
p876
(dp877
(NS'Temporal.Asynchronous.2'
p878
tp879
F0.009950248756218905
s(S'Comparison.Contrast.2'
p880
Ntp881
F0.013266998341625208
s(NS'Temporal.Asynchronous.1'
p882
tp883
F0.011608623548922056
s(S'Temporal.Asynchronous.2'
p884
S'Temporal.Synchrony.1'
p885
tp886
F0.001658374792703151
s(Ng880
tp887
F0.03150912106135987
s(NNtp888
F0.8009950248756219
s(NS'Expansion.Conjunction.2'
p889
tp890
F0.009950248756218905
s(S'Comparison.Contrast.1'
p891
Ntp892
F0.004975124378109453
s(NS'Temporal.Synchrony.1'
p893
tp894
F0.01658374792703151
s(S'Temporal.Asynchronous.2'
p895
Ntp896
F0.01824212271973466
s(NS'Expansion.Conjunction.1'
p897
tp898
F0.011608623548922056
s(NS'Temporal.Synchrony.2'
p899
tp900
F0.04311774461028192
s(g893
Ntp901
F0.02155887230514096
s(S'Temporal.Asynchronous.1'
p902
Ntp903
F0.001658374792703151
s(S'Temporal.Asynchronous.1'
p904
S'Temporal.Synchrony.1'
p905
tp906
F0.003316749585406302
ssS'apwsE951003.0004-2-2-0.perm-12.txt.pipe'
p907
(dp908
(S'Contingency.Cause.1'
p909
Ntp910
F0.006644518272425249
s(S'Expansion.Conjunction.1'
p911
Ntp912
F0.016611295681063124
s(NNtp913
F0.6378737541528239
s(NS'Expansion.Conjunction.2'
p914
tp915
F0.029900332225913623
s(S'.1'
p916
Ntp917
F0.054817275747508304
s(S'Contingency.Cause.2'
p918
Ntp919
F0.009966777408637873
s(NS'.1'
p920
tp921
F0.03986710963455149
s(S'.2'
p922
S'Expansion.Conjunction.2'
p923
tp924
F0.008305647840531562
s(NS'.2'
p925
tp926
F0.06976744186046512
s(Ng918
tp927
F0.009966777408637873
s(S'Contingency.Cause.2'
p928
S'.2'
p929
tp930
F0.0033222591362126247
s(S'.2'
p931
S'.2'
p932
tp933
F0.008305647840531562
s(S'Expansion.Conjunction.2'
p934
Ntp935
F0.013289036544850499
s(Ng909
tp936
F0.006644518272425249
s(Ng911
tp937
F0.016611295681063124
s(g925
Ntp938
F0.06478405315614617
s(S'Expansion.Conjunction.2'
p939
S'Contingency.Cause.2'
p940
tp941
F0.0033222591362126247
ssS'apwsE951010.0048-2-2-0.perm-12.txt.pipe'
p942
(dp943
(S'Comparison.Contrast.2'
p944
S'Temporal.Synchrony.1'
p945
tp946
F0.003896103896103896
s(S'Comparison.Contrast.2'
p947
Ntp948
F0.033766233766233764
s(NS'Temporal.Asynchronous.1'
p949
tp950
F0.007792207792207792
s(g949
Ntp951
F0.00909090909090909
s(NS'Comparison.Contrast.2'
p952
tp953
F0.045454545454545456
s(NNtp954
F0.7350649350649351
s(S'Comparison.Contrast.1'
p955
Ntp956
F0.015584415584415584
s(NS'Temporal.Synchrony.1'
p957
tp958
F0.02727272727272727
s(S'Temporal.Asynchronous.2'
p959
Ntp960
F0.015584415584415584
s(S'Comparison.Contrast.2'
p961
S'Temporal.Asynchronous.1'
p962
tp963
F0.0012987012987012987
s(g957
Ntp964
F0.03116883116883117
s(S'Temporal.Synchrony.2'
p965
Ntp966
F0.005194805194805195
s(NS'Temporal.Asynchronous.2'
p967
tp968
F0.016883116883116882
s(NS'Comparison.Contrast.1'
p969
tp970
F0.01038961038961039
s(g944
g959
tp971
F0.0025974025974025974
s(g967
S'Temporal.Synchrony.2'
p972
tp973
F0.003896103896103896
s(NS'Temporal.Synchrony.2'
p974
tp975
F0.03506493506493506
ssS'apwsE960203.0270-2-2-0.perm-1.txt.pipe'
p976
(dp977
sS'apwsE950928.0080-0-1.perm-13.txt.pipe'
p978
(dp979
sS'apwsE951210.0051-2-2-0.perm-11.txt.pipe'
p980
(dp981
sS'apwsE960207.0488-2-2-0.perm-10.txt.pipe'
p982
(dp983
(NS'Expansion.Alternative.2'
p984
tp985
F0.23076923076923078
s(S'Expansion.Conjunction.1'
p986
S'Expansion.Alternative.1'
p987
tp988
F0.02564102564102564
s(NS'Expansion.Alternative.1'
p989
tp990
F0.10256410256410256
s(NS'Expansion.Conjunction.2'
p991
tp992
F0.41025641025641024
s(S'Expansion.Conjunction.1'
p993
Ntp994
F0.23076923076923078
ssS'apwsE960109.0412-0-1.perm-10.txt.pipe'
p995
(dp996
sS'apwsE960313.0036-2-2-0.perm-10.txt.pipe'
p997
(dp998
(S'Contingency.Cause.1'
p999
Ntp1000
F0.010638297872340425
s(NS'Contingency.Cause.2'
p1001
tp1002
F0.10638297872340426
s(NS'Comparison.Contrast.1'
p1003
tp1004
F0.11702127659574468
s(S'Temporal.Asynchronous.1'
p1005
Ntp1006
F0.07446808510638298
s(NS'Comparison.Contrast.2'
p1007
tp1008
F0.07446808510638298
s(NNtp1009
F0.35106382978723405
s(S'Temporal.Asynchronous.2'
p1010
Ntp1011
F0.1276595744680851
s(g1001
Ntp1012
F0.10638297872340426
s(S'Contingency.Cause.1'
p1013
S'Comparison.Contrast.2'
p1014
tp1015
F0.010638297872340425
s(Ng999
tp1016
F0.02127659574468085
ssS'apwsE951023.0357-2-2-0.perm-11.txt.pipe'
p1017
(dp1018
sS'apwsE951020.0432-2-2-0.perm-11.txt.pipe'
p1019
(dp1020
(S'Contingency.Cause.1'
p1021
Ntp1022
F0.004581151832460733
s(S'Comparison.Contrast.2'
p1023
Ntp1024
F0.009162303664921465
s(S'.2'
p1025
S'.2'
p1026
tp1027
F0.015706806282722512
s(NS'Comparison.Contrast.2'
p1028
tp1029
F0.01963350785340314
s(S'.1'
p1030
S'.1'
p1031
tp1032
F0.005235602094240838
s(NS'Expansion.Conjunction.2'
p1033
tp1034
F0.010471204188481676
s(S'.1'
p1035
Ntp1036
F0.037303664921465966
s(S'Comparison.Contrast.2'
p1037
S'.1'
p1038
tp1039
F0.0006544502617801048
s(S'Comparison.Contrast.1'
p1040
Ntp1041
F0.008507853403141362
s(S'Contingency.Cause.2'
p1042
Ntp1043
F0.003926701570680628
s(S'.2'
p1044
S'Expansion.Conjunction.2'
p1045
tp1046
F0.004581151832460733
s(S'Expansion.Restatement.2'
p1047
S'.1'
p1048
tp1049
F0.0006544502617801048
s(S'Expansion.Restatement.1'
p1050
S'.1'
p1051
tp1052
F0.0006544502617801048
s(S'.1'
p1053
S'Expansion.Conjunction.1'
p1054
tp1055
F0.001963350785340314
s(Ng1044
tp1056
F0.06217277486910995
s(Ng1042
tp1057
F0.004581151832460733
s(S'Comparison.Contrast.2'
p1058
S'Expansion.Conjunction.1'
p1059
tp1060
F0.0006544502617801048
s(Ng1040
tp1061
F0.010471204188481676
s(g1028
S'.2'
p1062
tp1063
F0.006544502617801047
s(g1045
Ntp1064
F0.004581151832460733
s(S'Comparison.Contrast.1'
p1065
S'Expansion.Conjunction.1'
p1066
tp1067
F0.0006544502617801048
s(S'.1'
p1068
S'Contingency.Condition.1'
p1069
tp1070
F0.0006544502617801048
s(S'Expansion.Restatement.2'
p1071
Ntp1072
F0.002617801047120419
s(NS'Expansion.Conjunction.1'
p1073
tp1074
F0.014397905759162303
s(NS'Contingency.Condition.1'
p1075
tp1076
F0.0013089005235602095
s(S'Expansion.Conjunction.1'
p1077
S'Comparison.Contrast.1'
p1078
tp1079
F0.0006544502617801048
s(S'Expansion.Restatement.2'
p1080
S'.2'
p1081
tp1082
F0.004581151832460733
s(S'Expansion.Restatement.1'
p1083
Ntp1084
F0.001963350785340314
s(S'.2'
p1085
g1078
tp1086
F0.0006544502617801048
s(S'Contingency.Cause.2'
p1087
g1051
tp1088
F0.0006544502617801048
s(g1073
Ntp1089
F0.014397905759162303
s(g1068
g1058
tp1090
F0.0006544502617801048
s(S'Comparison.Contrast.1'
p1091
S'.1'
p1092
tp1093
F0.0013089005235602095
s(S'.2'
p1094
g1069
tp1095
F0.0006544502617801048
s(NNtp1096
F0.6138743455497382
s(g1033
S'.2'
p1097
tp1098
F0.0032722513089005235
s(g1037
g1058
tp1099
F0.0006544502617801048
s(S'Expansion.Conjunction.1'
p1100
S'.1'
p1101
tp1102
F0.0013089005235602095
s(g1075
Ntp1103
F0.0013089005235602095
s(Ng1035
tp1104
F0.037303664921465966
s(Ng1080
tp1105
F0.007853403141361256
s(S'.2'
p1106
g1101
tp1107
F0.002617801047120419
s(S'Contingency.Condition.2'
p1108
Ntp1109
F0.001963350785340314
s(g1094
g1058
tp1110
F0.0006544502617801048
s(g1069
g1059
tp1111
F0.0006544502617801048
s(g1091
S'Comparison.Contrast.1'
p1112
tp1113
F0.0006544502617801048
s(g1037
g1069
tp1114
F0.0006544502617801048
s(g1101
S'Comparison.Contrast.1'
p1115
tp1116
F0.002617801047120419
s(S'.2'
p1117
g1054
tp1118
F0.0013089005235602095
s(g1026
Ntp1119
F0.06086387434554974
s(Ng1083
tp1120
F0.002617801047120419
s(g1047
S'Comparison.Contrast.1'
p1121
tp1122
F0.0006544502617801048
s(Ng1108
tp1123
F0.001963350785340314
ssS'apwsE951009.0305-2-2-0.perm-13.txt.pipe'
p1124
(dp1125
(S'Comparison.Contrast.2'
p1126
S'Expansion.Conjunction.2'
p1127
tp1128
F0.002304147465437788
s(S'Comparison.Contrast.2'
p1129
Ntp1130
F0.018433179723502304
s(S'Expansion.Conjunction.1'
p1131
Ntp1132
F0.03225806451612903
s(S'Comparison.Contrast.1'
p1133
S'Expansion.Conjunction.2'
p1134
tp1135
F0.002304147465437788
s(S'Expansion.Conjunction.2'
p1136
g1127
tp1137
F0.002304147465437788
s(NS'Comparison.Contrast.2'
p1138
tp1139
F0.03686635944700461
s(NNtp1140
F0.7442396313364056
s(NS'Expansion.Conjunction.2'
p1141
tp1142
F0.08755760368663594
s(S'Comparison.Contrast.1'
p1143
Ntp1144
F0.016129032258064516
s(g1134
S'Expansion.Conjunction.1'
p1145
tp1146
F0.002304147465437788
s(S'Temporal.Synchrony.1'
p1147
Ntp1148
F0.002304147465437788
s(S'Temporal.Synchrony.2'
p1149
S'Comparison.Contrast.1'
p1150
tp1151
F0.002304147465437788
s(S'Temporal.Synchrony.2'
p1152
Ntp1153
F0.0069124423963133645
s(NS'Comparison.Contrast.1'
p1154
tp1155
F0.0069124423963133645
s(S'Expansion.Conjunction.2'
p1156
Ntp1157
F0.004608294930875576
s(NS'Expansion.Conjunction.1'
p1158
tp1159
F0.03225806451612903
ssS'apwsE951009.0278-2-2-0.perm-10.txt.pipe'
p1160
(dp1161
(S'Temporal.Synchrony.2'
p1162
Ntp1163
F0.008333333333333333
s(S'Temporal.Synchrony.2'
p1164
S'Expansion.Conjunction.2'
p1165
tp1166
F0.002777777777777778
s(NS'.2'
p1167
tp1168
F0.019444444444444445
s(S'Expansion.Conjunction.1'
p1169
Ntp1170
F0.041666666666666664
s(NNtp1171
F0.7555555555555555
s(NS'Expansion.Conjunction.2'
p1172
tp1173
F0.06388888888888888
s(S'.1'
p1174
Ntp1175
F0.005555555555555556
s(S'Expansion.Conjunction.2'
p1176
Ntp1177
F0.022222222222222223
s(g1165
S'Expansion.Conjunction.1'
p1178
tp1179
F0.002777777777777778
s(Ng1169
tp1180
F0.05277777777777778
s(g1167
Ntp1181
F0.019444444444444445
s(S'Temporal.Synchrony.1'
p1182
Ntp1183
F0.002777777777777778
s(S'Expansion.Conjunction.1'
p1184
S'Expansion.Conjunction.1'
p1185
tp1186
F0.002777777777777778
ssS'apwsE950928.0094-0-1.perm-13.txt.pipe'
p1187
(dp1188
sS'apwsE951018.0070-2-2-0.perm-10.txt.pipe'
p1189
(dp1190
sS'apwsE951201.0010-0-1.perm-13.txt.pipe'
p1191
(dp1192
(S'Comparison.Contrast.1'
p1193
Ntp1194
F0.17857142857142858
s(S'Comparison.Contrast.1'
p1195
S'Comparison.Contrast.1'
p1196
tp1197
F0.07142857142857142
s(S'Comparison.Contrast.2'
p1198
Ntp1199
F0.35714285714285715
s(NS'Comparison.Contrast.1'
p1200
tp1201
F0.14285714285714285
s(S'Comparison.Contrast.2'
p1202
S'Comparison.Contrast.1'
p1203
tp1204
F0.03571428571428571
s(NS'Comparison.Contrast.2'
p1205
tp1206
F0.21428571428571427
ssS'apwsE960104.0037-0-1.perm-1.txt.pipe'
p1207
(dp1208
sS'apwsE950919.0564-2-2-0.perm-11.txt.pipe'
p1209
(dp1210
(S'Contingency.Cause.1'
p1211
Ntp1212
F0.13333333333333333
s(S'Contingency.Cause.1'
p1213
S'Expansion.Conjunction.1'
p1214
tp1215
F0.03333333333333333
s(S'Contingency.Cause.2'
p1216
Ntp1217
F0.16666666666666666
s(NS'Expansion.Conjunction.1'
p1218
tp1219
F0.06666666666666667
s(NNtp1220
F0.4666666666666667
s(NS'Expansion.Conjunction.2'
p1221
tp1222
F0.13333333333333333
ssS'apwsE951122.0012-0-1.perm-13.txt.pipe'
p1223
(dp1224
sS'apwsE951210.0356-2-2-0.perm-12.txt.pipe'
p1225
(dp1226
sS'apwsE951001.0242-2-2-0.perm-12.txt.pipe'
p1227
(dp1228
sS'apwsE960313.0026-2-2-0.perm-10.txt.pipe'
p1229
(dp1230
sS'apwsE951024.0005-2-2-0.perm-13.txt.pipe'
p1231
(dp1232
sS'apwsE951201.0010-0-1.perm-12.txt.pipe'
p1233
(dp1234
sS'apwsE960122.0410-0-1.perm-13.txt.pipe'
p1235
(dp1236
(S'Comparison.Contrast.1'
p1237
Ntp1238
F0.13793103448275862
s(S'Comparison.Contrast.1'
p1239
S'Comparison.Contrast.1'
p1240
tp1241
F0.06896551724137931
s(S'Comparison.Contrast.2'
p1242
Ntp1243
F0.20689655172413793
s(S'Comparison.Contrast.1'
p1244
S'Comparison.Contrast.2'
p1245
tp1246
F0.034482758620689655
s(NS'Comparison.Contrast.1'
p1247
tp1248
F0.1724137931034483
s(NS'Comparison.Contrast.2'
p1249
tp1250
F0.3793103448275862
ssS'apwsE950914.0074-0-1.perm-1.txt.pipe'
p1251
(dp1252
sS'apwsE950119.0186-0-1.perm-12.txt.pipe'
p1253
(dp1254
sS'apwsE951020.0432-2-2-0.perm-1.txt.pipe'
p1255
(dp1256
(S'Expansion.Conjunction.1'
p1257
Ntp1258
F0.1258741258741259
s(NS'Comparison.Contrast.1'
p1259
tp1260
F0.03496503496503497
s(NS'Expansion.Conjunction.1'
p1261
tp1262
F0.02097902097902098
s(NS'Comparison.Contrast.2'
p1263
tp1264
F0.027972027972027972
s(NNtp1265
F0.5384615384615384
s(NS'Expansion.Conjunction.2'
p1266
tp1267
F0.14685314685314685
s(S'Expansion.Conjunction.2'
p1268
Ntp1269
F0.04895104895104895
s(S'Expansion.Conjunction.1'
p1270
S'Comparison.Contrast.2'
p1271
tp1272
F0.006993006993006993
s(g1266
S'Expansion.Conjunction.2'
p1273
tp1274
F0.03496503496503497
s(S'Expansion.Conjunction.1'
p1275
S'Expansion.Conjunction.1'
p1276
tp1277
F0.013986013986013986
ssS'apwsE951024.0123-2-2-0.perm-1.txt.pipe'
p1278
(dp1279
(S'Comparison.Contrast.1'
p1280
S'Comparison.Contrast.1'
p1281
tp1282
F0.028846153846153848
s(S'Comparison.Contrast.2'
p1283
Ntp1284
F0.057692307692307696
s(S'Expansion.Conjunction.1'
p1285
Ntp1286
F0.019230769230769232
s(S'Comparison.Contrast.1'
p1287
S'Comparison.Contrast.2'
p1288
tp1289
F0.009615384615384616
s(NS'Comparison.Contrast.1'
p1290
tp1291
F0.10576923076923077
s(NS'Comparison.Contrast.2'
p1292
tp1293
F0.09615384615384616
s(NNtp1294
F0.625
s(S'Expansion.Conjunction.2'
p1295
Ntp1296
F0.028846153846153848
s(S'Comparison.Contrast.1'
p1297
Ntp1298
F0.019230769230769232
s(S'Comparison.Contrast.2'
p1299
S'Comparison.Contrast.2'
p1300
tp1301
F0.009615384615384616
ssS'apwsE951009.0305-2-2-0.perm-12.txt.pipe'
p1302
(dp1303
(S'Comparison.Contrast.2'
p1304
Ntp1305
F0.015486725663716814
s(S'Expansion.Conjunction.1'
p1306
Ntp1307
F0.030973451327433628
s(NS'Comparison.Contrast.1'
p1308
tp1309
F0.00663716814159292
s(NS'Comparison.Contrast.2'
p1310
tp1311
F0.02654867256637168
s(NNtp1312
F0.7743362831858407
s(NS'Expansion.Conjunction.2'
p1313
tp1314
F0.07743362831858407
s(S'Expansion.Conjunction.2'
p1315
Ntp1316
F0.011061946902654867
s(S'Comparison.Contrast.1'
p1317
Ntp1318
F0.030973451327433628
s(S'Expansion.Conjunction.1'
p1319
S'Comparison.Contrast.2'
p1320
tp1321
F0.0022123893805309734
s(NS'Expansion.Conjunction.1'
p1322
tp1323
F0.022123893805309734
s(S'Expansion.Conjunction.1'
p1324
S'Comparison.Contrast.1'
p1325
tp1326
F0.0022123893805309734
ssS'apwsE951001.0302-2-2-0.perm-10.txt.pipe'
p1327
(dp1328
(S'Contingency.Cause.1'
p1329
Ntp1330
F0.006962025316455696
s(NS'NoRel.2'
p1331
tp1332
F0.004430379746835443
s(S'.2'
p1333
S'Contingency.Cause.2'
p1334
tp1335
F0.0012658227848101266
s(S'.2'
p1336
S'.2'
p1337
tp1338
F0.016455696202531647
s(NS'Temporal.Asynchronous.1'
p1339
tp1340
F0.005063291139240506
s(g1339
Ntp1341
F0.005063291139240506
s(S'.1'
p1342
S'.1'
p1343
tp1344
F0.004430379746835443
s(NS'Expansion.Conjunction.2'
p1345
tp1346
F0.012025316455696202
s(S'.1'
p1347
Ntp1348
F0.04683544303797468
s(S'Expansion.Conjunction.2'
p1349
S'.2'
p1350
tp1351
F0.0031645569620253164
s(S'Temporal.Asynchronous.2'
p1352
Ntp1353
F0.0031645569620253164
s(S'Contingency.Cause.2'
p1354
Ntp1355
F0.006329113924050633
s(S'.1'
p1356
S'Contingency.Cause.1'
p1357
tp1358
F0.0006329113924050633
s(Ng1347
tp1359
F0.04746835443037975
s(S'Temporal.Asynchronous.2'
p1360
g1350
tp1361
F0.0031645569620253164
s(Ng1352
tp1362
F0.006329113924050633
s(NS'.2'
p1363
tp1364
F0.05759493670886076
s(Ng1354
tp1365
F0.006962025316455696
s(g1334
S'.2'
p1366
tp1367
F0.0018987341772151898
s(S'Expansion.Conjunction.1'
p1368
Ntp1369
F0.0006329113924050633
s(g1345
Ntp1370
F0.008860759493670886
s(S'NoRel.1'
p1371
Ntp1372
F0.006962025316455696
s(S'.2'
p1373
g1343
tp1374
F0.0006329113924050633
s(g1363
Ntp1375
F0.05189873417721519
s(Ng1329
tp1376
F0.006329113924050633
s(NNtp1377
F0.6854430379746835
ssS'apwsE950620.0596-0-1.perm-11.txt.pipe'
p1378
(dp1379
sS'apwsE960109.0103-2-2-0.perm-13.txt.pipe'
p1380
(dp1381
sS'apwsE951210.0051-2-2-0.perm-13.txt.pipe'
p1382
(dp1383
sS'apwsE950112.0297-0-1.perm-13.txt.pipe'
p1384
(dp1385
sS'apwsE960104.0037-0-1.perm-12.txt.pipe'
p1386
(dp1387
sS'apwsE951024.0020-2-2-0.perm-11.txt.pipe'
p1388
(dp1389
(S'Comparison.Contrast.2'
p1390
Ntp1391
F0.07142857142857142
s(S'Expansion.Conjunction.1'
p1392
Ntp1393
F0.02857142857142857
s(S'Comparison.Contrast.2'
p1394
S'Expansion.Conjunction.1'
p1395
tp1396
F0.02857142857142857
s(NS'Comparison.Contrast.1'
p1397
tp1398
F0.05714285714285714
s(S'Comparison.Contrast.1'
p1399
S'Expansion.Conjunction.2'
p1400
tp1401
F0.014285714285714285
s(Ng1390
tp1402
F0.1
s(NNtp1403
F0.44285714285714284
s(NS'Expansion.Conjunction.2'
p1404
tp1405
F0.02857142857142857
s(S'Expansion.Conjunction.2'
p1406
Ntp1407
F0.05714285714285714
s(g1397
Ntp1408
F0.04285714285714286
s(S'Comparison.Contrast.1'
p1409
S'Expansion.Conjunction.1'
p1410
tp1411
F0.014285714285714285
s(NS'Expansion.Conjunction.1'
p1412
tp1413
F0.1
s(S'Expansion.Conjunction.2'
p1414
g1399
tp1415
F0.014285714285714285
ssS'apwsE960216.0269-2-2-0.perm-11.txt.pipe'
p1416
(dp1417
(NS'Temporal.Asynchronous.2'
p1418
tp1419
F0.2982456140350877
s(NS'Comparison.Contrast.1'
p1420
tp1421
F0.21052631578947367
s(S'Temporal.Asynchronous.1'
p1422
Ntp1423
F0.07017543859649122
s(NS'Comparison.Contrast.2'
p1424
tp1425
F0.10526315789473684
s(NNtp1426
F0.2982456140350877
s(S'Temporal.Asynchronous.1'
p1427
S'Comparison.Contrast.2'
p1428
tp1429
F0.017543859649122806
ssS'apwsE950331.0603-0-1.perm-1.txt.pipe'
p1430
(dp1431
sS'apwsE951106.0072-2-2-0.perm-11.txt.pipe'
p1432
(dp1433
sS'apwsE951221.0056-2-2-0.perm-1.txt.pipe'
p1434
(dp1435
sS'apwsE960508.0041-2-2-0.perm-10.txt.pipe'
p1436
(dp1437
sS'apwsE951203.0078-2-2-0.perm-1.txt.pipe'
p1438
(dp1439
sS'apwsE951024.0072-2-2-0.perm-12.txt.pipe'
p1440
(dp1441
(S'Expansion.Conjunction.2'
p1442
Ntp1443
F0.0625
s(NS'Comparison.Contrast.1'
p1444
tp1445
F0.125
s(NS'Comparison.Contrast.2'
p1446
tp1447
F0.14583333333333334
s(NNtp1448
F0.5833333333333334
s(S'Expansion.Conjunction.1'
p1449
Ntp1450
F0.08333333333333333
ssS'apwsE950331.0603-0-1.perm-10.txt.pipe'
p1451
(dp1452
sS'apwsE951009.0294-2-2-0.perm-13.txt.pipe'
p1453
(dp1454
sS'apwsE960313.0061-2-2-0.perm-1.txt.pipe'
p1455
(dp1456
sS'apwsE951006.0493-2-2-0.perm-11.txt.pipe'
p1457
(dp1458
(S'Contingency.Cause.1'
p1459
Ntp1460
F0.0057692307692307696
s(S'Contingency.Cause.2'
p1461
S'Comparison.Contrast.2'
p1462
tp1463
F0.009615384615384616
s(S'Temporal.Asynchronous.2'
p1464
S'Comparison.Contrast.2'
p1465
tp1466
F0.007692307692307693
s(S'Comparison.Contrast.2'
p1467
Ntp1468
F0.023076923076923078
s(S'Expansion.Conjunction.1'
p1469
Ntp1470
F0.013461538461538462
s(S'Temporal.Asynchronous.1'
p1471
Ntp1472
F0.013461538461538462
s(NS'Comparison.Contrast.2'
p1473
tp1474
F0.05576923076923077
s(NNtp1475
F0.6365384615384615
s(NS'Expansion.Conjunction.2'
p1476
tp1477
F0.03076923076923077
s(S'Comparison.Contrast.1'
p1478
Ntp1479
F0.07884615384615384
s(g1473
g1459
tp1480
F0.0019230769230769232
s(S'Contingency.Cause.2'
p1481
Ntp1482
F0.019230769230769232
s(S'Temporal.Asynchronous.1'
p1483
S'Expansion.Conjunction.2'
p1484
tp1485
F0.0019230769230769232
s(Ng1461
tp1486
F0.026923076923076925
s(NS'Comparison.Contrast.1'
p1487
tp1488
F0.026923076923076925
s(g1473
g1478
tp1489
F0.0019230769230769232
s(S'Expansion.Conjunction.2'
p1490
Ntp1491
F0.011538461538461539
s(S'Comparison.Contrast.1'
p1492
S'Expansion.Conjunction.1'
p1493
tp1494
F0.0019230769230769232
s(S'Temporal.Asynchronous.1'
p1495
g1493
tp1496
F0.0019230769230769232
s(S'Temporal.Asynchronous.2'
p1497
S'Expansion.Conjunction.2'
p1498
tp1499
F0.0019230769230769232
s(NS'Expansion.Conjunction.1'
p1500
tp1501
F0.0038461538461538464
s(S'Comparison.Contrast.2'
p1502
S'Contingency.Cause.2'
p1503
tp1504
F0.0019230769230769232
s(S'Comparison.Contrast.1'
p1505
S'Expansion.Conjunction.2'
p1506
tp1507
F0.0057692307692307696
s(NS'Contingency.Cause.1'
p1508
tp1509
F0.0038461538461538464
s(S'Temporal.Asynchronous.2'
p1510
Ntp1511
F0.013461538461538462
ssS'apwsE951216.0211-2-2-0.perm-13.txt.pipe'
p1512
(dp1513
sS'apwsE960106.0047-2-2-0.perm-13.txt.pipe'
p1514
(dp1515
sS'apwsE951218.0398-0-1.perm-1.txt.pipe'
p1516
(dp1517
sS'apwsE950919.0580-2-2-0.perm-12.txt.pipe'
p1518
(dp1519
sS'apwsE951024.0072-2-2-0.perm-13.txt.pipe'
p1520
(dp1521
(S'Expansion.Conjunction.2'
p1522
Ntp1523
F0.08333333333333333
s(S'Expansion.Conjunction.1'
p1524
S'Comparison.Contrast.2'
p1525
tp1526
F0.020833333333333332
s(S'Expansion.Conjunction.1'
p1527
Ntp1528
F0.0625
s(NS'Comparison.Contrast.1'
p1529
tp1530
F0.10416666666666667
s(NS'Comparison.Contrast.2'
p1531
tp1532
F0.125
s(NNtp1533
F0.5833333333333334
s(S'Expansion.Conjunction.2'
p1534
S'Comparison.Contrast.1'
p1535
tp1536
F0.020833333333333332
ssS'apwsE960207.0018-2-2-0.perm-1.txt.pipe'
p1537
(dp1538
(S'Expansion.Conjunction.1'
p1539
Ntp1540
F0.4411764705882353
s(NS'Comparison.Contrast.1'
p1541
tp1542
F0.11764705882352941
s(S'Expansion.Conjunction.1'
p1543
S'Comparison.Contrast.1'
p1544
tp1545
F0.029411764705882353
s(NS'Comparison.Contrast.2'
p1546
tp1547
F0.029411764705882353
s(NNtp1548
F0.2647058823529412
s(NS'Expansion.Conjunction.2'
p1549
tp1550
F0.11764705882352941
ssS'apwsE951221.0001-0-1.perm-10.txt.pipe'
p1551
(dp1552
sS'apwsE951001.0302-2-2-0.perm-1.txt.pipe'
p1553
(dp1554
(S'.1'
p1555
Ntp1556
F0.048431480462300495
s(S'Expansion.Conjunction.1'
p1557
Ntp1558
F0.006053935057787562
s(S'Temporal.Asynchronous.1'
p1559
Ntp1560
F0.003302146395156852
s(S'Expansion.Conjunction.2'
p1561
S'Expansion.Conjunction.2'
p1562
tp1563
F0.000550357732526142
s(S'Temporal.Asynchronous.1'
p1564
S'.1'
p1565
tp1566
F0.001100715465052284
s(S'.1'
p1567
S'.1'
p1568
tp1569
F0.01100715465052284
s(NS'Expansion.Conjunction.2'
p1570
tp1571
F0.009906439185470555
s(NNtp1572
F0.7303247110621904
s(S'Temporal.Asynchronous.2'
p1573
Ntp1574
F0.00275178866263071
s(Ng1555
tp1575
F0.04072647220693451
s(S'.2'
p1576
g1568
tp1577
F0.00550357732526142
s(S'.2'
p1578
g1561
tp1579
F0.000550357732526142
s(S'.1'
p1580
S'Expansion.Conjunction.1'
p1581
tp1582
F0.000550357732526142
s(NS'.2'
p1583
tp1584
F0.056686846450192625
s(S'.2'
p1585
S'.2'
p1586
tp1587
F0.017611447440836543
s(S'Expansion.Conjunction.2'
p1588
Ntp1589
F0.00275178866263071
s(S'Temporal.Asynchronous.2'
p1590
S'.2'
p1591
tp1592
F0.00275178866263071
s(Ng1557
tp1593
F0.00550357732526142
s(g1583
Ntp1594
F0.05393505778756191
ssS'apwsE960102.0206-0-1.perm-10.txt.pipe'
p1595
(dp1596
sS'apwsE960313.0024-2-2-0.perm-10.txt.pipe'
p1597
(dp1598
sS'apwsE951201.0003-2-2-0.perm-10.txt.pipe'
p1599
(dp1600
sS'apwsE951222.0206-2-2-0.perm-13.txt.pipe'
p1601
(dp1602
(S'.1'
p1603
Ntp1604
F0.10451977401129943
s(NS'.2'
p1605
tp1606
F0.1807909604519774
s(S'.2'
p1607
S'.2'
p1608
tp1609
F0.05367231638418079
s(S'.1'
p1610
S'.1'
p1611
tp1612
F0.00847457627118644
s(NNtp1613
F0.4435028248587571
s(g1605
Ntp1614
F0.11016949152542373
s(NS'.1'
p1615
tp1616
F0.09322033898305085
s(S'.2'
p1617
g1611
tp1618
F0.005649717514124294
ssS'apwsE950827.0035-2-2-0.perm-12.txt.pipe'
p1619
(dp1620
sS'apwsE950827.0022-2-2-0.perm-13.txt.pipe'
p1621
(dp1622
(S'Contingency.Cause.1'
p1623
Ntp1624
F0.05555555555555555
s(NS'Temporal.Asynchronous.2'
p1625
tp1626
F0.16666666666666666
s(NS'Temporal.Asynchronous.1'
p1627
tp1628
F0.08333333333333333
s(NS'Comparison.Contrast.1'
p1629
tp1630
F0.16666666666666666
s(S'Contingency.Cause.2'
p1631
S'Comparison.Contrast.1'
p1632
tp1633
F0.027777777777777776
s(NS'Comparison.Contrast.2'
p1634
tp1635
F0.16666666666666666
s(g1631
S'Temporal.Asynchronous.2'
p1636
tp1637
F0.027777777777777776
s(S'Contingency.Cause.2'
p1638
Ntp1639
F0.2777777777777778
s(S'Contingency.Cause.1'
p1640
S'Comparison.Contrast.2'
p1641
tp1642
F0.027777777777777776
ssS'apwsE951009.0226-2-2-0.perm-12.txt.pipe'
p1643
(dp1644
sS'apwsE951201.0010-0-1.perm-1.txt.pipe'
p1645
(dp1646
sS'apwsE950905.0546-2-2-0.perm-10.txt.pipe'
p1647
(dp1648
sS'apwsE951201.0003-2-2-0.perm-12.txt.pipe'
p1649
(dp1650
sS'apwsE951218.0398-0-1.perm-10.txt.pipe'
p1651
(dp1652
sS'apwsE951201.0003-2-2-0.perm-1.txt.pipe'
p1653
(dp1654
sS'apwsE951023.0362-2-2-0.perm-12.txt.pipe'
p1655
(dp1656
sS'apwsE951215.0060-2-2-0.perm-11.txt.pipe'
p1657
(dp1658
sS'apwsE951101.0026-0-1.perm-13.txt.pipe'
p1659
(dp1660
sS'apwsE951009.0226-2-2-0.perm-11.txt.pipe'
p1661
(dp1662
sS'apwsE951122.0004-0-1.perm-1.txt.pipe'
p1663
(dp1664
sS'apwsE951009.0244-2-2-0.perm-10.txt.pipe'
p1665
(dp1666
(S'Contingency.Cause.1'
p1667
Ntp1668
F0.011711125569290826
s(S'Comparison.Contrast.2'
p1669
Ntp1670
F0.007807417046193884
s(S'.2'
p1671
S'.2'
p1672
tp1673
F0.01236174365647365
s(Ng1669
tp1674
F0.011060507482108002
s(S'.1'
p1675
S'.1'
p1676
tp1677
F0.0032530904359141183
s(NS'Expansion.Conjunction.2'
p1678
tp1679
F0.011711125569290826
s(S'.1'
p1680
Ntp1681
F0.04163955757970072
s(S'Comparison.Contrast.2'
p1682
S'.1'
p1683
tp1684
F0.0013012361743656475
s(S'Comparison.Contrast.1'
p1685
Ntp1686
F0.009108653220559532
s(S'Contingency.Cause.2'
p1687
Ntp1688
F0.009108653220559532
s(NS'.2'
p1689
tp1690
F0.057905009759271306
s(NS'Contingency.Cause.2'
p1691
tp1692
F0.02277163305139883
s(S'Contingency.Cause.2'
p1693
S'.2'
p1694
tp1695
F0.001951854261548471
s(Ng1685
tp1696
F0.0071567989590110605
s(S'Comparison.Contrast.2'
p1697
S'.2'
p1698
tp1699
F0.004554326610279766
s(S'Expansion.Conjunction.2'
p1700
Ntp1701
F0.002602472348731295
s(NS'Expansion.Conjunction.1'
p1702
tp1703
F0.00520494469746259
s(S'Contingency.Cause.1'
p1704
S'Expansion.Conjunction.1'
p1705
tp1706
F0.0006506180871828237
s(S'Contingency.Cause.2'
p1707
S'Contingency.Cause.2'
p1708
tp1709
F0.0006506180871828237
s(S'.2'
p1710
g1693
tp1711
F0.0013012361743656475
s(S'Expansion.Conjunction.1'
p1712
Ntp1713
F0.0032530904359141183
s(g1675
g1682
tp1714
F0.0006506180871828237
s(g1704
S'Contingency.Cause.1'
p1715
tp1716
F0.0006506180871828237
s(NNtp1717
F0.6733897202342225
s(Ng1680
tp1718
F0.03643461288223813
s(S'.1'
p1719
S'Contingency.Cause.1'
p1720
tp1721
F0.0006506180871828237
s(S'.2'
p1722
S'.1'
p1723
tp1724
F0.001951854261548471
s(g1710
S'Comparison.Contrast.2'
p1725
tp1726
F0.0013012361743656475
s(S'.2'
p1727
g1715
tp1728
F0.0006506180871828237
s(g1719
S'Comparison.Contrast.1'
p1729
tp1730
F0.0006506180871828237
s(g1678
g1708
tp1731
F0.0006506180871828237
s(g1727
g1705
tp1732
F0.0006506180871828237
s(g1689
Ntp1733
F0.04424202992843201
s(Ng1667
tp1734
F0.011060507482108002
ssS'apwsE960108.0238-2-2-0.perm-12.txt.pipe'
p1735
(dp1736
(S'.1'
p1737
S'Expansion.Conjunction.1'
p1738
tp1739
F0.038461538461538464
s(NS'.2'
p1740
tp1741
F0.11538461538461539
s(S'Expansion.Conjunction.1'
p1742
Ntp1743
F0.08653846153846154
s(NNtp1744
F0.2980769230769231
s(NS'Expansion.Conjunction.2'
p1745
tp1746
F0.057692307692307696
s(S'.1'
p1747
Ntp1748
F0.11538461538461539
s(S'Expansion.Conjunction.2'
p1749
Ntp1750
F0.08653846153846154
s(S'Expansion.Conjunction.2'
p1751
S'.2'
p1752
tp1753
F0.009615384615384616
s(Ng1742
tp1754
F0.04807692307692308
s(g1740
Ntp1755
F0.057692307692307696
s(NS'.1'
p1756
tp1757
F0.04807692307692308
s(S'.2'
p1758
g1749
tp1759
F0.038461538461538464
ssS'apwsE951010.0087-2-2-0.perm-10.txt.pipe'
p1760
(dp1761
(S'Temporal.Asynchronous.2'
p1762
S'Comparison.Contrast.2'
p1763
tp1764
F0.004893964110929853
s(S'Comparison.Contrast.2'
p1765
Ntp1766
F0.03425774877650897
s(NS'Temporal.Asynchronous.1'
p1767
tp1768
F0.008156606851549755
s(S'Temporal.Asynchronous.1'
p1769
Ntp1770
F0.008156606851549755
s(NS'Comparison.Contrast.2'
p1771
tp1772
F0.03588907014681892
s(NNtp1773
F0.6949429037520392
s(S'Comparison.Contrast.1'
p1774
Ntp1775
F0.053833605220228384
s(NS'Temporal.Synchrony.1'
p1776
tp1777
F0.013050570962479609
s(S'Temporal.Asynchronous.2'
p1778
Ntp1779
F0.01631321370309951
s(S'Temporal.Synchrony.1'
p1780
Ntp1781
F0.013050570962479609
s(S'Temporal.Synchrony.1'
p1782
S'Comparison.Contrast.1'
p1783
tp1784
F0.0016313213703099511
s(S'Temporal.Synchrony.2'
p1785
Ntp1786
F0.022838499184339316
s(NS'Temporal.Asynchronous.2'
p1787
tp1788
F0.021207177814029365
s(Ng1774
tp1789
F0.011419249592169658
s(S'Comparison.Contrast.2'
p1790
S'Temporal.Asynchronous.2'
p1791
tp1792
F0.0016313213703099511
s(S'Temporal.Synchrony.2'
p1793
S'Comparison.Contrast.2'
p1794
tp1795
F0.01468189233278956
s(Ng1785
tp1796
F0.04404567699836868
ssS'apwsE951001.0242-2-2-0.perm-13.txt.pipe'
p1797
(dp1798
sS'apwsE950425.0109-0-1.perm-10.txt.pipe'
p1799
(dp1800
sS'apwsE950213.0175-0-1.perm-1.txt.pipe'
p1801
(dp1802
sS'apwsE960102.0206-0-1.perm-13.txt.pipe'
p1803
(dp1804
sS'apwsE951001.0257-2-2-0.perm-1.txt.pipe'
p1805
(dp1806
(S'.1'
p1807
Ntp1808
F0.07205452775073028
s(S'.2'
p1809
S'.2'
p1810
tp1811
F0.019474196689386564
s(S'Temporal.Asynchronous.1'
p1812
Ntp1813
F0.005842259006815969
s(S'Temporal.Asynchronous.1'
p1814
S'.1'
p1815
tp1816
F0.0019474196689386564
s(S'.1'
p1817
S'.1'
p1818
tp1819
F0.013631937682570594
s(NS'Expansion.Conjunction.2'
p1820
tp1821
F0.013631937682570594
s(NNtp1822
F0.6134371957156767
s(S'Temporal.Asynchronous.2'
p1823
Ntp1824
F0.004868549172346641
s(Ng1807
tp1825
F0.05939629990262902
s(S'Expansion.Conjunction.2'
p1826
g1810
tp1827
F0.0038948393378773127
s(S'.2'
p1828
g1818
tp1829
F0.004868549172346641
s(S'.2'
p1830
S'Expansion.Conjunction.2'
p1831
tp1832
F0.0009737098344693282
s(S'.1'
p1833
S'Expansion.Conjunction.1'
p1834
tp1835
F0.0029211295034079843
s(NS'.2'
p1836
tp1837
F0.07887049659201557
s(S'Expansion.Conjunction.1'
p1838
Ntp1839
F0.008763388510223954
s(S'Expansion.Conjunction.2'
p1840
Ntp1841
F0.004868549172346641
s(S'Temporal.Asynchronous.2'
p1842
S'.2'
p1843
tp1844
F0.004868549172346641
s(Ng1838
tp1845
F0.006815968841285297
s(g1836
Ntp1846
F0.07789678675754626
s(g1834
S'Expansion.Conjunction.1'
p1847
tp1848
F0.0009737098344693282
ssS'apwsE950620.0596-0-1.perm-1.txt.pipe'
p1849
(dp1850
sS'apwsE960508.0041-2-2-0.perm-1.txt.pipe'
p1851
(dp1852
sS'apwsE951024.0123-2-2-0.perm-11.txt.pipe'
p1853
(dp1854
(S'Comparison.Contrast.2'
p1855
Ntp1856
F0.03205128205128205
s(S'Expansion.Conjunction.1'
p1857
S'Comparison.Concession.2'
p1858
tp1859
F0.00641025641025641
s(S'Expansion.Conjunction.1'
p1860
Ntp1861
F0.03205128205128205
s(NS'Comparison.Contrast.1'
p1862
tp1863
F0.038461538461538464
s(NS'Comparison.Contrast.2'
p1864
tp1865
F0.04487179487179487
s(NNtp1866
F0.6282051282051282
s(NS'Expansion.Conjunction.2'
p1867
tp1868
F0.019230769230769232
s(g1867
Ntp1869
F0.03205128205128205
s(S'Comparison.Contrast.1'
p1870
Ntp1871
F0.05128205128205128
s(NS'Comparison.Concession.1'
p1872
tp1873
F0.04487179487179487
s(NS'Expansion.Conjunction.1'
p1874
tp1875
F0.01282051282051282
s(NS'Comparison.Concession.2'
p1876
tp1877
F0.05128205128205128
s(S'Expansion.Conjunction.2'
p1878
S'Comparison.Concession.1'
p1879
tp1880
F0.00641025641025641
ssS'apwsE950919.0202-2-2-0.perm-1.txt.pipe'
p1881
(dp1882
sS'apwsE960313.0036-2-2-0.perm-11.txt.pipe'
p1883
(dp1884
sS'apwsE950914.0074-0-1.perm-12.txt.pipe'
p1885
(dp1886
sS'apwsE951020.0430-2-2-0.perm-12.txt.pipe'
p1887
(dp1888
(S'Comparison.Contrast.2'
p1889
S'Expansion.Conjunction.2'
p1890
tp1891
F0.009950248756218905
s(S'Comparison.Contrast.2'
p1892
Ntp1893
F0.06467661691542288
s(S'Expansion.Conjunction.1'
p1894
Ntp1895
F0.08955223880597014
s(NS'Comparison.Contrast.1'
p1896
tp1897
F0.03980099502487562
s(NS'Comparison.Contrast.2'
p1898
tp1899
F0.024875621890547265
s(NNtp1900
F0.5671641791044776
s(NS'Expansion.Conjunction.2'
p1901
tp1902
F0.10945273631840796
s(S'Comparison.Contrast.1'
p1903
Ntp1904
F0.05970149253731343
s(NS'Contingency.Condition.2'
p1905
tp1906
F0.014925373134328358
s(NS'Contingency.Condition.1'
p1907
tp1908
F0.014925373134328358
s(S'Comparison.Contrast.2'
p1909
S'Contingency.Condition.2'
p1910
tp1911
F0.004975124378109453
ssS'apwsE951003.0004-2-2-0.perm-13.txt.pipe'
p1912
(dp1913
(S'.1'
p1914
Ntp1915
F0.06736526946107785
s(S'Expansion.Conjunction.1'
p1916
Ntp1917
F0.010479041916167664
s(NNtp1918
F0.6182634730538922
s(NS'Expansion.Conjunction.2'
p1919
tp1920
F0.02694610778443114
s(S'.1'
p1921
S'.1'
p1922
tp1923
F0.005988023952095809
s(S'Expansion.Conjunction.1'
p1924
S'.1'
p1925
tp1926
F0.0014970059880239522
s(Ng1914
tp1927
F0.058383233532934134
s(g1919
S'.2'
p1928
tp1929
F0.005988023952095809
s(S'.2'
p1930
S'.1'
p1931
tp1932
F0.005988023952095809
s(S'.1'
p1933
S'Expansion.Conjunction.1'
p1934
tp1935
F0.0014970059880239522
s(NS'.2'
p1936
tp1937
F0.08682634730538923
s(S'.2'
p1938
S'.2'
p1939
tp1940
F0.020958083832335328
s(S'Expansion.Conjunction.2'
p1941
Ntp1942
F0.011976047904191617
s(S'Expansion.Conjunction.2'
p1943
g1922
tp1944
F0.0014970059880239522
s(NS'Expansion.Conjunction.1'
p1945
tp1946
F0.005988023952095809
s(g1936
Ntp1947
F0.07035928143712575
ssS'apwsE950925.0091-0-1.perm-12.txt.pipe'
p1948
(dp1949
(NS'Expansion.Conjunction.2'
p1950
tp1951
F0.875
s(S'Expansion.Conjunction.1'
p1952
Ntp1953
F0.125
ssS'apwsE951024.0123-2-2-0.perm-12.txt.pipe'
p1954
(dp1955
(S'Comparison.Contrast.2'
p1956
Ntp1957
F0.03205128205128205
s(S'Expansion.Conjunction.1'
p1958
S'Comparison.Concession.2'
p1959
tp1960
F0.00641025641025641
s(S'Expansion.Conjunction.1'
p1961
Ntp1962
F0.03205128205128205
s(NS'Comparison.Contrast.1'
p1963
tp1964
F0.038461538461538464
s(S'Comparison.Contrast.1'
p1965
S'Expansion.Conjunction.2'
p1966
tp1967
F0.00641025641025641
s(NS'Comparison.Contrast.2'
p1968
tp1969
F0.04487179487179487
s(NNtp1970
F0.6089743589743589
s(NS'Expansion.Conjunction.2'
p1971
tp1972
F0.02564102564102564
s(S'Expansion.Conjunction.2'
p1973
Ntp1974
F0.03205128205128205
s(S'Comparison.Contrast.1'
p1975
Ntp1976
F0.04487179487179487
s(NS'Comparison.Concession.1'
p1977
tp1978
F0.04487179487179487
s(NS'Expansion.Conjunction.1'
p1979
tp1980
F0.02564102564102564
s(NS'Comparison.Concession.2'
p1981
tp1982
F0.05128205128205128
s(S'Expansion.Conjunction.2'
p1983
S'Comparison.Concession.1'
p1984
tp1985
F0.00641025641025641
ssS'apwsE960303.0090-2-2-0.perm-11.txt.pipe'
p1986
(dp1987
sS'apwsE950112.0297-0-1.perm-10.txt.pipe'
p1988
(dp1989
sS'apwsE951001.0328-2-2-0.perm-11.txt.pipe'
p1990
(dp1991
sS'apwsE951001.0328-2-2-0.perm-1.txt.pipe'
p1992
(dp1993
(NNtp1994
F0.425
s(NS'.2'
p1995
tp1996
F0.375
s(S'.1'
p1997
Ntp1998
F0.2
ssS'apwsE950424.0128-0-1.perm-11.txt.pipe'
p1999
(dp2000
sS'apwsE951108.0165-2-2-0.perm-12.txt.pipe'
p2001
(dp2002
(S'Expansion.Conjunction.2'
p2003
Ntp2004
F0.03888888888888889
s(S'Comparison.Contrast.1'
p2005
Ntp2006
F0.03888888888888889
s(S'Expansion.Conjunction.1'
p2007
Ntp2008
F0.07222222222222222
s(Ng2005
tp2009
F0.03888888888888889
s(NS'Comparison.Contrast.2'
p2010
tp2011
F0.08333333333333333
s(NNtp2012
F0.6611111111111111
s(NS'Expansion.Conjunction.2'
p2013
tp2014
F0.06666666666666667
ssS'apwsE951221.0056-2-2-0.perm-13.txt.pipe'
p2015
(dp2016
sS'apwsE951221.0049-2-2-0.perm-10.txt.pipe'
p2017
(dp2018
sS'apwsE960303.0090-2-2-0.perm-10.txt.pipe'
p2019
(dp2020
sS'apwsE950919.0580-2-2-0.perm-13.txt.pipe'
p2021
(dp2022
sS'apwsE951221.0049-2-2-0.perm-12.txt.pipe'
p2023
(dp2024
sS'apwsE960221.0036-0-1.perm-12.txt.pipe'
p2025
(dp2026
sS'apwsE960303.0079-2-2-0.perm-11.txt.pipe'
p2027
(dp2028
sS'apwsE951221.0001-0-1.perm-1.txt.pipe'
p2029
(dp2030
sS'apwsE951009.0244-2-2-0.perm-1.txt.pipe'
p2031
(dp2032
(S'Contingency.Cause.1'
p2033
Ntp2034
F0.005707762557077625
s(NS'Expansion.Instantiation.2'
p2035
tp2036
F0.005707762557077625
s(S'Expansion.Instantiation.2'
p2037
S'.1'
p2038
tp2039
F0.000380517503805175
s(S'Comparison.Contrast.2'
p2040
Ntp2041
F0.00380517503805175
s(S'.2'
p2042
S'.2'
p2043
tp2044
F0.01598173515981735
s(S'.1'
p2045
S'Expansion.Conjunction.2'
p2046
tp2047
F0.000380517503805175
s(Ng2040
tp2048
F0.004946727549467275
s(S'.1'
p2049
S'.1'
p2050
tp2051
F0.003424657534246575
s(NS'Expansion.Conjunction.2'
p2052
tp2053
F0.011035007610350075
s(S'.1'
p2054
Ntp2055
F0.03614916286149163
s(S'Comparison.Contrast.1'
p2056
Ntp2057
F0.0045662100456621
s(S'Contingency.Cause.2'
p2058
Ntp2059
F0.00228310502283105
s(g2035
Ntp2060
F0.003424657534246575
s(Ng2042
tp2061
F0.04908675799086758
s(Ng2058
tp2062
F0.0045662100456621
s(Ng2056
tp2063
F0.004185692541856925
s(S'Comparison.Contrast.2'
p2064
S'.2'
p2065
tp2066
F0.001141552511415525
s(S'Expansion.Conjunction.2'
p2067
Ntp2068
F0.007229832572298325
s(NS'Expansion.Conjunction.1'
p2069
tp2070
F0.003424657534246575
s(S'Comparison.Contrast.2'
p2071
S'Contingency.Cause.2'
p2072
tp2073
F0.001141552511415525
s(S'Contingency.Cause.2'
p2074
g2072
tp2075
F0.001141552511415525
s(S'.2'
p2076
S'Comparison.Contrast.1'
p2077
tp2078
F0.000380517503805175
s(S'.2'
p2079
g2074
tp2080
F0.001902587519025875
s(g2069
Ntp2081
F0.007229832572298325
s(S'.1'
p2082
S'Comparison.Contrast.2'
p2083
tp2084
F0.000380517503805175
s(S'Expansion.Conjunction.2'
p2085
S'Expansion.Conjunction.2'
p2086
tp2087
F0.000380517503805175
s(NNtp2088
F0.7146118721461188
s(Ng2054
tp2089
F0.03614916286149163
s(NS'Temporal.Synchrony.1'
p2090
tp2091
F0.000380517503805175
s(S'Expansion.Conjunction.1'
p2092
g2050
tp2093
F0.001902587519025875
s(S'.1'
p2094
S'Contingency.Cause.1'
p2095
tp2096
F0.000380517503805175
s(S'Expansion.Instantiation.2'
p2097
S'.2'
p2098
tp2099
F0.001902587519025875
s(g2052
S'.2'
p2100
tp2101
F0.0045662100456621
s(S'.2'
p2102
g2050
tp2103
F0.0015220700152207
s(g2079
g2071
tp2104
F0.00076103500761035
s(NS'Expansion.Instantiation.1'
p2105
tp2106
F0.00076103500761035
s(g2076
g2095
tp2107
F0.000380517503805175
s(g2094
g2077
tp2108
F0.000380517503805175
s(g2105
Ntp2109
F0.00076103500761035
s(g2043
Ntp2110
F0.0487062404870624
s(NS'Temporal.Synchrony.2'
p2111
tp2112
F0.0015220700152207
s(Ng2033
tp2113
F0.00532724505327245
ssS'apwsE951018.0182-2-2-0.perm-12.txt.pipe'
p2114
(dp2115
sS'apwsE951215.0060-2-2-0.perm-10.txt.pipe'
p2116
(dp2117
(S'Expansion.Conjunction.2'
p2118
Ntp2119
F0.4375
s(NS'Contingency.Condition.1'
p2120
tp2121
F0.1875
s(NS'Contingency.Condition.2'
p2122
tp2123
F0.1875
s(S'Expansion.Conjunction.1'
p2124
Ntp2125
F0.1875
ssS'apwsE950119.0186-0-1.perm-13.txt.pipe'
p2126
(dp2127
sS'apwsE960207.0018-2-2-0.perm-11.txt.pipe'
p2128
(dp2129
(S'Comparison.Contrast.2'
p2130
Ntp2131
F0.07352941176470588
s(S'Expansion.Conjunction.1'
p2132
Ntp2133
F0.25
s(S'Comparison.Contrast.2'
p2134
S'Expansion.Conjunction.1'
p2135
tp2136
F0.014705882352941176
s(NS'Comparison.Contrast.1'
p2137
tp2138
F0.058823529411764705
s(NS'Comparison.Contrast.2'
p2139
tp2140
F0.014705882352941176
s(NNtp2141
F0.19117647058823528
s(NS'Expansion.Conjunction.2'
p2142
tp2143
F0.058823529411764705
s(S'Comparison.Contrast.1'
p2144
Ntp2145
F0.07352941176470588
s(Ng2132
tp2146
F0.25
s(g2135
S'Comparison.Contrast.1'
p2147
tp2148
F0.014705882352941176
ssS'apwsE951221.0056-2-2-0.perm-12.txt.pipe'
p2149
(dp2150
sS'apwsE951009.0278-2-2-0.perm-1.txt.pipe'
p2151
(dp2152
(S'Contingency.Cause.1'
p2153
Ntp2154
F0.056338028169014086
s(S'Comparison.Contrast.2'
p2155
Ntp2156
F0.06338028169014084
s(S'Expansion.Conjunction.1'
p2157
Ntp2158
F0.06338028169014084
s(S'Expansion.Conjunction.2'
p2159
S'Expansion.Conjunction.2'
p2160
tp2161
F0.04225352112676056
s(NNtp2162
F0.5352112676056338
s(NS'Expansion.Conjunction.2'
p2163
tp2164
F0.056338028169014086
s(S'Expansion.Conjunction.2'
p2165
Ntp2166
F0.02112676056338028
s(S'Comparison.Contrast.1'
p2167
Ntp2168
F0.06338028169014084
s(NS'Temporal.Synchrony.1'
p2169
tp2170
F0.007042253521126761
s(S'Contingency.Cause.2'
p2171
Ntp2172
F0.06338028169014084
s(NS'Temporal.Synchrony.2'
p2173
tp2174
F0.028169014084507043
ssS'apwsE951010.0048-2-2-0.perm-1.txt.pipe'
p2175
(dp2176
(S'Temporal.Synchrony.2'
p2177
Ntp2178
F0.006462035541195477
s(S'Temporal.Asynchronous.2'
p2179
S'Comparison.Contrast.2'
p2180
tp2181
F0.0016155088852988692
s(S'Comparison.Contrast.2'
p2182
Ntp2183
F0.012924071082390954
s(S'Expansion.Conjunction.1'
p2184
Ntp2185
F0.011308562197092083
s(NS'Comparison.Contrast.1'
p2186
tp2187
F0.012924071082390954
s(S'Temporal.Asynchronous.1'
p2188
Ntp2189
F0.014539579967689823
s(NS'Comparison.Contrast.2'
p2190
tp2191
F0.04038772213247173
s(NNtp2192
F0.7819063004846527
s(S'Expansion.Conjunction.2'
p2193
Ntp2194
F0.008077544426494346
s(S'Comparison.Contrast.1'
p2195
Ntp2196
F0.04038772213247173
s(NS'Temporal.Synchrony.1'
p2197
tp2198
F0.0032310177705977385
s(S'Temporal.Asynchronous.2'
p2199
Ntp2200
F0.011308562197092083
s(S'Expansion.Conjunction.2'
p2201
g2180
tp2202
F0.0016155088852988692
s(NS'Temporal.Synchrony.2'
p2203
tp2204
F0.03715670436187399
s(S'Temporal.Synchrony.1'
p2205
Ntp2206
F0.01615508885298869
ssS'apwsE950827.0035-2-2-0.perm-11.txt.pipe'
p2207
(dp2208
sS'apwsE950119.0186-0-1.perm-11.txt.pipe'
p2209
(dp2210
sS'apwsE951222.0206-2-2-0.perm-11.txt.pipe'
p2211
(dp2212
(NS'.2'
p2213
tp2214
F0.20652173913043478
s(S'.2'
p2215
S'.2'
p2216
tp2217
F0.03260869565217391
s(g2213
Ntp2218
F0.125
s(S'.1'
p2219
Ntp2220
F0.13043478260869565
s(NNtp2221
F0.4076086956521739
s(Ng2219
tp2222
F0.09782608695652174
ssS'apwsE960104.0037-0-1.perm-11.txt.pipe'
p2223
(dp2224
sS'apwsE951004.0060-2-2-0.perm-13.txt.pipe'
p2225
(dp2226
sS'apwsE960108.0238-2-2-0.perm-11.txt.pipe'
p2227
(dp2228
(NS'.2'
p2229
tp2230
F0.25
s(S'.2'
p2231
S'.2'
p2232
tp2233
F0.025
s(g2229
Ntp2234
F0.125
s(NS'.1'
p2235
tp2236
F0.1
s(g2235
Ntp2237
F0.25
s(S'.1'
p2238
S'.1'
p2239
tp2240
F0.025
s(NNtp2241
F0.225
ssS'apwsE960104.0037-0-1.perm-10.txt.pipe'
p2242
(dp2243
sS'apwsE950331.0603-0-1.perm-12.txt.pipe'
p2244
(dp2245
sS'apwsE960108.0194-2-2-0.perm-12.txt.pipe'
p2246
(dp2247
sS'apwsE951018.0170-2-2-0.perm-13.txt.pipe'
p2248
(dp2249
sS'apwsE951021.0001-2-2-0.perm-1.txt.pipe'
p2250
(dp2251
(S'Comparison.Contrast.2'
p2252
Ntp2253
F0.01984126984126984
s(S'Expansion.Conjunction.1'
p2254
Ntp2255
F0.04365079365079365
s(NS'Comparison.Contrast.1'
p2256
tp2257
F0.027777777777777776
s(S'Comparison.Contrast.2'
p2258
S'Comparison.Contrast.1'
p2259
tp2260
F0.003968253968253968
s(Ng2252
tp2261
F0.051587301587301584
s(NNtp2262
F0.7103174603174603
s(NS'Expansion.Conjunction.2'
p2263
tp2264
F0.051587301587301584
s(g2263
Ntp2265
F0.047619047619047616
s(g2256
Ntp2266
F0.01984126984126984
s(Ng2254
tp2267
F0.01984126984126984
s(S'Expansion.Conjunction.2'
p2268
g2259
tp2269
F0.003968253968253968
ssS'apwsE950822.0071-0-1.perm-10.txt.pipe'
p2270
(dp2271
sS'apwsE951024.0110-2-2-0.perm-1.txt.pipe'
p2272
(dp2273
(S'Comparison.Contrast.1'
p2274
S'Comparison.Contrast.1'
p2275
tp2276
F0.028846153846153848
s(S'Comparison.Contrast.2'
p2277
Ntp2278
F0.057692307692307696
s(S'Expansion.Conjunction.1'
p2279
Ntp2280
F0.019230769230769232
s(S'Comparison.Contrast.1'
p2281
S'Comparison.Contrast.2'
p2282
tp2283
F0.009615384615384616
s(NS'Comparison.Contrast.1'
p2284
tp2285
F0.10576923076923077
s(NS'Comparison.Contrast.2'
p2286
tp2287
F0.09615384615384616
s(NNtp2288
F0.625
s(S'Expansion.Conjunction.2'
p2289
Ntp2290
F0.028846153846153848
s(S'Comparison.Contrast.1'
p2291
Ntp2292
F0.019230769230769232
s(S'Comparison.Contrast.2'
p2293
S'Comparison.Contrast.2'
p2294
tp2295
F0.009615384615384616
ssS'apwsE960303.0079-2-2-0.perm-1.txt.pipe'
p2296
(dp2297
sS'apwsE951203.0078-2-2-0.perm-11.txt.pipe'
p2298
(dp2299
sS'apwsE950307.0067-0-1.perm-1.txt.pipe'
p2300
(dp2301
sS'apwsE950307.0067-0-1.perm-11.txt.pipe'
p2302
(dp2303
sS'apwsE951001.0328-2-2-0.perm-10.txt.pipe'
p2304
(dp2305
(S'Contingency.Cause.1'
p2306
Ntp2307
F0.125
s(NNtp2308
F0.5
s(NS'Contingency.Cause.2'
p2309
tp2310
F0.375
ssS'apwsE950919.0594-2-2-0.perm-11.txt.pipe'
p2311
(dp2312
sS'apwsE960216.0241-2-2-0.perm-11.txt.pipe'
p2313
(dp2314
sS'apwsE951203.0078-2-2-0.perm-12.txt.pipe'
p2315
(dp2316
(S'Comparison.Contrast.1'
p2317
Ntp2318
F0.3125
s(S'Comparison.Contrast.2'
p2319
Ntp2320
F0.125
s(S'Comparison.Contrast.1'
p2321
S'Comparison.Contrast.2'
p2322
tp2323
F0.0625
s(NS'Comparison.Contrast.1'
p2324
tp2325
F0.0625
s(S'Comparison.Contrast.2'
p2326
S'Comparison.Contrast.1'
p2327
tp2328
F0.125
s(NS'Comparison.Contrast.2'
p2329
tp2330
F0.3125
ssS'apwsE950424.0128-0-1.perm-1.txt.pipe'
p2331
(dp2332
sS'apwsE951226.0004-2-2-0.perm-11.txt.pipe'
p2333
(dp2334
(NS'Expansion.Conjunction.2'
p2335
tp2336
F0.4827586206896552
s(S'Expansion.Conjunction.1'
p2337
Ntp2338
F0.5172413793103449
ssS'apwsE950925.0091-0-1.perm-13.txt.pipe'
p2339
(dp2340
(NS'Expansion.Conjunction.2'
p2341
tp2342
F0.5909090909090909
s(S'Expansion.Conjunction.1'
p2343
Ntp2344
F0.4090909090909091
ssS'apwsE951125.0054-2-2-0.perm-10.txt.pipe'
p2345
(dp2346
(S'Comparison.Contrast.1'
p2347
Ntp2348
F0.03571428571428571
s(NS'Comparison.Contrast.2'
p2349
tp2350
F0.42857142857142855
s(NNtp2351
F0.5357142857142857
ssS'apwsE960102.0206-0-1.perm-11.txt.pipe'
p2352
(dp2353
(NS'.2'
p2354
tp2355
F0.3
s(S'.1'
p2356
Ntp2357
F0.7
ssS'apwsE951010.0087-2-2-0.perm-12.txt.pipe'
p2358
(dp2359
(S'Temporal.Synchrony.2'
p2360
Ntp2361
F0.00667779632721202
s(NS'Temporal.Asynchronous.2'
p2362
tp2363
F0.02003338898163606
s(NS'Temporal.Asynchronous.1'
p2364
tp2365
F0.005008347245409015
s(S'Temporal.Asynchronous.1'
p2366
Ntp2367
F0.008347245409015025
s(NS'Comparison.Contrast.2'
p2368
tp2369
F0.04006677796327212
s(NNtp2370
F0.8063439065108514
s(S'Comparison.Contrast.1'
p2371
Ntp2372
F0.021702838063439065
s(NS'Temporal.Synchrony.1'
p2373
tp2374
F0.01335559265442404
s(g2362
Ntp2375
F0.02337228714524207
s(NS'Temporal.Synchrony.2'
p2376
tp2377
F0.028380634390651086
s(S'Temporal.Synchrony.1'
p2378
Ntp2379
F0.02671118530884808
ssS'apwsE951003.0485-2-2-0.perm-11.txt.pipe'
p2380
(dp2381
sS'apwsE950919.0202-2-2-0.perm-12.txt.pipe'
p2382
(dp2383
sS'apwsE951010.0048-2-2-0.perm-13.txt.pipe'
p2384
(dp2385
(S'Comparison.Contrast.2'
p2386
Ntp2387
F0.016260162601626018
s(S'Expansion.Conjunction.1'
p2388
Ntp2389
F0.011382113821138212
s(NS'Temporal.Asynchronous.1'
p2390
tp2391
F0.00975609756097561
s(S'Temporal.Asynchronous.1'
p2392
Ntp2393
F0.016260162601626018
s(S'Temporal.Asynchronous.1'
p2394
S'Temporal.Asynchronous.1'
p2395
tp2396
F0.0016260162601626016
s(NS'Comparison.Contrast.2'
p2397
tp2398
F0.03739837398373984
s(NNtp2399
F0.6861788617886179
s(NS'Expansion.Conjunction.2'
p2400
tp2401
F0.008130081300813009
s(S'Temporal.Asynchronous.1'
p2402
S'Expansion.Conjunction.2'
p2403
tp2404
F0.0016260162601626016
s(NS'Temporal.Synchrony.1'
p2405
tp2406
F0.01951219512195122
s(S'Comparison.Contrast.2'
p2407
S'Comparison.Contrast.2'
p2408
tp2409
F0.0016260162601626016
s(g2394
S'Temporal.Synchrony.1'
p2410
tp2411
F0.0032520325203252032
s(S'Temporal.Synchrony.1'
p2412
Ntp2413
F0.03577235772357724
s(g2402
S'Temporal.Asynchronous.2'
p2414
tp2415
F0.0016260162601626016
s(S'Temporal.Synchrony.2'
p2416
Ntp2417
F0.004878048780487805
s(NS'Temporal.Asynchronous.2'
p2418
tp2419
F0.008130081300813009
s(S'Comparison.Contrast.1'
p2420
Ntp2421
F0.03577235772357724
s(NS'Comparison.Contrast.1'
p2422
tp2423
F0.013008130081300813
s(S'Expansion.Conjunction.2'
p2424
S'Temporal.Synchrony.2'
p2425
tp2426
F0.0016260162601626016
s(g2400
Ntp2427
F0.008130081300813009
s(S'Temporal.Asynchronous.2'
p2428
g2425
tp2429
F0.0016260162601626016
s(g2394
S'Expansion.Conjunction.1'
p2430
tp2431
F0.0016260162601626016
s(S'Temporal.Synchrony.2'
p2432
g2386
tp2433
F0.0016260162601626016
s(Ng2388
tp2434
F0.00975609756097561
s(NS'Temporal.Synchrony.2'
p2435
tp2436
F0.032520325203252036
s(S'Temporal.Asynchronous.2'
p2437
Ntp2438
F0.030894308943089432
ssS'apwsE960203.0270-2-2-0.perm-12.txt.pipe'
p2439
(dp2440
sS'apwsE950827.0035-2-2-0.perm-1.txt.pipe'
p2441
(dp2442
(S'Temporal.Asynchronous.1'
p2443
S'Contingency.Cause.1'
p2444
tp2445
F0.02702702702702703
s(S'Comparison.Contrast.1'
p2446
S'Contingency.Cause.2'
p2447
tp2448
F0.02702702702702703
s(S'Comparison.Contrast.2'
p2449
Ntp2450
F0.16216216216216217
s(NS'Contingency.Cause.2'
p2451
tp2452
F0.2702702702702703
s(S'Temporal.Asynchronous.1'
p2453
Ntp2454
F0.08108108108108109
s(S'Temporal.Asynchronous.2'
p2455
g2447
tp2456
F0.02702702702702703
s(S'Comparison.Contrast.1'
p2457
Ntp2458
F0.16216216216216217
s(S'Temporal.Asynchronous.2'
p2459
Ntp2460
F0.16216216216216217
s(S'Comparison.Contrast.1'
p2461
g2444
tp2462
F0.02702702702702703
s(NS'Contingency.Cause.1'
p2463
tp2464
F0.02702702702702703
s(S'Comparison.Contrast.2'
p2465
S'Contingency.Cause.1'
p2466
tp2467
F0.02702702702702703
ssS'apwsE960216.0241-2-2-0.perm-12.txt.pipe'
p2468
(dp2469
sS'apwsE951106.0072-2-2-0.perm-13.txt.pipe'
p2470
(dp2471
sS'apwsE951009.0216-2-2-0.perm-13.txt.pipe'
p2472
(dp2473
sS'apwsE951020.0430-2-2-0.perm-13.txt.pipe'
p2474
(dp2475
(S'Comparison.Contrast.2'
p2476
Ntp2477
F0.030303030303030304
s(S'Expansion.Conjunction.1'
p2478
Ntp2479
F0.06060606060606061
s(NS'Comparison.Contrast.1'
p2480
tp2481
F0.04040404040404041
s(Ng2478
tp2482
F0.06565656565656566
s(NS'Comparison.Contrast.2'
p2483
tp2484
F0.020202020202020204
s(NNtp2485
F0.5606060606060606
s(NS'Expansion.Conjunction.2'
p2486
tp2487
F0.11616161616161616
s(S'Expansion.Conjunction.2'
p2488
Ntp2489
F0.030303030303030304
s(S'Comparison.Contrast.1'
p2490
Ntp2491
F0.04040404040404041
s(S'Expansion.Conjunction.1'
p2492
S'Comparison.Contrast.2'
p2493
tp2494
F0.005050505050505051
s(S'Expansion.Conjunction.2'
p2495
S'Expansion.Conjunction.2'
p2496
tp2497
F0.025252525252525252
s(S'Expansion.Conjunction.1'
p2498
S'Expansion.Conjunction.1'
p2499
tp2500
F0.005050505050505051
ssS'apwsE951125.0054-2-2-0.perm-13.txt.pipe'
p2501
(dp2502
(S'Comparison.Contrast.1'
p2503
Ntp2504
F0.2647058823529412
s(NS'Comparison.Contrast.2'
p2505
tp2506
F0.38235294117647056
s(NNtp2507
F0.35294117647058826
ssS'apwsE960109.0130-2-2-0.perm-13.txt.pipe'
p2508
(dp2509
(S'Contingency.Cause.1'
p2510
Ntp2511
F0.0007627765064836003
s(NS'.2'
p2512
tp2513
F0.09229595728451563
s(NS'Contingency.Cause.2'
p2514
tp2515
F0.005339435545385202
s(NS'Comparison.Contrast.1'
p2516
tp2517
F0.005339435545385202
s(S'.1'
p2518
Ntp2519
F0.07093821510297482
s(g2512
S'.2'
p2520
tp2521
F0.02212051868802441
s(NS'Comparison.Contrast.2'
p2522
tp2523
F0.0038138825324180014
s(S'.1'
p2524
S'.1'
p2525
tp2526
F0.006102212051868803
s(NNtp2527
F0.6460717009916095
s(g2524
g2510
tp2528
F0.0007627765064836003
s(NS'.1'
p2529
tp2530
F0.06102212051868802
s(g2514
Ntp2531
F0.005339435545385202
s(S'.2'
p2532
Ntp2533
F0.07627765064836003
s(S'.2'
p2534
g2510
tp2535
F0.0007627765064836003
s(g2534
g2525
tp2536
F0.0030511060259344014
ssS'apwsE951122.0004-0-1.perm-11.txt.pipe'
p2537
(dp2538
sS'apwsE960122.0410-0-1.perm-12.txt.pipe'
p2539
(dp2540
sS'apwsE951121.0037-2-2-0.perm-1.txt.pipe'
p2541
(dp2542
(NS'Comparison.Contrast.2'
p2543
tp2544
F0.5555555555555556
s(NNtp2545
F0.4444444444444444
ssS'apwsE960313.0036-2-2-0.perm-13.txt.pipe'
p2546
(dp2547
sS'apwsE960122.0410-0-1.perm-11.txt.pipe'
p2548
(dp2549
(S'Comparison.Contrast.1'
p2550
Ntp2551
F0.08695652173913043
s(S'Comparison.Contrast.1'
p2552
S'Comparison.Contrast.1'
p2553
tp2554
F0.08695652173913043
s(S'Comparison.Contrast.2'
p2555
Ntp2556
F0.34782608695652173
s(NS'Comparison.Contrast.1'
p2557
tp2558
F0.17391304347826086
s(S'Comparison.Contrast.2'
p2559
S'Comparison.Contrast.1'
p2560
tp2561
F0.043478260869565216
s(NS'Comparison.Contrast.2'
p2562
tp2563
F0.2608695652173913
ssS'apwsE951222.0206-2-2-0.perm-1.txt.pipe'
p2564
(dp2565
sS'apwsE951021.0001-2-2-0.perm-11.txt.pipe'
p2566
(dp2567
(S'Contingency.Cause.1'
p2568
Ntp2569
F0.013377926421404682
s(S'Comparison.Contrast.2'
p2570
S'Expansion.Conjunction.2'
p2571
tp2572
F0.010033444816053512
s(S'Comparison.Contrast.2'
p2573
Ntp2574
F0.043478260869565216
s(S'Expansion.Conjunction.1'
p2575
Ntp2576
F0.023411371237458192
s(S'Expansion.Conjunction.2'
p2577
S'Comparison.Contrast.1'
p2578
tp2579
F0.0033444816053511705
s(NS'Comparison.Contrast.2'
p2580
tp2581
F0.026755852842809364
s(NNtp2582
F0.6488294314381271
s(NS'Expansion.Conjunction.2'
p2583
tp2584
F0.033444816053511704
s(S'Comparison.Contrast.1'
p2585
Ntp2586
F0.05351170568561873
s(NS'Contingency.Condition.2'
p2587
tp2588
F0.010033444816053512
s(S'Contingency.Cause.2'
p2589
Ntp2590
F0.030100334448160536
s(g2580
S'Contingency.Condition.1'
p2591
tp2592
F0.0033444816053511705
s(g2571
g2573
tp2593
F0.006688963210702341
s(S'Contingency.Cause.2'
p2594
S'Expansion.Conjunction.1'
p2595
tp2596
F0.0033444816053511705
s(S'Expansion.Conjunction.2'
p2597
Ntp2598
F0.020066889632107024
s(NS'Expansion.Conjunction.1'
p2599
tp2600
F0.013377926421404682
s(NS'Contingency.Condition.1'
p2601
tp2602
F0.006688963210702341
s(S'Comparison.Contrast.1'
p2603
S'Contingency.Condition.2'
p2604
tp2605
F0.0033444816053511705
s(Ng2585
tp2606
F0.043478260869565216
s(S'Contingency.Cause.1'
p2607
S'Expansion.Conjunction.1'
p2608
tp2609
F0.0033444816053511705
ssS'apwsE951226.0004-2-2-0.perm-10.txt.pipe'
p2610
(dp2611
(NS'Expansion.Conjunction.2'
p2612
tp2613
F0.6470588235294118
s(S'Expansion.Conjunction.1'
p2614
Ntp2615
F0.35294117647058826
ssS'apwsE950213.0175-0-1.perm-11.txt.pipe'
p2616
(dp2617
sS'apwsE951009.0245-2-2-0.perm-10.txt.pipe'
p2618
(dp2619
(NS'.2'
p2620
tp2621
F0.04457050243111831
s(S'Comparison.Contrast.2'
p2622
Ntp2623
F0.008103727714748784
s(S'.2'
p2624
S'.2'
p2625
tp2626
F0.014586709886547812
s(Ng2622
tp2627
F0.0024311183144246355
s(S'.1'
p2628
S'.1'
p2629
tp2630
F0.004862236628849271
s(NS'Expansion.Conjunction.2'
p2631
tp2632
F0.025121555915721232
s(S'.1'
p2633
Ntp2634
F0.03241491085899514
s(S'Comparison.Contrast.1'
p2635
Ntp2636
F0.005672609400324149
s(NS'Temporal.Synchrony.1'
p2637
tp2638
F0.0008103727714748784
s(S'Expansion.Conjunction.1'
p2639
g2629
tp2640
F0.0016207455429497568
s(Ng2633
tp2641
F0.031604538087520256
s(g2631
g2625
tp2642
F0.012965964343598054
s(g2637
Ntp2643
F0.0008103727714748784
s(S'.2'
p2644
g2629
tp2645
F0.0032414910858995136
s(S'Temporal.Synchrony.2'
p2646
Ntp2647
F0.0032414910858995136
s(S'.1'
p2648
S'Expansion.Conjunction.1'
p2649
tp2650
F0.0016207455429497568
s(S'Expansion.Conjunction.2'
p2651
S'.1'
p2652
tp2653
F0.0016207455429497568
s(Ng2635
tp2654
F0.0032414910858995136
s(S'Expansion.Conjunction.1'
p2655
Ntp2656
F0.017828200972447326
s(S'Expansion.Conjunction.2'
p2657
Ntp2658
F0.01053484602917342
s(S'.2'
p2659
g2649
tp2660
F0.0016207455429497568
s(Ng2655
tp2661
F0.005672609400324149
s(g2620
Ntp2662
F0.03565640194489465
s(Ng2646
tp2663
F0.0032414910858995136
s(NNtp2664
F0.726904376012966
ssS'apwsE951021.0001-2-2-0.perm-10.txt.pipe'
p2665
(dp2666
(S'Comparison.Contrast.2'
p2667
S'Expansion.Conjunction.2'
p2668
tp2669
F0.018518518518518517
s(S'Comparison.Contrast.2'
p2670
Ntp2671
F0.024691358024691357
s(S'Expansion.Conjunction.1'
p2672
Ntp2673
F0.043209876543209874
s(NS'Comparison.Contrast.1'
p2674
tp2675
F0.030864197530864196
s(NS'Comparison.Contrast.2'
p2676
tp2677
F0.037037037037037035
s(NNtp2678
F0.6790123456790124
s(NS'Expansion.Conjunction.2'
p2679
tp2680
F0.06172839506172839
s(g2668
Ntp2681
F0.05555555555555555
s(S'Comparison.Contrast.1'
p2682
Ntp2683
F0.018518518518518517
s(NS'Expansion.Conjunction.1'
p2684
tp2685
F0.030864197530864196
ssS'apwsE951021.0001-2-2-0.perm-13.txt.pipe'
p2686
(dp2687
(S'Contingency.Cause.1'
p2688
Ntp2689
F0.01702127659574468
s(S'Contingency.Cause.2'
p2690
S'Comparison.Contrast.2'
p2691
tp2692
F0.00851063829787234
s(S'Comparison.Contrast.2'
p2693
S'Expansion.Conjunction.2'
p2694
tp2695
F0.02553191489361702
s(S'Comparison.Contrast.2'
p2696
Ntp2697
F0.04680851063829787
s(S'Expansion.Conjunction.1'
p2698
Ntp2699
F0.029787234042553193
s(NS'Comparison.Contrast.1'
p2700
tp2701
F0.06808510638297872
s(S'Contingency.Cause.2'
p2702
S'Comparison.Contrast.1'
p2703
tp2704
F0.00851063829787234
s(NS'Comparison.Contrast.2'
p2705
tp2706
F0.04680851063829787
s(NNtp2707
F0.5829787234042553
s(NS'Expansion.Conjunction.2'
p2708
tp2709
F0.029787234042553193
s(g2700
Ntp2710
F0.07234042553191489
s(S'Comparison.Contrast.2'
p2711
S'Comparison.Contrast.2'
p2712
tp2713
F0.01276595744680851
s(S'Contingency.Cause.2'
p2714
Ntp2715
F0.02553191489361702
s(S'Contingency.Cause.1'
p2716
S'Comparison.Contrast.1'
p2717
tp2718
F0.00425531914893617
s(NS'Expansion.Conjunction.1'
p2719
tp2720
F0.02127659574468085
ssS'apwsE960214.0448-2-2-0.perm-11.txt.pipe'
p2721
(dp2722
sS'apwsE951122.0004-0-1.perm-10.txt.pipe'
p2723
(dp2724
sS'apwsE960214.0448-2-2-0.perm-1.txt.pipe'
p2725
(dp2726
sS'apwsE951023.0357-2-2-0.perm-12.txt.pipe'
p2727
(dp2728
sS'apwsE951023.0362-2-2-0.perm-13.txt.pipe'
p2729
(dp2730
sS'apwsE951018.0182-2-2-0.perm-10.txt.pipe'
p2731
(dp2732
sS'apwsE951108.0165-2-2-0.perm-13.txt.pipe'
p2733
(dp2734
(S'Expansion.Conjunction.1'
p2735
Ntp2736
F0.07936507936507936
s(NS'Comparison.Contrast.1'
p2737
tp2738
F0.031746031746031744
s(NS'Comparison.Contrast.2'
p2739
tp2740
F0.07936507936507936
s(NNtp2741
F0.6772486772486772
s(NS'Expansion.Conjunction.2'
p2742
tp2743
F0.05291005291005291
s(S'Expansion.Conjunction.2'
p2744
Ntp2745
F0.037037037037037035
s(g2737
Ntp2746
F0.037037037037037035
s(S'Expansion.Conjunction.1'
p2747
S'Comparison.Contrast.1'
p2748
tp2749
F0.005291005291005291
ssS'apwsE951023.0357-2-2-0.perm-1.txt.pipe'
p2750
(dp2751
sS'apwsE951226.0004-2-2-0.perm-12.txt.pipe'
p2752
(dp2753
(NS'Expansion.Conjunction.2'
p2754
tp2755
F0.9130434782608695
s(S'Expansion.Conjunction.1'
p2756
Ntp2757
F0.08695652173913043
ssS'apwsE951210.0356-2-2-0.perm-13.txt.pipe'
p2758
(dp2759
sS'apwsE951009.0245-2-2-0.perm-11.txt.pipe'
p2760
(dp2761
(S'Contingency.Cause.1'
p2762
Ntp2763
F0.004741833508956797
s(S'Comparison.Contrast.2'
p2764
Ntp2765
F0.00684931506849315
s(S'.2'
p2766
S'.2'
p2767
tp2768
F0.010010537407797681
s(Ng2764
tp2769
F0.007903055848261328
s(S'.1'
p2770
S'.1'
p2771
tp2772
F0.003161222339304531
s(NS'Expansion.Conjunction.2'
p2773
tp2774
F0.0026343519494204425
s(S'.1'
p2775
Ntp2776
F0.040042149631190724
s(S'Expansion.Conjunction.1'
p2777
S'Contingency.Cause.1'
p2778
tp2779
F0.0005268703898840885
s(S'Comparison.Contrast.1'
p2780
Ntp2781
F0.009483667017913594
s(g2777
S'Comparison.Contrast.2'
p2782
tp2783
F0.0005268703898840885
s(S'Contingency.Cause.2'
p2784
Ntp2785
F0.008956796628029505
s(g2770
S'Expansion.Conjunction.1'
p2786
tp2787
F0.001053740779768177
s(NS'.2'
p2788
tp2789
F0.05426765015806112
s(Ng2784
tp2790
F0.01053740779768177
s(S'Contingency.Cause.2'
p2791
S'.2'
p2792
tp2793
F0.0005268703898840885
s(Ng2780
tp2794
F0.008956796628029505
s(S'Comparison.Contrast.2'
p2795
S'.2'
p2796
tp2797
F0.0015806111696522655
s(S'Expansion.Conjunction.2'
p2798
Ntp2799
F0.008956796628029505
s(NS'Expansion.Conjunction.1'
p2800
tp2801
F0.0015806111696522655
s(S'Comparison.Contrast.2'
p2802
g2791
tp2803
F0.0005268703898840885
s(g2777
S'Comparison.Contrast.1'
p2804
tp2805
F0.0005268703898840885
s(S'Contingency.Cause.2'
p2806
S'Comparison.Contrast.2'
p2807
tp2808
F0.0015806111696522655
s(S'Expansion.Conjunction.1'
p2809
Ntp2810
F0.003161222339304531
s(S'.1'
p2811
S'Comparison.Contrast.2'
p2812
tp2813
F0.0005268703898840885
s(NNtp2814
F0.7244467860906217
s(g2773
g2767
tp2815
F0.0005268703898840885
s(NS'Temporal.Synchrony.1'
p2816
tp2817
F0.0005268703898840885
s(S'Comparison.Contrast.2'
p2818
g2807
tp2819
F0.0015806111696522655
s(S'Expansion.Conjunction.1'
p2820
S'.1'
p2821
tp2822
F0.001053740779768177
s(Ng2775
tp2823
F0.03582718651211802
s(S'.2'
p2824
g2771
tp2825
F0.0026343519494204425
s(S'Comparison.Contrast.2'
p2826
S'.1'
p2827
tp2828
F0.0005268703898840885
s(g2824
g2786
tp2829
F0.001053740779768177
s(S'.2'
p2830
Ntp2831
F0.0368809272918862
s(NS'Temporal.Synchrony.2'
p2832
tp2833
F0.002107481559536354
s(Ng2762
tp2834
F0.004214963119072708
ssS'apwsE951018.0170-2-2-0.perm-11.txt.pipe'
p2835
(dp2836
sS'apwsE951108.0165-2-2-0.perm-11.txt.pipe'
p2837
(dp2838
(S'Comparison.Contrast.1'
p2839
Ntp2840
F0.008620689655172414
s(NS'Comparison.Contrast.2'
p2841
tp2842
F0.11206896551724138
s(NNtp2843
F0.7327586206896551
s(NS'Expansion.Conjunction.2'
p2844
tp2845
F0.08620689655172414
s(S'Expansion.Conjunction.1'
p2846
Ntp2847
F0.0603448275862069
ssS'apwsE951001.0279-2-2-0.perm-11.txt.pipe'
p2848
(dp2849
(NNtp2850
F0.37209302325581395
s(NS'.2'
p2851
tp2852
F0.4418604651162791
s(S'.1'
p2853
Ntp2854
F0.18604651162790697
ssS'apwsE951024.0005-2-2-0.perm-12.txt.pipe'
p2855
(dp2856
(S'Comparison.Contrast.1'
p2857
Ntp2858
F0.17391304347826086
s(S'Comparison.Contrast.2'
p2859
Ntp2860
F0.2608695652173913
s(NS'Expansion.Conjunction.1'
p2861
tp2862
F0.08695652173913043
s(S'Comparison.Contrast.1'
p2863
S'Expansion.Conjunction.2'
p2864
tp2865
F0.043478260869565216
s(NNtp2866
F0.2608695652173913
s(NS'Expansion.Conjunction.2'
p2867
tp2868
F0.17391304347826086
ssS'apwsE951004.0060-2-2-0.perm-11.txt.pipe'
p2869
(dp2870
(NS'Comparison.Concession.2'
p2871
tp2872
F0.13157894736842105
s(S'Comparison.Contrast.1'
p2873
Ntp2874
F0.13157894736842105
s(NS'Comparison.Concession.1'
p2875
tp2876
F0.3157894736842105
s(S'Comparison.Contrast.2'
p2877
Ntp2878
F0.34210526315789475
s(S'Comparison.Contrast.2'
p2879
S'Comparison.Concession.2'
p2880
tp2881
F0.07894736842105263
ssS'apwsE951009.0226-2-2-0.perm-1.txt.pipe'
p2882
(dp2883
sS'apwsE960303.0090-2-2-0.perm-12.txt.pipe'
p2884
(dp2885
(S'Expansion.Conjunction.2'
p2886
Ntp2887
F0.2571428571428571
s(NS'Comparison.Contrast.1'
p2888
tp2889
F0.4
s(NS'Comparison.Contrast.2'
p2890
tp2891
F0.2571428571428571
s(S'Expansion.Conjunction.1'
p2892
Ntp2893
F0.08571428571428572
ssS'apwsE960216.0269-2-2-0.perm-12.txt.pipe'
p2894
(dp2895
(S'Comparison.Contrast.2'
p2896
Ntp2897
F0.013289036544850499
s(S'.2'
p2898
S'.2'
p2899
tp2900
F0.029900332225913623
s(NS'Temporal.Asynchronous.1'
p2901
tp2902
F0.053156146179401995
s(S'Temporal.Asynchronous.1'
p2903
S'.1'
p2904
tp2905
F0.016611295681063124
s(S'Temporal.Asynchronous.1'
p2906
Ntp2907
F0.013289036544850499
s(S'Comparison.Contrast.1'
p2908
S'.1'
p2909
tp2910
F0.0033222591362126247
s(NS'Comparison.Contrast.2'
p2911
tp2912
F0.013289036544850499
s(S'.1'
p2913
S'.1'
p2914
tp2915
F0.009966777408637873
s(S'.1'
p2916
S'Temporal.Asynchronous.1'
p2917
tp2918
F0.006644518272425249
s(g2914
Ntp2919
F0.08305647840531562
s(S'Comparison.Contrast.1'
p2920
Ntp2921
F0.036544850498338874
s(S'Temporal.Asynchronous.2'
p2922
Ntp2923
F0.06312292358803986
s(Ng2913
tp2924
F0.06976744186046512
s(S'Temporal.Asynchronous.2'
p2925
S'.2'
p2926
tp2927
F0.009966777408637873
s(g2903
S'Comparison.Contrast.1'
p2928
tp2929
F0.009966777408637873
s(S'.2'
p2930
S'Temporal.Asynchronous.2'
p2931
tp2932
F0.0033222591362126247
s(S'Temporal.Asynchronous.1'
p2933
g2896
tp2934
F0.009966777408637873
s(Ng2922
tp2935
F0.10963455149501661
s(NS'.2'
p2936
tp2937
F0.10963455149501661
s(Ng2920
tp2938
F0.029900332225913623
s(S'Temporal.Asynchronous.2'
p2939
S'.1'
p2940
tp2941
F0.0033222591362126247
s(g2911
g2926
tp2942
F0.009966777408637873
s(g2916
S'Temporal.Asynchronous.2'
p2943
tp2944
F0.006644518272425249
s(S'.2'
p2945
Ntp2946
F0.029900332225913623
s(g2930
S'Temporal.Asynchronous.1'
p2947
tp2948
F0.006644518272425249
s(NNtp2949
F0.24916943521594684
ssS'apwsE951018.0182-2-2-0.perm-1.txt.pipe'
p2950
(dp2951
sS'apwsE951024.0110-2-2-0.perm-11.txt.pipe'
p2952
(dp2953
(S'Comparison.Contrast.1'
p2954
Ntp2955
F0.09615384615384616
s(S'Comparison.Contrast.2'
p2956
Ntp2957
F0.11538461538461539
s(NS'Expansion.Conjunction.1'
p2958
tp2959
F0.057692307692307696
s(S'Comparison.Contrast.2'
p2960
S'Expansion.Conjunction.1'
p2961
tp2962
F0.019230769230769232
s(S'Comparison.Contrast.1'
p2963
S'Expansion.Conjunction.2'
p2964
tp2965
F0.019230769230769232
s(NNtp2966
F0.6153846153846154
s(NS'Expansion.Conjunction.2'
p2967
tp2968
F0.07692307692307693
ssS'apwsE951009.0228-2-2-0.perm-10.txt.pipe'
p2969
(dp2970
(S'Contingency.Cause.1'
p2971
Ntp2972
F0.019867549668874173
s(S'Comparison.Contrast.2'
p2973
Ntp2974
F0.033112582781456956
s(NS'Comparison.Contrast.2'
p2975
tp2976
F0.029801324503311258
s(NNtp2977
F0.5695364238410596
s(NS'.1'
p2978
tp2979
F0.023178807947019868
s(S'Comparison.Contrast.1'
p2980
Ntp2981
F0.076158940397351
s(S'Contingency.Cause.2'
p2982
Ntp2983
F0.019867549668874173
s(g2978
Ntp2984
F0.019867549668874173
s(S'.2'
p2985
g2973
tp2986
F0.006622516556291391
s(NS'.2'
p2987
tp2988
F0.033112582781456956
s(NS'Contingency.Cause.2'
p2989
tp2990
F0.052980132450331126
s(S'Contingency.Cause.2'
p2991
g2985
tp2992
F0.016556291390728478
s(Ng2980
tp2993
F0.029801324503311258
s(S'.1'
p2994
S'Comparison.Contrast.1'
p2995
tp2996
F0.0033112582781456954
s(g2987
Ntp2997
F0.04304635761589404
s(Ng2971
tp2998
F0.019867549668874173
s(g2975
g2991
tp2999
F0.0033112582781456954
ssS'apwsE950827.0035-2-2-0.perm-13.txt.pipe'
p3000
(dp3001
sS'apwsE950919.0580-2-2-0.perm-11.txt.pipe'
p3002
(dp3003
sS'apwsE951010.0087-2-2-0.perm-11.txt.pipe'
p3004
(dp3005
(S'Temporal.Synchrony.2'
p3006
Ntp3007
F0.03
s(S'Comparison.Contrast.1'
p3008
S'Comparison.Contrast.1'
p3009
tp3010
F0.0025
s(S'Comparison.Contrast.2'
p3011
Ntp3012
F0.0475
s(NS'Comparison.Contrast.1'
p3013
tp3014
F0.0475
s(NS'Comparison.Contrast.2'
p3015
tp3016
F0.0475
s(NNtp3017
F0.645
s(g3013
Ntp3018
F0.0475
s(S'Comparison.Contrast.2'
p3019
S'Comparison.Contrast.2'
p3020
tp3021
F0.0075
s(S'Temporal.Synchrony.2'
p3022
g3011
tp3023
F0.025
s(Ng3022
tp3024
F0.055
s(S'Temporal.Synchrony.1'
p3025
Ntp3026
F0.045
ssS'apwsE951121.0032-2-2-0.perm-11.txt.pipe'
p3027
(dp3028
sS'apwsE951009.0216-2-2-0.perm-12.txt.pipe'
p3029
(dp3030
sS'apwsE960109.0412-0-1.perm-12.txt.pipe'
p3031
(dp3032
sS'apwsE951218.0398-0-1.perm-12.txt.pipe'
p3033
(dp3034
(S'Comparison.Contrast.1'
p3035
Ntp3036
F0.08695652173913043
s(S'Comparison.Contrast.1'
p3037
S'Comparison.Contrast.1'
p3038
tp3039
F0.08695652173913043
s(S'Comparison.Contrast.2'
p3040
Ntp3041
F0.34782608695652173
s(NS'Comparison.Contrast.1'
p3042
tp3043
F0.17391304347826086
s(S'Comparison.Contrast.2'
p3044
S'Comparison.Contrast.1'
p3045
tp3046
F0.043478260869565216
s(NS'Comparison.Contrast.2'
p3047
tp3048
F0.2608695652173913
ssS'apwsE951009.0278-2-2-0.perm-13.txt.pipe'
p3049
(dp3050
(S'Comparison.Contrast.2'
p3051
Ntp3052
F0.024752475247524754
s(S'Expansion.Conjunction.1'
p3053
Ntp3054
F0.03217821782178218
s(NS'Comparison.Contrast.2'
p3055
tp3056
F0.0049504950495049506
s(NNtp3057
F0.7599009900990099
s(NS'Expansion.Conjunction.2'
p3058
tp3059
F0.024752475247524754
s(S'.1'
p3060
Ntp3061
F0.017326732673267328
s(S'Comparison.Contrast.1'
p3062
Ntp3063
F0.017326732673267328
s(NS'Temporal.Synchrony.1'
p3064
tp3065
F0.0049504950495049506
s(Ng3060
tp3066
F0.017326732673267328
s(g3064
Ntp3067
F0.0049504950495049506
s(S'Temporal.Synchrony.2'
p3068
S'Expansion.Conjunction.1'
p3069
tp3070
F0.0024752475247524753
s(S'Temporal.Synchrony.2'
p3071
Ntp3072
F0.007425742574257425
s(NS'.2'
p3073
tp3074
F0.01485148514851485
s(NS'Comparison.Contrast.1'
p3075
tp3076
F0.009900990099009901
s(g3068
S'Comparison.Contrast.2'
p3077
tp3078
F0.0024752475247524753
s(Ng3053
tp3079
F0.0297029702970297
s(g3073
Ntp3080
F0.01485148514851485
s(Ng3071
tp3081
F0.009900990099009901
ssS'apwsE960109.0130-2-2-0.perm-12.txt.pipe'
p3082
(dp3083
(S'.2'
p3084
S'.2'
p3085
tp3086
F0.027554535017221583
s(NS'.2'
p3087
tp3088
F0.1148105625717566
s(S'Expansion.Conjunction.1'
p3089
Ntp3090
F0.003444316877152698
s(NS'Contingency.Cause.2'
p3091
tp3092
F0.008036739380022962
s(NNtp3093
F0.5591274397244547
s(S'.1'
p3094
Ntp3095
F0.08725602755453502
s(S'Expansion.Conjunction.2'
p3096
Ntp3097
F0.004592422502870264
s(g3087
Ntp3098
F0.09529276693455797
s(S'.2'
p3099
S'.1'
p3100
tp3101
F0.003444316877152698
s(S'Contingency.Cause.1'
p3102
g3100
tp3103
F0.001148105625717566
s(g3091
Ntp3104
F0.008036739380022962
s(S'.1'
p3105
g3100
tp3106
F0.0057405281285878304
s(NS'.1'
p3107
tp3108
F0.07921928817451206
s(S'Expansion.Conjunction.2'
p3109
S'.2'
p3110
tp3111
F0.001148105625717566
s(Ng3102
tp3112
F0.001148105625717566
ssS'apwsE951001.0257-2-2-0.perm-11.txt.pipe'
p3113
(dp3114
(S'.2'
p3115
S'.2'
p3116
tp3117
F0.012422360248447204
s(NS'Temporal.Asynchronous.1'
p3118
tp3119
F0.009937888198757764
s(g3118
Ntp3120
F0.009937888198757764
s(S'.1'
p3121
S'.1'
p3122
tp3123
F0.0037267080745341614
s(NS'Expansion.Conjunction.2'
p3124
tp3125
F0.03229813664596273
s(S'.1'
p3126
Ntp3127
F0.07204968944099378
s(S'Temporal.Asynchronous.2'
p3128
Ntp3129
F0.006211180124223602
s(Ng3126
tp3130
F0.0546583850931677
s(S'Expansion.Conjunction.2'
p3131
g3116
tp3132
F0.009937888198757764
s(S'Temporal.Asynchronous.2'
p3133
S'.2'
p3134
tp3135
F0.006211180124223602
s(S'.2'
p3136
S'Expansion.Conjunction.2'
p3137
tp3138
F0.002484472049689441
s(g3121
S'Expansion.Conjunction.1'
p3139
tp3140
F0.0037267080745341614
s(NS'.2'
p3141
tp3142
F0.084472049689441
s(g3139
Ntp3143
F0.011180124223602485
s(g3124
Ntp3144
F0.02360248447204969
s(S'Expansion.Conjunction.2'
p3145
S'.1'
p3146
tp3147
F0.0012422360248447205
s(S'.2'
p3148
g3146
tp3149
F0.0037267080745341614
s(S'.2'
p3150
S'Expansion.Conjunction.1'
p3151
tp3152
F0.002484472049689441
s(NS'Expansion.Conjunction.1'
p3153
tp3154
F0.009937888198757764
s(S'.2'
p3155
Ntp3156
F0.0484472049689441
s(NS'Temporal.Asynchronous.2'
p3157
tp3158
F0.011180124223602485
s(g3151
g3133
tp3159
F0.0012422360248447205
s(NNtp3160
F0.577639751552795
s(S'Expansion.Conjunction.1'
p3161
S'.1'
p3162
tp3163
F0.0012422360248447205
ssS'apwsE960207.0124-2-2-0.perm-11.txt.pipe'
p3164
(dp3165
sS'apwsE960109.0412-0-1.perm-13.txt.pipe'
p3166
(dp3167
sS'apwsE951218.0398-0-1.perm-11.txt.pipe'
p3168
(dp3169
sS'apwsE951003.0004-2-2-0.perm-10.txt.pipe'
p3170
(dp3171
(NS'.2'
p3172
tp3173
F0.08482142857142858
s(S'.2'
p3174
S'.2'
p3175
tp3176
F0.022321428571428572
s(S'Expansion.Conjunction.1'
p3177
Ntp3178
F0.05357142857142857
s(S'.1'
p3179
S'.1'
p3180
tp3181
F0.008928571428571428
s(NS'Expansion.Conjunction.2'
p3182
tp3183
F0.10267857142857142
s(g3180
Ntp3184
F0.044642857142857144
s(S'.2'
p3185
Ntp3186
F0.022321428571428572
s(NS'.1'
p3187
tp3188
F0.017857142857142856
s(NNtp3189
F0.6428571428571429
ssS'apwsE950928.0080-0-1.perm-10.txt.pipe'
p3190
(dp3191
sS'apwsE950914.0071-0-1.perm-10.txt.pipe'
p3192
(dp3193
sS'apwsE951106.0072-2-2-0.perm-12.txt.pipe'
p3194
(dp3195
sS'apwsE951122.0012-0-1.perm-10.txt.pipe'
p3196
(dp3197
(S'Expansion.Conjunction.2'
p3198
Ntp3199
F0.20833333333333334
s(S'Expansion.Conjunction.1'
p3200
Ntp3201
F0.125
s(NS'Comparison.Contrast.1'
p3202
tp3203
F0.16666666666666666
s(NS'Expansion.Conjunction.1'
p3204
tp3205
F0.08333333333333333
s(NS'Comparison.Contrast.2'
p3206
tp3207
F0.10416666666666667
s(NNtp3208
F0.1875
s(NS'Expansion.Conjunction.2'
p3209
tp3210
F0.125
ssS'apwsE951020.0432-2-2-0.perm-10.txt.pipe'
p3211
(dp3212
(S'Comparison.Contrast.2'
p3213
S'Expansion.Conjunction.2'
p3214
tp3215
F0.0036900369003690036
s(S'Comparison.Contrast.2'
p3216
Ntp3217
F0.007380073800738007
s(S'.2'
p3218
S'.2'
p3219
tp3220
F0.01845018450184502
s(S'Expansion.Conjunction.2'
p3221
S'Expansion.Conjunction.2'
p3222
tp3223
F0.00922509225092251
s(NS'Comparison.Contrast.2'
p3224
tp3225
F0.007380073800738007
s(S'.1'
p3226
S'.1'
p3227
tp3228
F0.0036900369003690036
s(Ng3221
tp3229
F0.02952029520295203
s(S'.1'
p3230
Ntp3231
F0.04797047970479705
s(S'Comparison.Contrast.1'
p3232
Ntp3233
F0.00922509225092251
s(S'Expansion.Conjunction.1'
p3234
S'Comparison.Contrast.2'
p3235
tp3236
F0.0018450184501845018
s(Ng3230
tp3237
F0.04059040590405904
s(S'.2'
p3238
g3227
tp3239
F0.0018450184501845018
s(NS'.2'
p3240
tp3241
F0.08118081180811808
s(NS'Comparison.Contrast.1'
p3242
tp3243
F0.00922509225092251
s(S'Expansion.Conjunction.1'
p3244
Ntp3245
F0.023985239852398525
s(g3214
Ntp3246
F0.007380073800738007
s(S'Comparison.Contrast.1'
p3247
S'Expansion.Conjunction.1'
p3248
tp3249
F0.0036900369003690036
s(Ng3234
tp3250
F0.005535055350553505
s(g3240
Ntp3251
F0.04981549815498155
s(S'Expansion.Conjunction.1'
p3252
g3248
tp3253
F0.0036900369003690036
s(NNtp3254
F0.6346863468634686
ssS'apwsE950928.0080-0-1.perm-1.txt.pipe'
p3255
(dp3256
sS'apwsE960313.0061-2-2-0.perm-12.txt.pipe'
p3257
(dp3258
(S'Comparison.Contrast.1'
p3259
Ntp3260
F0.1836734693877551
s(NS'Temporal.Asynchronous.2'
p3261
tp3262
F0.2857142857142857
s(S'Comparison.Contrast.2'
p3263
Ntp3264
F0.12244897959183673
s(NS'Temporal.Asynchronous.1'
p3265
tp3266
F0.12244897959183673
s(S'Comparison.Contrast.1'
p3267
S'Temporal.Asynchronous.2'
p3268
tp3269
F0.04081632653061224
s(NNtp3270
F0.20408163265306123
s(S'Comparison.Contrast.2'
p3271
S'Temporal.Asynchronous.2'
p3272
tp3273
F0.04081632653061224
ssS'apwsE950822.0071-0-1.perm-11.txt.pipe'
p3274
(dp3275
sS'apwsE951122.0004-0-1.perm-12.txt.pipe'
p3276
(dp3277
sS'apwsE951023.0357-2-2-0.perm-10.txt.pipe'
p3278
(dp3279
sS'apwsE951122.0012-0-1.perm-1.txt.pipe'
p3280
(dp3281
sS'apwsE950919.0564-2-2-0.perm-1.txt.pipe'
p3282
(dp3283
sS'apwsE951001.0257-2-2-0.perm-10.txt.pipe'
p3284
(dp3285
sS'apwsE951009.0228-2-2-0.perm-1.txt.pipe'
p3286
(dp3287
(S'Contingency.Cause.1'
p3288
Ntp3289
F0.02795425667090216
s(S'Contingency.Cause.2'
p3290
S'Comparison.Contrast.2'
p3291
tp3292
F0.0012706480304955528
s(S'.2'
p3293
S'Contingency.Cause.2'
p3294
tp3295
F0.005082592121982211
s(S'.2'
p3296
S'.2'
p3297
tp3298
F0.010165184243964422
s(NS'Comparison.Contrast.2'
p3299
tp3300
F0.011435832274459974
s(S'.1'
p3301
S'.1'
p3302
tp3303
F0.0025412960609911056
s(S'.1'
p3304
Ntp3305
F0.043202033036848796
s(S'Comparison.Contrast.1'
p3306
Ntp3307
F0.008894536213468869
s(g3299
g3291
tp3308
F0.0012706480304955528
s(g3294
Ntp3309
F0.021601016518424398
s(S'.1'
p3310
S'Contingency.Cause.1'
p3311
tp3312
F0.0012706480304955528
s(Ng3304
tp3313
F0.043202033036848796
s(S'.2'
p3314
g3302
tp3315
F0.0012706480304955528
s(g3291
Ntp3316
F0.011435832274459974
s(Ng3293
tp3317
F0.08005082592121983
s(NS'Contingency.Cause.2'
p3318
tp3319
F0.017789072426937738
s(Ng3306
tp3320
F0.008894536213468869
s(Ng3288
tp3321
F0.026683608640406607
s(S'.2'
p3322
Ntp3323
F0.05972045743329098
s(NNtp3324
F0.6162642947903431
ssS'apwsE951009.0226-2-2-0.perm-13.txt.pipe'
p3325
(dp3326
sS'apwsE960313.0061-2-2-0.perm-13.txt.pipe'
p3327
(dp3328
(S'Comparison.Contrast.1'
p3329
Ntp3330
F0.23404255319148937
s(S'Comparison.Contrast.2'
p3331
S'Contingency.Cause.1'
p3332
tp3333
F0.02127659574468085
s(S'Comparison.Contrast.2'
p3334
Ntp3335
F0.14893617021276595
s(NS'Contingency.Cause.2'
p3336
tp3337
F0.2127659574468085
s(NNtp3338
F0.3617021276595745
s(NS'Contingency.Cause.1'
p3339
tp3340
F0.02127659574468085
ssS'apwsE950822.0071-0-1.perm-13.txt.pipe'
p3341
(dp3342
sS'apwsE960313.0250-0-1.perm-1.txt.pipe'
p3343
(dp3344
sS'apwsE951001.0242-2-2-0.perm-11.txt.pipe'
p3345
(dp3346
sS'apwsE950919.0594-2-2-0.perm-10.txt.pipe'
p3347
(dp3348
sS'apwsE960221.0036-0-1.perm-10.txt.pipe'
p3349
(dp3350
sS'apwsE960313.0026-2-2-0.perm-11.txt.pipe'
p3351
(dp3352
sS'apwsE960214.0448-2-2-0.perm-12.txt.pipe'
p3353
(dp3354
sS'apwsE951020.0432-2-2-0.perm-13.txt.pipe'
p3355
(dp3356
(S'Comparison.Contrast.2'
p3357
S'Expansion.Conjunction.2'
p3358
tp3359
F0.003616636528028933
s(S'Comparison.Contrast.2'
p3360
Ntp3361
F0.012658227848101266
s(S'Expansion.Conjunction.1'
p3362
Ntp3363
F0.04159132007233273
s(Ng3360
tp3364
F0.05605786618444846
s(S'Expansion.Conjunction.2'
p3365
S'Comparison.Contrast.1'
p3366
tp3367
F0.0018083182640144665
s(NNtp3368
F0.5641952983725136
s(NS'Expansion.Conjunction.2'
p3369
tp3370
F0.05244122965641953
s(S'.1'
p3371
Ntp3372
F0.028933092224231464
s(S'Comparison.Contrast.1'
p3373
Ntp3374
F0.0216998191681736
s(S'Expansion.Conjunction.2'
p3375
S'.2'
p3376
tp3377
F0.003616636528028933
s(NS'Contingency.Condition.2'
p3378
tp3379
F0.0054249547920434
s(NS'.1'
p3380
tp3381
F0.012658227848101266
s(S'.2'
p3382
g3358
tp3383
F0.007233273056057866
s(S'.1'
p3384
S'Expansion.Conjunction.1'
p3385
tp3386
F0.0018083182640144665
s(NS'.2'
p3387
tp3388
F0.04159132007233273
s(NS'Comparison.Contrast.1'
p3389
tp3390
F0.034358047016274866
s(S'Comparison.Contrast.2'
p3391
g3376
tp3392
F0.003616636528028933
s(g3369
Ntp3393
F0.034358047016274866
s(Ng3362
tp3394
F0.02531645569620253
s(NS'Contingency.Condition.1'
p3395
tp3396
F0.0054249547920434
s(g3387
Ntp3397
F0.0379746835443038
s(g3385
S'Comparison.Contrast.1'
p3398
tp3399
F0.0018083182640144665
s(g3385
S'.1'
p3400
tp3401
F0.0018083182640144665
ssS'apwsE950331.0603-0-1.perm-11.txt.pipe'
p3402
(dp3403
sS'apwsE951210.0051-2-2-0.perm-1.txt.pipe'
p3404
(dp3405
sS'apwsE951221.0049-2-2-0.perm-1.txt.pipe'
p3406
(dp3407
sS'apwsE960207.0018-2-2-0.perm-12.txt.pipe'
p3408
(dp3409
(S'Comparison.Contrast.2'
p3410
S'Expansion.Conjunction.2'
p3411
tp3412
F0.06060606060606061
s(S'Comparison.Contrast.2'
p3413
Ntp3414
F0.06060606060606061
s(S'Expansion.Conjunction.1'
p3415
Ntp3416
F0.3333333333333333
s(NS'Comparison.Contrast.1'
p3417
tp3418
F0.09090909090909091
s(S'Comparison.Contrast.2'
p3419
S'Comparison.Contrast.1'
p3420
tp3421
F0.06060606060606061
s(NS'Comparison.Contrast.2'
p3422
tp3423
F0.030303030303030304
s(NS'Expansion.Conjunction.2'
p3424
tp3425
F0.15151515151515152
s(S'Comparison.Contrast.1'
p3426
Ntp3427
F0.15151515151515152
s(S'Expansion.Conjunction.1'
p3428
g3420
tp3429
F0.06060606060606061
ssS'apwsE950112.0297-0-1.perm-11.txt.pipe'
p3430
(dp3431
sS'apwsE960221.0036-0-1.perm-11.txt.pipe'
p3432
(dp3433
sS'apwsE951009.0278-2-2-0.perm-12.txt.pipe'
p3434
(dp3435
(S'Temporal.Synchrony.2'
p3436
Ntp3437
F0.011029411764705883
s(NS'.2'
p3438
tp3439
F0.014705882352941176
s(S'Expansion.Conjunction.2'
p3440
S'.1'
p3441
tp3442
F0.003676470588235294
s(S'Expansion.Conjunction.1'
p3443
Ntp3444
F0.04779411764705882
s(S'Temporal.Synchrony.1'
p3445
Ntp3446
F0.003676470588235294
s(NNtp3447
F0.7536764705882353
s(NS'Expansion.Conjunction.2'
p3448
tp3449
F0.04411764705882353
s(S'.1'
p3450
Ntp3451
F0.014705882352941176
s(g3448
Ntp3452
F0.05514705882352941
s(Ng3445
tp3453
F0.003676470588235294
s(g3440
S'Temporal.Synchrony.2'
p3454
tp3455
F0.003676470588235294
s(Ng3450
tp3456
F0.011029411764705883
s(NS'Expansion.Conjunction.1'
p3457
tp3458
F0.01838235294117647
s(Ng3436
tp3459
F0.011029411764705883
s(S'Temporal.Synchrony.2'
p3460
S'.2'
p3461
tp3462
F0.003676470588235294
ssS'apwsE950119.0186-0-1.perm-10.txt.pipe'
p3463
(dp3464
sS'apwsE950112.0297-0-1.perm-12.txt.pipe'
p3465
(dp3466
sS'apwsE951001.0242-2-2-0.perm-1.txt.pipe'
p3467
(dp3468
sS'apwsE950928.0094-0-1.perm-12.txt.pipe'
p3469
(dp3470
sS'apwsE951024.0123-2-2-0.perm-10.txt.pipe'
p3471
(dp3472
(S'Comparison.Contrast.1'
p3473
Ntp3474
F0.15384615384615385
s(NS'Expansion.Conjunction.2'
p3475
tp3476
F0.057692307692307696
s(NNtp3477
F0.6153846153846154
s(S'Comparison.Contrast.2'
p3478
Ntp3479
F0.09615384615384616
s(NS'Expansion.Conjunction.1'
p3480
tp3481
F0.07692307692307693
ssS'apwsE951018.0070-2-2-0.perm-13.txt.pipe'
p3482
(dp3483
sS'apwsE951020.0430-2-2-0.perm-11.txt.pipe'
p3484
(dp3485
(S'Comparison.Contrast.2'
p3486
S'Expansion.Conjunction.2'
p3487
tp3488
F0.014285714285714285
s(S'Comparison.Contrast.2'
p3489
Ntp3490
F0.02857142857142857
s(S'Expansion.Conjunction.1'
p3491
Ntp3492
F0.11428571428571428
s(NS'Comparison.Contrast.1'
p3493
tp3494
F0.05714285714285714
s(NS'Comparison.Contrast.2'
p3495
tp3496
F0.03571428571428571
s(NNtp3497
F0.5285714285714286
s(NS'Expansion.Conjunction.2'
p3498
tp3499
F0.16428571428571428
s(S'Comparison.Contrast.1'
p3500
Ntp3501
F0.05714285714285714
ssS'apwsE951122.0012-0-1.perm-12.txt.pipe'
p3502
(dp3503
sS'apwsE960313.0024-2-2-0.perm-12.txt.pipe'
p3504
(dp3505
sS'apwsE960207.0124-2-2-0.perm-10.txt.pipe'
p3506
(dp3507
sS'apwsE960203.0270-2-2-0.perm-13.txt.pipe'
p3508
(dp3509
(S'Expansion.Conjunction.1'
p3510
S'Expansion.Conjunction.2'
p3511
tp3512
F0.027777777777777776
s(S'Expansion.Conjunction.2'
p3513
Ntp3514
F0.16666666666666666
s(S'Expansion.Conjunction.1'
p3515
Ntp3516
F0.1388888888888889
s(NS'Expansion.Conjunction.1'
p3517
tp3518
F0.1388888888888889
s(NNtp3519
F0.3888888888888889
s(NS'Expansion.Conjunction.2'
p3520
tp3521
F0.1388888888888889
ssS'apwsE951024.0020-2-2-0.perm-12.txt.pipe'
p3522
(dp3523
(S'Expansion.Conjunction.2'
p3524
Ntp3525
F0.05714285714285714
s(S'Expansion.Conjunction.1'
p3526
Ntp3527
F0.11428571428571428
s(NS'Comparison.Contrast.1'
p3528
tp3529
F0.11428571428571428
s(NS'Comparison.Contrast.2'
p3530
tp3531
F0.2
s(NNtp3532
F0.4857142857142857
s(S'Expansion.Conjunction.2'
p3533
S'Comparison.Contrast.1'
p3534
tp3535
F0.02857142857142857
ssS'apwsE960313.0061-2-2-0.perm-10.txt.pipe'
p3536
(dp3537
sS'apwsE960206.0441-2-2-0.perm-13.txt.pipe'
p3538
(dp3539
sS'apwsE951018.0182-2-2-0.perm-11.txt.pipe'
p3540
(dp3541
sS'apwsE960206.0441-2-2-0.perm-11.txt.pipe'
p3542
(dp3543
sS'apwsE950905.0546-2-2-0.perm-13.txt.pipe'
p3544
(dp3545
sS'apwsE960106.0047-2-2-0.perm-11.txt.pipe'
p3546
(dp3547
sS'apwsE950620.0596-0-1.perm-3.txt.pipe'
p3548
(dp3549
sS'apwsE951226.0004-2-2-0.perm-1.txt.pipe'
p3550
(dp3551
(NS'Expansion.Conjunction.2'
p3552
tp3553
F0.6
s(S'Expansion.Conjunction.1'
p3554
Ntp3555
F0.4
ssS'apwsE951106.0072-2-2-0.perm-1.txt.pipe'
p3556
(dp3557
sS'apwsE950914.0071-0-1.perm-1.txt.pipe'
p3558
(dp3559
sS'apwsE951009.0244-2-2-0.perm-11.txt.pipe'
p3560
(dp3561
(S'Contingency.Cause.1'
p3562
Ntp3563
F0.01545253863134658
s(S'Expansion.Restatement.1'
p3564
Ntp3565
F0.002207505518763797
s(S'Comparison.Contrast.2'
p3566
Ntp3567
F0.026490066225165563
s(S'.2'
p3568
S'.2'
p3569
tp3570
F0.006622516556291391
s(NS'Comparison.Contrast.2'
p3571
tp3572
F0.008830022075055188
s(NNtp3573
F0.6578366445916115
s(NS'Expansion.Conjunction.2'
p3574
tp3575
F0.02869757174392936
s(S'.1'
p3576
Ntp3577
F0.037527593818984545
s(S'Comparison.Contrast.1'
p3578
Ntp3579
F0.024282560706401765
s(S'Contingency.Cause.2'
p3580
Ntp3581
F0.019867549668874173
s(Ng3576
tp3582
F0.037527593818984545
s(NS'Expansion.Restatement.2'
p3583
tp3584
F0.026490066225165563
s(NS'.2'
p3585
tp3586
F0.04856512141280353
s(S'Comparison.Contrast.2'
p3587
S'Expansion.Conjunction.1'
p3588
tp3589
F0.002207505518763797
s(g3583
Ntp3590
F0.02207505518763797
s(NS'Expansion.Conjunction.1'
p3591
tp3592
F0.006622516556291391
s(g3585
Ntp3593
F0.019867549668874173
s(Ng3564
tp3594
F0.002207505518763797
s(S'Expansion.Restatement.2'
p3595
S'.2'
p3596
tp3597
F0.004415011037527594
s(S'Contingency.Cause.1'
p3598
g3588
tp3599
F0.002207505518763797
ssS'apwsE951003.0485-2-2-0.perm-12.txt.pipe'
p3600
(dp3601
sS'apwsE960108.0238-2-2-0.perm-10.txt.pipe'
p3602
(dp3603
(S'Contingency.Cause.1'
p3604
Ntp3605
F0.016611295681063124
s(S'.2'
p3606
S'Contingency.Cause.2'
p3607
tp3608
F0.006644518272425249
s(S'.2'
p3609
g3606
tp3610
F0.019933554817275746
s(NNtp3611
F0.38205980066445183
s(S'.1'
p3612
Ntp3613
F0.12624584717607973
s(S'Contingency.Cause.1'
p3614
S'.1'
p3615
tp3616
F0.0033222591362126247
s(S'Contingency.Cause.2'
p3617
Ntp3618
F0.046511627906976744
s(S'.1'
p3619
g3614
tp3620
F0.0033222591362126247
s(Ng3612
tp3621
F0.10631229235880399
s(S'.2'
p3622
S'.1'
p3623
tp3624
F0.0033222591362126247
s(NS'.2'
p3625
tp3626
F0.10963455149501661
s(Ng3617
tp3627
F0.053156146179401995
s(S'Contingency.Cause.2'
p3628
S'.2'
p3629
tp3630
F0.013289036544850499
s(S'.2'
p3631
g3614
tp3632
F0.0033222591362126247
s(g3625
Ntp3633
F0.08970099667774087
s(Ng3604
tp3634
F0.016611295681063124
ssS'apwsE951024.0110-2-2-0.perm-10.txt.pipe'
p3635
(dp3636
(S'Comparison.Concession.1'
p3637
Ntp3638
F0.0673076923076923
s(S'Expansion.Conjunction.1'
p3639
Ntp3640
F0.038461538461538464
s(NS'Comparison.Contrast.1'
p3641
tp3642
F0.0673076923076923
s(NS'Comparison.Contrast.2'
p3643
tp3644
F0.04807692307692308
s(NNtp3645
F0.5576923076923077
s(NS'Expansion.Conjunction.2'
p3646
tp3647
F0.04807692307692308
s(S'Comparison.Concession.1'
p3648
S'Expansion.Conjunction.1'
p3649
tp3650
F0.009615384615384616
s(g3646
Ntp3651
F0.038461538461538464
s(Ng3639
tp3652
F0.028846153846153848
s(S'Expansion.Conjunction.2'
p3653
S'Comparison.Contrast.1'
p3654
tp3655
F0.009615384615384616
s(S'Comparison.Concession.2'
p3656
Ntp3657
F0.08653846153846154
ssS'apwsE960221.0036-0-1.perm-1.txt.pipe'
p3658
(dp3659
sS'apwsE960108.0238-2-2-0.perm-13.txt.pipe'
p3660
(dp3661
(NS'.2'
p3662
tp3663
F0.11776061776061776
s(S'.2'
p3664
S'.2'
p3665
tp3666
F0.03474903474903475
s(S'.1'
p3667
S'.1'
p3668
tp3669
F0.013513513513513514
s(NNtp3670
F0.5444015444015444
s(NS'.1'
p3671
tp3672
F0.08301158301158301
s(g3662
Ntp3673
F0.0945945945945946
s(g3671
Ntp3674
F0.10424710424710425
s(S'.2'
p3675
g3668
tp3676
F0.007722007722007722
ssS'apwsE951121.0037-2-2-0.perm-11.txt.pipe'
p3677
(dp3678
(S'Comparison.Contrast.2'
p3679
Ntp3680
F0.1566265060240964
s(NS'.2'
p3681
tp3682
F0.08433734939759036
s(Ng3679
tp3683
F0.10843373493975904
s(NNtp3684
F0.39759036144578314
s(NS'.1'
p3685
tp3686
F0.05421686746987952
s(S'Comparison.Contrast.2'
p3687
S'.1'
p3688
tp3689
F0.018072289156626505
s(S'Comparison.Contrast.1'
p3690
Ntp3691
F0.08433734939759036
s(S'Comparison.Contrast.2'
p3692
S'Comparison.Contrast.2'
p3693
tp3694
F0.024096385542168676
s(g3685
Ntp3695
F0.07228915662650602
ssS'apwsE950919.0564-2-2-0.perm-12.txt.pipe'
p3696
(dp3697
(S'Expansion.Conjunction.2'
p3698
Ntp3699
F0.2391304347826087
s(S'Expansion.Conjunction.1'
p3700
S'Contingency.Cause.1'
p3701
tp3702
F0.021739130434782608
s(NS'Contingency.Cause.2'
p3703
tp3704
F0.10869565217391304
s(S'Expansion.Conjunction.1'
p3705
Ntp3706
F0.043478260869565216
s(NNtp3707
F0.5
s(NS'Contingency.Cause.1'
p3708
tp3709
F0.08695652173913043
ssS'apwsE951024.0072-2-2-0.perm-1.txt.pipe'
p3710
(dp3711
(S'Comparison.Concession.1'
p3712
Ntp3713
F0.08333333333333333
s(S'Comparison.Contrast.2'
p3714
Ntp3715
F0.0625
s(S'Comparison.Contrast.1'
p3716
S'Comparison.Contrast.2'
p3717
tp3718
F0.010416666666666666
s(NS'Comparison.Contrast.1'
p3719
tp3720
F0.10416666666666667
s(Ng3714
tp3721
F0.10416666666666667
s(NNtp3722
F0.4791666666666667
s(S'Comparison.Contrast.1'
p3723
Ntp3724
F0.020833333333333332
s(S'Comparison.Contrast.2'
p3725
S'Comparison.Contrast.2'
p3726
tp3727
F0.010416666666666666
s(S'Comparison.Concession.2'
p3728
S'Comparison.Contrast.1'
p3729
tp3730
F0.010416666666666666
s(S'Comparison.Concession.2'
p3731
Ntp3732
F0.08333333333333333
s(S'Comparison.Contrast.1'
p3733
S'Comparison.Contrast.1'
p3734
tp3735
F0.03125
ssS'apwsE951001.0302-2-2-0.perm-13.txt.pipe'
p3736
(dp3737
(NS'.2'
p3738
tp3739
F0.08791208791208792
s(S'Expansion.Conjunction.1'
p3740
Ntp3741
F0.005494505494505495
s(NNtp3742
F0.7142857142857143
s(NS'Expansion.Conjunction.2'
p3743
tp3744
F0.07692307692307693
s(S'.1'
p3745
Ntp3746
F0.09340659340659341
s(Ng3740
tp3747
F0.005494505494505495
s(S'.2'
p3748
Ntp3749
F0.01098901098901099
s(S'.2'
p3750
S'Expansion.Conjunction.2'
p3751
tp3752
F0.005494505494505495
ssS'apwsE960108.0194-2-2-0.perm-13.txt.pipe'
p3753
(dp3754
sS'apwsE950424.0128-0-1.perm-13.txt.pipe'
p3755
(dp3756
sS'apwsE951121.0037-2-2-0.perm-13.txt.pipe'
p3757
(dp3758
(S'Comparison.Contrast.2'
p3759
Ntp3760
F0.1746987951807229
s(NS'.2'
p3761
tp3762
F0.12048192771084337
s(Ng3759
tp3763
F0.10843373493975904
s(NNtp3764
F0.41566265060240964
s(NS'.1'
p3765
tp3766
F0.03614457831325301
s(S'Comparison.Contrast.1'
p3767
Ntp3768
F0.08433734939759036
s(S'Comparison.Contrast.2'
p3769
S'Comparison.Contrast.2'
p3770
tp3771
F0.024096385542168676
s(g3765
Ntp3772
F0.03614457831325301
ssS'apwsE960313.0250-0-1.perm-10.txt.pipe'
p3773
(dp3774
sS'apwsE960108.0194-2-2-0.perm-10.txt.pipe'
p3775
(dp3776
sS'apwsE951216.0211-2-2-0.perm-12.txt.pipe'
p3777
(dp3778
sS'apwsE960206.0441-2-2-0.perm-12.txt.pipe'
p3779
(dp3780
sS'apwsE950928.0080-0-1.perm-12.txt.pipe'
p3781
(dp3782
sS'apwsE960207.0018-2-2-0.perm-10.txt.pipe'
p3783
(dp3784
(NS'Comparison.Contrast.1'
p3785
tp3786
F0.13157894736842105
s(NS'Comparison.Contrast.2'
p3787
tp3788
F0.02631578947368421
s(NNtp3789
F0.21052631578947367
s(NS'Expansion.Conjunction.2'
p3790
tp3791
F0.34210526315789475
s(S'Expansion.Conjunction.1'
p3792
Ntp3793
F0.2894736842105263
ssS'apwsE951215.0060-2-2-0.perm-1.txt.pipe'
p3794
(dp3795
sS'apwsE951203.0078-2-2-0.perm-10.txt.pipe'
p3796
(dp3797
sS'apwsE950925.0091-0-1.perm-11.txt.pipe'
p3798
(dp3799
(NS'Expansion.Conjunction.2'
p3800
tp3801
F0.5909090909090909
s(S'Expansion.Conjunction.1'
p3802
Ntp3803
F0.4090909090909091
ssS'apwsE951101.0026-0-1.perm-1.txt.pipe'
p3804
(dp3805
sS'apwsE960203.0270-2-2-0.perm-10.txt.pipe'
p3806
(dp3807
sS'apwsE960207.0488-2-2-0.perm-12.txt.pipe'
p3808
(dp3809
(NS'Expansion.Alternative.2'
p3810
tp3811
F0.22580645161290322
s(S'Expansion.Conjunction.1'
p3812
S'Expansion.Alternative.2'
p3813
tp3814
F0.06451612903225806
s(NS'Expansion.Alternative.1'
p3815
tp3816
F0.16129032258064516
s(NS'Expansion.Conjunction.2'
p3817
tp3818
F0.3870967741935484
s(S'Expansion.Conjunction.1'
p3819
Ntp3820
F0.16129032258064516
ssS'apwsE951009.0305-2-2-0.perm-10.txt.pipe'
p3821
(dp3822
(S'Contingency.Cause.1'
p3823
Ntp3824
F0.018912529550827423
s(S'Comparison.Contrast.2'
p3825
S'Expansion.Conjunction.2'
p3826
tp3827
F0.002364066193853428
s(S'Comparison.Contrast.2'
p3828
Ntp3829
F0.037825059101654845
s(S'Expansion.Conjunction.1'
p3830
Ntp3831
F0.0425531914893617
s(S'Comparison.Contrast.1'
p3832
S'Expansion.Conjunction.2'
p3833
tp3834
F0.002364066193853428
s(S'Expansion.Conjunction.2'
p3835
g3826
tp3836
F0.002364066193853428
s(NS'Comparison.Contrast.2'
p3837
tp3838
F0.016548463356973995
s(NNtp3839
F0.6595744680851063
s(NS'Expansion.Conjunction.2'
p3840
tp3841
F0.08983451536643026
s(S'Comparison.Contrast.1'
p3842
Ntp3843
F0.030732860520094562
s(NS'Temporal.Synchrony.1'
p3844
tp3845
F0.002364066193853428
s(g3833
S'Expansion.Conjunction.1'
p3846
tp3847
F0.002364066193853428
s(S'Contingency.Cause.2'
p3848
Ntp3849
F0.02127659574468085
s(g3844
Ntp3850
F0.002364066193853428
s(S'Temporal.Synchrony.2'
p3851
Ntp3852
F0.0070921985815602835
s(NS'Comparison.Contrast.1'
p3853
tp3854
F0.01182033096926714
s(S'Expansion.Conjunction.2'
p3855
Ntp3856
F0.004728132387706856
s(S'Temporal.Synchrony.2'
p3857
S'Comparison.Contrast.2'
p3858
tp3859
F0.002364066193853428
s(NS'Expansion.Conjunction.1'
p3860
tp3861
F0.03309692671394799
s(Ng3851
tp3862
F0.009456264775413711
ssS'apwsE950914.0071-0-1.perm-13.txt.pipe'
p3863
(dp3864
sS'apwsE951210.0051-2-2-0.perm-10.txt.pipe'
p3865
(dp3866
sS'apwsE960303.0079-2-2-0.perm-10.txt.pipe'
p3867
(dp3868
sS'apwsE950827.0035-2-2-0.perm-10.txt.pipe'
p3869
(dp3870
(S'Contingency.Cause.1'
p3871
Ntp3872
F0.02702702702702703
s(NS'Temporal.Asynchronous.2'
p3873
tp3874
F0.16216216216216217
s(NS'Temporal.Asynchronous.1'
p3875
tp3876
F0.08108108108108109
s(NS'Comparison.Contrast.1'
p3877
tp3878
F0.16216216216216217
s(S'Contingency.Cause.2'
p3879
S'Comparison.Contrast.1'
p3880
tp3881
F0.02702702702702703
s(NS'Comparison.Contrast.2'
p3882
tp3883
F0.16216216216216217
s(g3879
S'Temporal.Asynchronous.2'
p3884
tp3885
F0.02702702702702703
s(S'Contingency.Cause.1'
p3886
S'Temporal.Asynchronous.1'
p3887
tp3888
F0.02702702702702703
s(S'Contingency.Cause.2'
p3889
Ntp3890
F0.2702702702702703
s(S'Contingency.Cause.1'
p3891
S'Comparison.Contrast.2'
p3892
tp3893
F0.02702702702702703
s(g3886
S'Comparison.Contrast.1'
p3894
tp3895
F0.02702702702702703
ssS'apwsE951221.0001-0-1.perm-13.txt.pipe'
p3896
(dp3897
(S'Comparison.Contrast.1'
p3898
Ntp3899
F0.08695652173913043
s(S'Comparison.Contrast.1'
p3900
S'Comparison.Contrast.1'
p3901
tp3902
F0.08695652173913043
s(S'Comparison.Contrast.2'
p3903
Ntp3904
F0.34782608695652173
s(NS'Comparison.Contrast.1'
p3905
tp3906
F0.17391304347826086
s(S'Comparison.Contrast.2'
p3907
S'Comparison.Contrast.1'
p3908
tp3909
F0.043478260869565216
s(NS'Comparison.Contrast.2'
p3910
tp3911
F0.2608695652173913
ssS'apwsE951018.0170-2-2-0.perm-10.txt.pipe'
p3912
(dp3913
sS'apwsE960216.0241-2-2-0.perm-10.txt.pipe'
p3914
(dp3915
sS'apwsE951108.0165-2-2-0.perm-10.txt.pipe'
p3916
(dp3917
(S'Expansion.Conjunction.2'
p3918
Ntp3919
F0.03389830508474576
s(S'Comparison.Contrast.1'
p3920
Ntp3921
F0.00847457627118644
s(S'Expansion.Conjunction.1'
p3922
Ntp3923
F0.1440677966101695
s(S'Expansion.Conjunction.2'
p3924
S'Expansion.Conjunction.2'
p3925
tp3926
F0.025423728813559324
s(NS'Comparison.Contrast.2'
p3927
tp3928
F0.11016949152542373
s(NNtp3929
F0.5932203389830508
s(NS'Expansion.Conjunction.2'
p3930
tp3931
F0.0847457627118644
ssS'apwsE951023.0362-2-2-0.perm-1.txt.pipe'
p3932
(dp3933
sS'apwsE950213.0175-0-1.perm-13.txt.pipe'
p3934
(dp3935
sS'apwsE960313.0061-2-2-0.perm-11.txt.pipe'
p3936
(dp3937
sS'apwsE960313.0024-2-2-0.perm-11.txt.pipe'
p3938
(dp3939
sS'apwsE960106.0047-2-2-0.perm-12.txt.pipe'
p3940
(dp3941
sS'apwsE950213.0175-0-1.perm-10.txt.pipe'
p3942
(dp3943
sS'apwsE951001.0302-2-2-0.perm-12.txt.pipe'
p3944
(dp3945
(S'Expansion.Restatement.1'
p3946
Ntp3947
F0.013205282112845138
s(S'.2'
p3948
S'.2'
p3949
tp3950
F0.021608643457382955
s(NS'Temporal.Asynchronous.1'
p3951
tp3952
F0.007202881152460984
s(S'Temporal.Asynchronous.1'
p3953
Ntp3954
F0.003601440576230492
s(g3951
S'.1'
p3955
tp3956
F0.006002400960384154
s(S'.1'
p3957
g3955
tp3958
F0.010804321728691477
s(S'.1'
p3959
S'Temporal.Asynchronous.1'
p3960
tp3961
F0.0024009603841536613
s(g3955
Ntp3962
F0.060024009603841535
s(S'.2'
p3963
S'Expansion.Restatement.2'
p3964
tp3965
F0.0012004801920768306
s(S'Temporal.Asynchronous.2'
p3966
Ntp3967
F0.006002400960384154
s(Ng3957
tp3968
F0.04321728691476591
s(NS'Expansion.Restatement.2'
p3969
tp3970
F0.013205282112845138
s(S'Temporal.Asynchronous.2'
p3971
S'.2'
p3972
tp3973
F0.006002400960384154
s(S'Expansion.Restatement.2'
p3974
S'.1'
p3975
tp3976
F0.0024009603841536613
s(S'Temporal.Asynchronous.2'
p3977
S'.1'
p3978
tp3979
F0.0012004801920768306
s(S'.1'
p3980
S'Expansion.Restatement.1'
p3981
tp3982
F0.0024009603841536613
s(Ng3966
tp3983
F0.012004801920768308
s(NS'.2'
p3984
tp3985
F0.08763505402160865
s(g3974
g3960
tp3986
F0.0024009603841536613
s(S'.2'
p3987
g3955
tp3988
F0.007202881152460984
s(g3969
Ntp3989
F0.010804321728691477
s(g3984
Ntp3990
F0.04801920768307323
s(Ng3946
tp3991
F0.010804321728691477
s(S'Expansion.Restatement.2'
p3992
S'.2'
p3993
tp3994
F0.0012004801920768306
s(NNtp3995
F0.6194477791116446
ssS'apwsE960109.0103-2-2-0.perm-12.txt.pipe'
p3996
(dp3997
sS'apwsE951010.0087-2-2-0.perm-1.txt.pipe'
p3998
(dp3999
(S'Temporal.Synchrony.2'
p4000
Ntp4001
F0.006568144499178982
s(S'Temporal.Asynchronous.2'
p4002
S'Comparison.Contrast.2'
p4003
tp4004
F0.0016420361247947454
s(S'Comparison.Contrast.2'
p4005
Ntp4006
F0.013136288998357963
s(S'Expansion.Conjunction.1'
p4007
Ntp4008
F0.011494252873563218
s(NS'Comparison.Contrast.1'
p4009
tp4010
F0.013136288998357963
s(S'Temporal.Asynchronous.1'
p4011
Ntp4012
F0.014778325123152709
s(NS'Comparison.Contrast.2'
p4013
tp4014
F0.04433497536945813
s(NNtp4015
F0.7816091954022989
s(S'Expansion.Conjunction.2'
p4016
Ntp4017
F0.008210180623973728
s(S'Comparison.Contrast.1'
p4018
Ntp4019
F0.041050903119868636
s(NS'Temporal.Synchrony.1'
p4020
tp4021
F0.003284072249589491
s(S'Temporal.Asynchronous.2'
p4022
Ntp4023
F0.011494252873563218
s(S'Expansion.Conjunction.2'
p4024
g4003
tp4025
F0.0016420361247947454
s(NS'Temporal.Synchrony.2'
p4026
tp4027
F0.031198686371100164
s(S'Temporal.Synchrony.1'
p4028
Ntp4029
F0.016420361247947456
ssS'apwsE950914.0074-0-1.perm-13.txt.pipe'
p4030
(dp4031
sS'apwsE951024.0020-2-2-0.perm-10.txt.pipe'
p4032
(dp4033
(S'Expansion.Conjunction.1'
p4034
S'Expansion.Conjunction.2'
p4035
tp4036
F0.014285714285714285
s(S'Comparison.Contrast.2'
p4037
Ntp4038
F0.1
s(S'Expansion.Conjunction.1'
p4039
Ntp4040
F0.12857142857142856
s(S'Comparison.Contrast.1'
p4041
S'Expansion.Conjunction.2'
p4042
tp4043
F0.014285714285714285
s(S'Expansion.Conjunction.2'
p4044
S'Expansion.Conjunction.2'
p4045
tp4046
F0.014285714285714285
s(NNtp4047
F0.4857142857142857
s(NS'Expansion.Conjunction.2'
p4048
tp4049
F0.07142857142857142
s(S'Expansion.Conjunction.2'
p4050
Ntp4051
F0.02857142857142857
s(S'Comparison.Contrast.1'
p4052
Ntp4053
F0.05714285714285714
s(NS'Expansion.Conjunction.1'
p4054
tp4055
F0.08571428571428572
ssS'apwsE951020.0430-2-2-0.perm-1.txt.pipe'
p4056
(dp4057
(S'Expansion.Conjunction.1'
p4058
Ntp4059
F0.125
s(NS'Comparison.Contrast.1'
p4060
tp4061
F0.05555555555555555
s(NS'Expansion.Conjunction.1'
p4062
tp4063
F0.020833333333333332
s(NS'Comparison.Contrast.2'
p4064
tp4065
F0.027777777777777776
s(NNtp4066
F0.5
s(NS'Expansion.Conjunction.2'
p4067
tp4068
F0.16666666666666666
s(S'Expansion.Conjunction.2'
p4069
Ntp4070
F0.04861111111111111
s(g4062
S'Comparison.Contrast.2'
p4071
tp4072
F0.006944444444444444
s(g4067
S'Expansion.Conjunction.2'
p4073
tp4074
F0.034722222222222224
s(S'Expansion.Conjunction.1'
p4075
S'Expansion.Conjunction.1'
p4076
tp4077
F0.013888888888888888
ssS'apwsE951210.0356-2-2-0.perm-1.txt.pipe'
p4078
(dp4079
sS'apwsE951201.0003-2-2-0.perm-13.txt.pipe'
p4080
(dp4081
sS'apwsE951021.0001-2-2-0.perm-12.txt.pipe'
p4082
(dp4083
(S'Comparison.Contrast.2'
p4084
Ntp4085
F0.04328018223234624
s(S'Expansion.Conjunction.1'
p4086
Ntp4087
F0.05694760820045558
s(NS'Temporal.Asynchronous.1'
p4088
tp4089
F0.01366742596810934
s(NS'Comparison.Contrast.2'
p4090
tp4091
F0.015945330296127564
s(NNtp4092
F0.6810933940774487
s(NS'Expansion.Conjunction.2'
p4093
tp4094
F0.025056947608200455
s(S'Expansion.Conjunction.1'
p4095
S'Contingency.Cause.1'
p4096
tp4097
F0.002277904328018223
s(S'Comparison.Contrast.1'
p4098
Ntp4099
F0.04783599088838269
s(S'Comparison.Contrast.2'
p4100
g4084
tp4101
F0.00683371298405467
s(NS'Contingency.Condition.2'
p4102
tp4103
F0.00683371298405467
s(NS'Temporal.Asynchronous.2'
p4104
tp4105
F0.009111617312072893
s(NS'Contingency.Cause.2'
p4106
tp4107
F0.02050113895216401
s(Ng4098
tp4108
F0.03189066059225513
s(S'Comparison.Contrast.2'
p4109
S'Contingency.Condition.1'
p4110
tp4111
F0.002277904328018223
s(S'Expansion.Conjunction.1'
p4112
S'Contingency.Cause.2'
p4113
tp4114
F0.002277904328018223
s(S'Expansion.Conjunction.2'
p4115
Ntp4116
F0.011389521640091117
s(S'Expansion.Conjunction.2'
p4117
g4084
tp4118
F0.00683371298405467
s(NS'Contingency.Condition.1'
p4119
tp4120
F0.004555808656036446
s(S'Comparison.Contrast.1'
p4121
S'Contingency.Condition.2'
p4122
tp4123
F0.002277904328018223
s(NS'Contingency.Cause.1'
p4124
tp4125
F0.009111617312072893
ssS'apwsE951024.0110-2-2-0.perm-13.txt.pipe'
p4126
(dp4127
(S'Expansion.Conjunction.1'
p4128
Ntp4129
F0.0673076923076923
s(NS'Comparison.Contrast.1'
p4130
tp4131
F0.07692307692307693
s(NS'Comparison.Contrast.2'
p4132
tp4133
F0.04807692307692308
s(NNtp4134
F0.5673076923076923
s(S'Expansion.Conjunction.1'
p4135
S'Comparison.Concession.1'
p4136
tp4137
F0.009615384615384616
s(S'Expansion.Conjunction.2'
p4138
Ntp4139
F0.07692307692307693
s(NS'Comparison.Concession.1'
p4140
tp4141
F0.0673076923076923
s(NS'Comparison.Concession.2'
p4142
tp4143
F0.08653846153846154
ssS'apwsE951003.0485-2-2-0.perm-10.txt.pipe'
p4144
(dp4145
sS'apwsE951108.0165-2-2-0.perm-1.txt.pipe'
p4146
(dp4147
(S'Comparison.Contrast.2'
p4148
Ntp4149
F0.06451612903225806
s(S'Expansion.Conjunction.1'
p4150
Ntp4151
F0.07373271889400922
s(S'Comparison.Contrast.2'
p4152
S'Expansion.Conjunction.1'
p4153
tp4154
F0.004608294930875576
s(NS'Comparison.Contrast.2'
p4155
tp4156
F0.06912442396313365
s(NNtp4157
F0.5852534562211982
s(NS'Expansion.Conjunction.2'
p4158
tp4159
F0.09216589861751152
s(S'Expansion.Conjunction.2'
p4160
Ntp4161
F0.02304147465437788
s(S'Comparison.Contrast.1'
p4162
Ntp4163
F0.05069124423963134
s(NS'Expansion.Conjunction.1'
p4164
tp4165
F0.03686635944700461
ssS'apwsE950919.0594-2-2-0.perm-1.txt.pipe'
p4166
(dp4167
sS'apwsE951009.0305-2-2-0.perm-1.txt.pipe'
p4168
(dp4169
(S'Contingency.Cause.1'
p4170
Ntp4171
F0.01616161616161616
s(S'Comparison.Contrast.2'
p4172
Ntp4173
F0.03838383838383838
s(S'Expansion.Conjunction.1'
p4174
Ntp4175
F0.030303030303030304
s(NS'Expansion.Conjunction.1'
p4176
tp4177
F0.028282828282828285
s(NS'Comparison.Contrast.2'
p4178
tp4179
F0.026262626262626262
s(NNtp4180
F0.6202020202020202
s(NS'Expansion.Conjunction.2'
p4181
tp4182
F0.06868686868686869
s(S'Comparison.Contrast.1'
p4183
Ntp4184
F0.048484848484848485
s(NS'Temporal.Synchrony.1'
p4185
tp4186
F0.00202020202020202
s(S'Comparison.Contrast.2'
p4187
S'Comparison.Contrast.2'
p4188
tp4189
F0.00202020202020202
s(S'Expansion.Conjunction.2'
p4190
S'Expansion.Conjunction.1'
p4191
tp4192
F0.00202020202020202
s(S'Contingency.Cause.2'
p4193
Ntp4194
F0.01818181818181818
s(S'Expansion.Conjunction.2'
p4195
S'Comparison.Contrast.2'
p4196
tp4197
F0.010101010101010102
s(NS'Temporal.Synchrony.2'
p4198
tp4199
F0.00808080808080808
s(NS'Comparison.Contrast.1'
p4200
tp4201
F0.03434343434343434
s(S'Expansion.Conjunction.2'
p4202
Ntp4203
F0.03636363636363636
s(S'Comparison.Contrast.1'
p4204
g4191
tp4205
F0.00202020202020202
s(S'Expansion.Conjunction.2'
p4206
S'Expansion.Conjunction.2'
p4207
tp4208
F0.00202020202020202
s(S'Expansion.Conjunction.1'
p4209
S'Comparison.Contrast.1'
p4210
tp4211
F0.006060606060606061
ssS'apwsE960221.0036-0-1.perm-13.txt.pipe'
p4212
(dp4213
sS'apwsE951024.0110-2-2-0.perm-12.txt.pipe'
p4214
(dp4215
(S'Comparison.Contrast.2'
p4216
Ntp4217
F0.04807692307692308
s(S'Expansion.Conjunction.1'
p4218
Ntp4219
F0.019230769230769232
s(NS'Comparison.Contrast.1'
p4220
tp4221
F0.057692307692307696
s(NS'Comparison.Contrast.2'
p4222
tp4223
F0.0673076923076923
s(NNtp4224
F0.6538461538461539
s(NS'Expansion.Conjunction.2'
p4225
tp4226
F0.028846153846153848
s(g4225
Ntp4227
F0.028846153846153848
s(S'Comparison.Contrast.1'
p4228
Ntp4229
F0.07692307692307693
s(Ng4218
tp4230
F0.019230769230769232
ssS'apwsE951018.0070-2-2-0.perm-1.txt.pipe'
p4231
(dp4232
sS'apwsE960108.0194-2-2-0.perm-11.txt.pipe'
p4233
(dp4234
sS'apwsE950620.0596-0-1.perm-10.txt.pipe'
p4235
(dp4236
sS'apwsE950822.0071-0-1.perm-12.txt.pipe'
p4237
(dp4238
sS'apwsE950905.0546-2-2-0.perm-1.txt.pipe'
p4239
(dp4240
sS'apwsE951024.0020-2-2-0.perm-1.txt.pipe'
p4241
(dp4242
(S'Expansion.Conjunction.1'
p4243
S'Expansion.Conjunction.2'
p4244
tp4245
F0.02857142857142857
s(S'Expansion.Conjunction.1'
p4246
Ntp4247
F0.12380952380952381
s(NS'Comparison.Contrast.1'
p4248
tp4249
F0.0380952380952381
s(S'Expansion.Conjunction.2'
p4250
S'Expansion.Conjunction.2'
p4251
tp4252
F0.009523809523809525
s(NS'Comparison.Contrast.2'
p4253
tp4254
F0.06666666666666667
s(NNtp4255
F0.5047619047619047
s(NS'Expansion.Conjunction.2'
p4256
tp4257
F0.06666666666666667
s(S'Expansion.Conjunction.2'
p4258
Ntp4259
F0.0761904761904762
s(S'Expansion.Conjunction.2'
p4260
S'Expansion.Conjunction.1'
p4261
tp4262
F0.009523809523809525
s(NS'Expansion.Conjunction.1'
p4263
tp4264
F0.06666666666666667
s(g4251
S'Comparison.Contrast.1'
p4265
tp4266
F0.009523809523809525
ssS'apwsE950928.0080-0-1.perm-11.txt.pipe'
p4267
(dp4268
sS'apwsE951009.0294-2-2-0.perm-1.txt.pipe'
p4269
(dp4270
sS'apwsE950919.0202-2-2-0.perm-10.txt.pipe'
p4271
(dp4272
sS'apwsE951004.0060-2-2-0.perm-1.txt.pipe'
p4273
(dp4274
sS'apwsE950424.0128-0-1.perm-10.txt.pipe'
p4275
(dp4276
sS'apwsE951009.0216-2-2-0.perm-10.txt.pipe'
p4277
(dp4278
sS'apwsE960109.0130-2-2-0.perm-1.txt.pipe'
p4279
(dp4280
sS'apwsE951122.0004-0-1.perm-13.txt.pipe'
p4281
(dp4282
sS'apwsE950919.0594-2-2-0.perm-13.txt.pipe'
p4283
(dp4284
sS'apwsE951101.0026-0-1.perm-12.txt.pipe'
p4285
(dp4286
(S'Comparison.Contrast.1'
p4287
Ntp4288
F0.08695652173913043
s(S'Comparison.Contrast.1'
p4289
S'Comparison.Contrast.1'
p4290
tp4291
F0.08695652173913043
s(S'Comparison.Contrast.2'
p4292
Ntp4293
F0.34782608695652173
s(NS'Comparison.Contrast.1'
p4294
tp4295
F0.17391304347826086
s(S'Comparison.Contrast.2'
p4296
S'Comparison.Contrast.1'
p4297
tp4298
F0.043478260869565216
s(NS'Comparison.Contrast.2'
p4299
tp4300
F0.2608695652173913
ssS'apwsE950425.0109-0-1.perm-1.txt.pipe'
p4301
(dp4302
sS'apwsE951020.0430-2-2-0.perm-10.txt.pipe'
p4303
(dp4304
(S'Comparison.Contrast.1'
p4305
S'Comparison.Contrast.1'
p4306
tp4307
F0.0035714285714285713
s(S'Comparison.Contrast.2'
p4308
Ntp4309
F0.03571428571428571
s(S'Expansion.Conjunction.1'
p4310
Ntp4311
F0.039285714285714285
s(NS'Comparison.Contrast.1'
p4312
tp4313
F0.05357142857142857
s(NS'Comparison.Contrast.2'
p4314
tp4315
F0.039285714285714285
s(NNtp4316
F0.6642857142857143
s(NS'Expansion.Conjunction.2'
p4317
tp4318
F0.1
s(g4317
Ntp4319
F0.02857142857142857
s(S'Comparison.Contrast.1'
p4320
Ntp4321
F0.010714285714285714
s(Ng4310
tp4322
F0.025
ssS'apwsE951121.0032-2-2-0.perm-13.txt.pipe'
p4323
(dp4324
sS'apwsE950919.0580-2-2-0.perm-1.txt.pipe'
p4325
(dp4326
sS'apwsE951009.0278-2-2-0.perm-11.txt.pipe'
p4327
(dp4328
(NS'.2'
p4329
tp4330
F0.021367521367521368
s(S'Comparison.Contrast.2'
p4331
Ntp4332
F0.029914529914529916
s(S'Expansion.Conjunction.1'
p4333
Ntp4334
F0.038461538461538464
s(NNtp4335
F0.7692307692307693
s(NS'Expansion.Conjunction.2'
p4336
tp4337
F0.03418803418803419
s(S'.1'
p4338
Ntp4339
F0.04700854700854701
s(S'Comparison.Contrast.1'
p4340
Ntp4341
F0.01282051282051282
s(Ng4338
tp4342
F0.04700854700854701
ssS'apwsE950914.0071-0-1.perm-11.txt.pipe'
p4343
(dp4344
sS'apwsE960109.0412-0-1.perm-11.txt.pipe'
p4345
(dp4346
sS'apwsE951221.0049-2-2-0.perm-13.txt.pipe'
p4347
(dp4348
sS'apwsE950919.0202-2-2-0.perm-11.txt.pipe'
p4349
(dp4350
sS'apwsE960313.0024-2-2-0.perm-1.txt.pipe'
p4351
(dp4352
sS'apwsE951218.0398-0-1.perm-13.txt.pipe'
p4353
(dp4354
(S'Comparison.Contrast.1'
p4355
Ntp4356
F0.08695652173913043
s(S'Comparison.Contrast.1'
p4357
S'Comparison.Contrast.1'
p4358
tp4359
F0.08695652173913043
s(S'Comparison.Contrast.2'
p4360
Ntp4361
F0.34782608695652173
s(NS'Comparison.Contrast.1'
p4362
tp4363
F0.17391304347826086
s(S'Comparison.Contrast.2'
p4364
S'Comparison.Contrast.1'
p4365
tp4366
F0.043478260869565216
s(NS'Comparison.Contrast.2'
p4367
tp4368
F0.2608695652173913
ssS'apwsE951024.0005-2-2-0.perm-11.txt.pipe'
p4369
(dp4370
(NS'.2'
p4371
tp4372
F0.11258278145695365
s(S'Comparison.Contrast.2'
p4373
Ntp4374
F0.006622516556291391
s(g4371
S'.2'
p4375
tp4376
F0.033112582781456956
s(S'.1'
p4377
S'Expansion.Conjunction.2'
p4378
tp4379
F0.0026490066225165563
s(S'Comparison.Contrast.1'
p4380
S'Expansion.Conjunction.2'
p4381
tp4382
F0.0013245033112582781
s(S'Comparison.Contrast.1'
p4383
S'.1'
p4384
tp4385
F0.0026490066225165563
s(NS'Comparison.Contrast.2'
p4386
tp4387
F0.007947019867549669
s(S'.1'
p4388
S'.1'
p4389
tp4390
F0.018543046357615896
s(NS'Expansion.Conjunction.2'
p4391
tp4392
F0.007947019867549669
s(S'.1'
p4393
Ntp4394
F0.09536423841059603
s(g4386
S'.1'
p4395
tp4396
F0.0013245033112582781
s(S'Comparison.Contrast.1'
p4397
Ntp4398
F0.003973509933774834
s(Ng4393
tp4399
F0.08344370860927153
s(S'Expansion.Conjunction.2'
p4400
S'.2'
p4401
tp4402
F0.0013245033112582781
s(S'.2'
p4403
g4389
tp4404
F0.009271523178807948
s(S'.2'
p4405
g4378
tp4406
F0.0026490066225165563
s(S'.1'
p4407
S'Expansion.Conjunction.1'
p4408
tp4409
F0.0026490066225165563
s(g4391
g4389
tp4410
F0.0013245033112582781
s(Ng4397
tp4411
F0.005298013245033113
s(S'Expansion.Conjunction.1'
p4412
Ntp4413
F0.0026490066225165563
s(S'Expansion.Conjunction.2'
p4414
Ntp4415
F0.003973509933774834
s(S'.1'
p4416
g4383
tp4417
F0.0013245033112582781
s(S'.2'
p4418
g4408
tp4419
F0.0026490066225165563
s(Ng4412
tp4420
F0.005298013245033113
s(g4375
Ntp4421
F0.0847682119205298
s(NNtp4422
F0.49933774834437084
ssS'apwsE951018.0170-2-2-0.perm-12.txt.pipe'
p4423
(dp4424
sS'apwsE951106.0072-2-2-0.perm-10.txt.pipe'
p4425
(dp4426
sS'apwsE951210.0051-2-2-0.perm-12.txt.pipe'
p4427
(dp4428
sS'apwsE951009.0245-2-2-0.perm-13.txt.pipe'
p4429
(dp4430
(S'Contingency.Cause.1'
p4431
Ntp4432
F0.005005561735261402
s(NS'Expansion.Instantiation.2'
p4433
tp4434
F0.008342602892102336
s(S'Comparison.Contrast.2'
p4435
Ntp4436
F0.002224694104560623
s(S'.2'
p4437
S'.2'
p4438
tp4439
F0.008342602892102336
s(S'.1'
p4440
S'Expansion.Conjunction.2'
p4441
tp4442
F0.0005561735261401557
s(NS'Comparison.Contrast.2'
p4443
tp4444
F0.006117908787541713
s(S'.1'
p4445
S'.1'
p4446
tp4447
F0.002224694104560623
s(NS'Expansion.Conjunction.2'
p4448
tp4449
F0.009454949944382647
s(S'.1'
p4450
Ntp4451
F0.034482758620689655
s(S'Expansion.Conjunction.1'
p4452
S'Contingency.Cause.1'
p4453
tp4454
F0.0005561735261401557
s(S'Comparison.Contrast.1'
p4455
Ntp4456
F0.00778642936596218
s(g4452
S'Comparison.Contrast.2'
p4457
tp4458
F0.0005561735261401557
s(S'Contingency.Cause.1'
p4459
S'.1'
p4460
tp4461
F0.0011123470522803114
s(S'Contingency.Cause.2'
p4462
Ntp4463
F0.010011123470522803
s(g4433
Ntp4464
F0.0055617352614015575
s(S'Temporal.Synchrony.1'
p4465
Ntp4466
F0.0005561735261401557
s(S'.2'
p4467
g4441
tp4468
F0.0005561735261401557
s(S'Expansion.Restatement.2'
p4469
g4446
tp4470
F0.0011123470522803114
s(NS'.2'
p4471
tp4472
F0.03670745272525028
s(NS'Contingency.Cause.2'
p4473
tp4474
F0.018909899888765295
s(g4473
S'.2'
p4475
tp4476
F0.005005561735261402
s(NS'Comparison.Contrast.1'
p4477
tp4478
F0.004449388209121246
s(S'Expansion.Conjunction.2'
p4479
Ntp4480
F0.004449388209121246
s(g4460
S'Expansion.Instantiation.1'
p4481
tp4482
F0.0005561735261401557
s(S'Expansion.Restatement.2'
p4483
Ntp4484
F0.004449388209121246
s(NS'Expansion.Conjunction.1'
p4485
tp4486
F0.0033370411568409346
s(S'Contingency.Cause.1'
p4487
S'Expansion.Conjunction.1'
p4488
tp4489
F0.0016685205784204673
s(S'Contingency.Cause.2'
p4490
g4462
tp4491
F0.0005561735261401557
s(S'Expansion.Restatement.1'
p4492
Ntp4493
F0.0005561735261401557
s(S'.2'
p4494
S'Contingency.Cause.2'
p4495
tp4496
F0.0011123470522803114
s(g4485
Ntp4497
F0.0033370411568409346
s(S'.1'
p4498
g4457
tp4499
F0.0005561735261401557
s(g4487
g4431
tp4500
F0.0016685205784204673
s(NNtp4501
F0.7030033370411568
s(Ng4450
tp4502
F0.035038932146829814
s(Ng4465
tp4503
F0.0005561735261401557
s(S'Temporal.Synchrony.2'
p4504
g4431
tp4505
F0.0011123470522803114
s(S'Expansion.Conjunction.1'
p4506
g4460
tp4507
F0.0011123470522803114
s(g4498
g4453
tp4508
F0.0011123470522803114
s(S'Expansion.Restatement.2'
p4509
S'.2'
p4510
tp4511
F0.0011123470522803114
s(S'Expansion.Instantiation.2'
p4512
S'.2'
p4513
tp4514
F0.0027808676307007787
s(S'Expansion.Conjunction.2'
p4515
S'.2'
p4516
tp4517
F0.005005561735261402
s(Ng4483
tp4518
F0.006674082313681869
s(g4467
S'.1'
p4519
tp4520
F0.0005561735261401557
s(S'.2'
p4521
g4457
tp4522
F0.0011123470522803114
s(S'Temporal.Synchrony.2'
p4523
Ntp4524
F0.0005561735261401557
s(NS'Expansion.Instantiation.1'
p4525
tp4526
F0.0005561735261401557
s(S'.2'
p4527
g4431
tp4528
F0.0016685205784204673
s(S'Temporal.Synchrony.2'
p4529
S'Contingency.Cause.2'
p4530
tp4531
F0.0005561735261401557
s(S'.1'
p4532
S'Comparison.Contrast.1'
p4533
tp4534
F0.0005561735261401557
s(g4481
Ntp4535
F0.0011123470522803114
s(NS'Contingency.Cause.1'
p4536
tp4537
F0.009454949944382647
s(g4527
g4488
tp4538
F0.0011123470522803114
s(g4504
g4488
tp4539
F0.0011123470522803114
s(g4475
Ntp4540
F0.028921023359288096
s(Ng4492
tp4541
F0.0005561735261401557
s(Ng4504
tp4542
F0.002224694104560623
s(g4448
g4462
tp4543
F0.0005561735261401557
ssS'apwsE960207.0488-2-2-0.perm-13.txt.pipe'
p4544
(dp4545
(NS'Expansion.Alternative.2'
p4546
tp4547
F0.23684210526315788
s(NS'Expansion.Alternative.1'
p4548
tp4549
F0.13157894736842105
s(NS'Expansion.Conjunction.2'
p4550
tp4551
F0.39473684210526316
s(S'Expansion.Conjunction.1'
p4552
Ntp4553
F0.23684210526315788
ssS'apwsE950425.0109-0-1.perm-13.txt.pipe'
p4554
(dp4555
sS'apwsE960313.0024-2-2-0.perm-13.txt.pipe'
p4556
(dp4557
sS'apwsE960216.0269-2-2-0.perm-13.txt.pipe'
p4558
(dp4559
(S'Contingency.Cause.1'
p4560
Ntp4561
F0.04332129963898917
s(S'Contingency.Cause.2'
p4562
S'Comparison.Contrast.2'
p4563
tp4564
F0.0036101083032490976
s(S'Expansion.Conjunction.1'
p4565
Ntp4566
F0.06859205776173286
s(NS'Temporal.Asynchronous.1'
p4567
tp4568
F0.018050541516245487
s(S'Temporal.Asynchronous.1'
p4569
Ntp4570
F0.08303249097472924
s(NS'Comparison.Contrast.2'
p4571
tp4572
F0.021660649819494584
s(NNtp4573
F0.48014440433212996
s(NS'Expansion.Conjunction.2'
p4574
tp4575
F0.007220216606498195
s(S'Temporal.Asynchronous.1'
p4576
g4563
tp4577
F0.0036101083032490976
s(S'Temporal.Asynchronous.2'
p4578
Ntp4579
F0.039711191335740074
s(S'Contingency.Cause.2'
p4580
Ntp4581
F0.02888086642599278
s(NS'Temporal.Asynchronous.2'
p4582
tp4583
F0.061371841155234655
s(Ng4580
tp4584
F0.032490974729241874
s(NS'Comparison.Contrast.1'
p4585
tp4586
F0.04332129963898917
s(g4574
Ntp4587
F0.01444043321299639
s(S'Temporal.Asynchronous.2'
p4588
S'Expansion.Conjunction.2'
p4589
tp4590
F0.007220216606498195
s(Ng4560
tp4591
F0.04332129963898917
ssS'apwsE960109.0103-2-2-0.perm-11.txt.pipe'
p4592
(dp4593
sS'apwsE960214.0448-2-2-0.perm-13.txt.pipe'
p4594
(dp4595
sS'apwsE951006.0493-2-2-0.perm-10.txt.pipe'
p4596
(dp4597
(S'Contingency.Cause.1'
p4598
Ntp4599
F0.0032967032967032967
s(S'Temporal.Asynchronous.2'
p4600
S'Comparison.Contrast.2'
p4601
tp4602
F0.004395604395604396
s(S'Comparison.Concession.1'
p4603
Ntp4604
F0.007692307692307693
s(S'Comparison.Contrast.2'
p4605
Ntp4606
F0.024175824175824177
s(S'Expansion.Conjunction.1'
p4607
Ntp4608
F0.025274725274725275
s(S'Comparison.Contrast.1'
p4609
S'Expansion.Conjunction.2'
p4610
tp4611
F0.0032967032967032967
s(Ng4605
tp4612
F0.03956043956043956
s(NNtp4613
F0.7032967032967034
s(NS'Expansion.Conjunction.2'
p4614
tp4615
F0.016483516483516484
s(S'Contingency.Cause.2'
p4616
S'Expansion.Conjunction.2'
p4617
tp4618
F0.005494505494505495
s(S'Comparison.Contrast.1'
p4619
Ntp4620
F0.03406593406593406
s(S'Comparison.Contrast.2'
p4621
g4598
tp4622
F0.002197802197802198
s(S'Contingency.Cause.2'
p4623
Ntp4624
F0.01098901098901099
s(NS'Comparison.Concession.2'
p4625
tp4626
F0.01098901098901099
s(S'Temporal.Asynchronous.1'
p4627
S'Expansion.Conjunction.2'
p4628
tp4629
F0.001098901098901099
s(S'Temporal.Asynchronous.2'
p4630
S'Expansion.Conjunction.2'
p4631
tp4632
F0.001098901098901099
s(Ng4616
tp4633
F0.013186813186813187
s(g4621
g4607
tp4634
F0.002197802197802198
s(Ng4619
tp4635
F0.017582417582417582
s(g4601
S'Comparison.Concession.2'
p4636
tp4637
F0.001098901098901099
s(g4610
Ntp4638
F0.015384615384615385
s(S'Comparison.Contrast.1'
p4639
S'Expansion.Conjunction.1'
p4640
tp4641
F0.002197802197802198
s(S'Temporal.Asynchronous.1'
p4642
g4640
tp4643
F0.001098901098901099
s(Ng4603
tp4644
F0.007692307692307693
s(S'Comparison.Concession.2'
p4645
S'Comparison.Contrast.1'
p4646
tp4647
F0.001098901098901099
s(NS'Expansion.Conjunction.1'
p4648
tp4649
F0.014285714285714285
s(S'Comparison.Contrast.2'
p4650
S'Contingency.Cause.2'
p4651
tp4652
F0.0032967032967032967
s(g4625
Ntp4653
F0.01098901098901099
s(S'Temporal.Asynchronous.1'
p4654
Ntp4655
F0.007692307692307693
s(NS'Contingency.Cause.1'
p4656
tp4657
F0.001098901098901099
s(S'Temporal.Asynchronous.2'
p4658
Ntp4659
F0.007692307692307693
ssS'apwsE960214.0448-2-2-0.perm-10.txt.pipe'
p4660
(dp4661
sS'apwsE951125.0054-2-2-0.perm-1.txt.pipe'
p4662
(dp4663
(NS'Comparison.Contrast.1'
p4664
tp4665
F0.14473684210526316
s(NS'Comparison.Contrast.2'
p4666
tp4667
F0.21052631578947367
s(NNtp4668
F0.32894736842105265
s(S'Comparison.Contrast.2'
p4669
Ntp4670
F0.07894736842105263
s(g4664
Ntp4671
F0.23684210526315788
ssS'apwsE960206.0441-2-2-0.perm-10.txt.pipe'
p4672
(dp4673
sS'apwsE951024.0020-2-2-0.perm-13.txt.pipe'
p4674
(dp4675
(S'Comparison.Contrast.2'
p4676
Ntp4677
F0.047619047619047616
s(S'Expansion.Conjunction.1'
p4678
Ntp4679
F0.047619047619047616
s(S'Comparison.Contrast.2'
p4680
S'Expansion.Conjunction.1'
p4681
tp4682
F0.01904761904761905
s(S'Expansion.Conjunction.2'
p4683
g4676
tp4684
F0.009523809523809525
s(S'Comparison.Contrast.1'
p4685
S'Expansion.Conjunction.2'
p4686
tp4687
F0.009523809523809525
s(S'Expansion.Conjunction.2'
p4688
S'Expansion.Conjunction.2'
p4689
tp4690
F0.009523809523809525
s(NS'Comparison.Contrast.2'
p4691
tp4692
F0.05714285714285714
s(NNtp4693
F0.4857142857142857
s(NS'Expansion.Conjunction.2'
p4694
tp4695
F0.05714285714285714
s(S'Expansion.Conjunction.2'
p4696
Ntp4697
F0.08571428571428572
s(S'Comparison.Contrast.1'
p4698
Ntp4699
F0.02857142857142857
s(S'Comparison.Contrast.1'
p4700
S'Expansion.Conjunction.1'
p4701
tp4702
F0.009523809523809525
s(NS'Expansion.Conjunction.1'
p4703
tp4704
F0.08571428571428572
s(S'Expansion.Conjunction.1'
p4705
S'Comparison.Contrast.1'
p4706
tp4707
F0.02857142857142857
s(Ng4698
tp4708
F0.01904761904761905
ssS'apwsE960508.0041-2-2-0.perm-12.txt.pipe'
p4709
(dp4710
sS'apwsE951210.0356-2-2-0.perm-11.txt.pipe'
p4711
(dp4712
sS'apwsE951001.0328-2-2-0.perm-13.txt.pipe'
p4713
(dp4714
(NS'.2'
p4715
tp4716
F0.2619047619047619
s(S'Temporal.Asynchronous.1'
p4717
Ntp4718
F0.19047619047619047
s(S'Temporal.Asynchronous.2'
p4719
Ntp4720
F0.11904761904761904
s(S'Temporal.Asynchronous.2'
p4721
S'.2'
p4722
tp4723
F0.11904761904761904
s(S'.1'
p4724
Ntp4725
F0.30952380952380953
ssS'apwsE951009.0228-2-2-0.perm-12.txt.pipe'
p4726
(dp4727
sS'apwsE951018.0170-2-2-0.perm-1.txt.pipe'
p4728
(dp4729
sS'apwsE951004.0060-2-2-0.perm-12.txt.pipe'
p4730
(dp4731
sS'apwsE960104.0037-0-1.perm-13.txt.pipe'
p4732
(dp4733
sS'apwsE950822.0071-0-1.perm-1.txt.pipe'
p4734
(dp4735
sS'apwsE951226.0004-2-2-0.perm-13.txt.pipe'
p4736
(dp4737
(NS'Expansion.Conjunction.2'
p4738
tp4739
F0.7222222222222222
s(S'Expansion.Conjunction.1'
p4740
Ntp4741
F0.2777777777777778
ssS'apwsE951018.0070-2-2-0.perm-11.txt.pipe'
p4742
(dp4743
sS'apwsE960207.0488-2-2-0.perm-1.txt.pipe'
p4744
(dp4745
(NS'Expansion.Alternative.2'
p4746
tp4747
F0.23684210526315788
s(NS'Expansion.Alternative.1'
p4748
tp4749
F0.13157894736842105
s(NS'Expansion.Conjunction.2'
p4750
tp4751
F0.39473684210526316
s(S'Expansion.Conjunction.1'
p4752
Ntp4753
F0.23684210526315788
ssS'apwsE960216.0269-2-2-0.perm-10.txt.pipe'
p4754
(dp4755
(S'Contingency.Cause.1'
p4756
Ntp4757
F0.02786377708978328
s(S'Temporal.Asynchronous.2'
p4758
S'Temporal.Asynchronous.1'
p4759
tp4760
F0.0030959752321981426
s(S'.2'
p4761
S'Comparison.Contrast.1'
p4762
tp4763
F0.0030959752321981426
s(S'Contingency.Cause.2'
p4764
g4759
tp4765
F0.0030959752321981426
s(NS'Temporal.Asynchronous.1'
p4766
tp4767
F0.07739938080495357
s(g4766
Ntp4768
F0.08668730650154799
s(S'Temporal.Asynchronous.1'
p4769
g4759
tp4770
F0.0030959752321981426
s(NS'Comparison.Contrast.2'
p4771
tp4772
F0.021671826625386997
s(NNtp4773
F0.23219814241486067
s(S'.1'
p4774
S'Temporal.Asynchronous.1'
p4775
tp4776
F0.009287925696594427
s(S'.1'
p4777
Ntp4778
F0.05572755417956656
s(S'Temporal.Asynchronous.2'
p4779
Ntp4780
F0.030959752321981424
s(S'Contingency.Cause.1'
p4781
S'.1'
p4782
tp4783
F0.009287925696594427
s(S'Contingency.Cause.2'
p4784
Ntp4785
F0.058823529411764705
s(Ng4777
tp4786
F0.05572755417956656
s(S'Temporal.Asynchronous.2'
p4787
S'.2'
p4788
tp4789
F0.006191950464396285
s(S'Temporal.Asynchronous.1'
p4790
g4762
tp4791
F0.0030959752321981426
s(S'.2'
p4792
S'Temporal.Asynchronous.2'
p4793
tp4794
F0.02476780185758514
s(Ng4779
tp4795
F0.09287925696594428
s(NS'.2'
p4796
tp4797
F0.04643962848297214
s(Ng4784
tp4798
F0.07120743034055728
s(S'Contingency.Cause.2'
p4799
g4788
tp4800
F0.009287925696594427
s(NS'Comparison.Contrast.1'
p4801
tp4802
F0.034055727554179564
s(g4781
S'Temporal.Asynchronous.1'
p4803
tp4804
F0.006191950464396285
s(g4796
Ntp4805
F0.02786377708978328
ssS'apwsE951210.0356-2-2-0.perm-10.txt.pipe'
p4806
(dp4807
sS'apwsE951009.0245-2-2-0.perm-1.txt.pipe'
p4808
(dp4809
(S'Contingency.Cause.1'
p4810
Ntp4811
F0.005707762557077625
s(NS'Expansion.Instantiation.2'
p4812
tp4813
F0.005707762557077625
s(S'Expansion.Instantiation.2'
p4814
S'.1'
p4815
tp4816
F0.000380517503805175
s(S'Comparison.Contrast.2'
p4817
Ntp4818
F0.00380517503805175
s(S'.2'
p4819
S'.2'
p4820
tp4821
F0.01598173515981735
s(S'.1'
p4822
S'Expansion.Conjunction.2'
p4823
tp4824
F0.000380517503805175
s(Ng4817
tp4825
F0.004946727549467275
s(S'.1'
p4826
S'.1'
p4827
tp4828
F0.003424657534246575
s(NS'Expansion.Conjunction.2'
p4829
tp4830
F0.011035007610350075
s(S'.1'
p4831
Ntp4832
F0.03614916286149163
s(S'Comparison.Contrast.1'
p4833
Ntp4834
F0.0045662100456621
s(S'Contingency.Cause.2'
p4835
Ntp4836
F0.00228310502283105
s(g4812
Ntp4837
F0.003424657534246575
s(Ng4819
tp4838
F0.04908675799086758
s(Ng4835
tp4839
F0.0045662100456621
s(Ng4833
tp4840
F0.004185692541856925
s(S'Comparison.Contrast.2'
p4841
S'.2'
p4842
tp4843
F0.001141552511415525
s(S'Expansion.Conjunction.2'
p4844
Ntp4845
F0.007229832572298325
s(NS'Expansion.Conjunction.1'
p4846
tp4847
F0.003424657534246575
s(S'Comparison.Contrast.2'
p4848
S'Contingency.Cause.2'
p4849
tp4850
F0.001141552511415525
s(S'Contingency.Cause.2'
p4851
g4849
tp4852
F0.001141552511415525
s(S'.2'
p4853
S'Comparison.Contrast.1'
p4854
tp4855
F0.000380517503805175
s(S'.2'
p4856
g4851
tp4857
F0.001902587519025875
s(g4846
Ntp4858
F0.007229832572298325
s(S'.1'
p4859
S'Comparison.Contrast.2'
p4860
tp4861
F0.000380517503805175
s(S'Expansion.Conjunction.2'
p4862
S'Expansion.Conjunction.2'
p4863
tp4864
F0.000380517503805175
s(NNtp4865
F0.7146118721461188
s(Ng4831
tp4866
F0.03614916286149163
s(NS'Temporal.Synchrony.1'
p4867
tp4868
F0.000380517503805175
s(S'Expansion.Conjunction.1'
p4869
g4827
tp4870
F0.001902587519025875
s(S'.1'
p4871
S'Contingency.Cause.1'
p4872
tp4873
F0.000380517503805175
s(S'Expansion.Instantiation.2'
p4874
S'.2'
p4875
tp4876
F0.001902587519025875
s(g4829
S'.2'
p4877
tp4878
F0.0045662100456621
s(S'.2'
p4879
g4827
tp4880
F0.0015220700152207
s(g4856
g4848
tp4881
F0.00076103500761035
s(NS'Expansion.Instantiation.1'
p4882
tp4883
F0.00076103500761035
s(g4853
g4872
tp4884
F0.000380517503805175
s(g4871
g4854
tp4885
F0.000380517503805175
s(g4882
Ntp4886
F0.00076103500761035
s(g4820
Ntp4887
F0.0487062404870624
s(NS'Temporal.Synchrony.2'
p4888
tp4889
F0.0015220700152207
s(Ng4810
tp4890
F0.00532724505327245
ssS'apwsE960216.0269-2-2-0.perm-1.txt.pipe'
p4891
(dp4892
(S'Temporal.Asynchronous.2'
p4893
S'Temporal.Asynchronous.1'
p4894
tp4895
F0.026143790849673203
s(NS'Temporal.Asynchronous.2'
p4896
tp4897
F0.23529411764705882
s(S'Comparison.Contrast.2'
p4898
Ntp4899
F0.0392156862745098
s(NS'Temporal.Asynchronous.1'
p4900
tp4901
F0.09803921568627451
s(NS'Comparison.Contrast.1'
p4902
tp4903
F0.0718954248366013
s(S'Temporal.Asynchronous.1'
p4904
Ntp4905
F0.06535947712418301
s(S'Comparison.Contrast.1'
p4906
g4894
tp4907
F0.0196078431372549
s(NNtp4908
F0.16339869281045752
s(g4902
Ntp4909
F0.058823529411764705
s(Ng4898
tp4910
F0.0457516339869281
s(S'Temporal.Asynchronous.2'
p4911
Ntp4912
F0.13725490196078433
s(S'Comparison.Contrast.2'
p4913
S'Temporal.Asynchronous.1'
p4914
tp4915
F0.006535947712418301
s(g4906
S'Temporal.Asynchronous.2'
p4916
tp4917
F0.013071895424836602
s(g4893
g4916
tp4918
F0.013071895424836602
s(S'Temporal.Asynchronous.1'
p4919
S'Comparison.Contrast.1'
p4920
tp4921
F0.006535947712418301
ssS'apwsE960106.0047-2-2-0.perm-10.txt.pipe'
p4922
(dp4923
sS'apwsE950928.0094-0-1.perm-1.txt.pipe'
p4924
(dp4925
sS'apwsE951001.0257-2-2-0.perm-12.txt.pipe'
p4926
(dp4927
(NS'.2'
p4928
tp4929
F0.17592592592592593
s(S'.2'
p4930
S'.2'
p4931
tp4932
F0.037037037037037035
s(g4928
Ntp4933
F0.08333333333333333
s(NS'.1'
p4934
tp4935
F0.08333333333333333
s(g4934
Ntp4936
F0.14814814814814814
s(S'.1'
p4937
S'.1'
p4938
tp4939
F0.009259259259259259
s(NNtp4940
F0.46296296296296297
ssS'apwsE951216.0211-2-2-0.perm-10.txt.pipe'
p4941
(dp4942
sS'apwsE951001.0279-2-2-0.perm-12.txt.pipe'
p4943
(dp4944
(S'.2'
p4945
S'.2'
p4946
tp4947
F0.016816143497757848
s(NS'Temporal.Asynchronous.1'
p4948
tp4949
F0.008968609865470852
s(g4948
Ntp4950
F0.008968609865470852
s(S'.1'
p4951
S'.1'
p4952
tp4953
F0.004484304932735426
s(NS'Expansion.Conjunction.2'
p4954
tp4955
F0.023542600896860985
s(S'.1'
p4956
Ntp4957
F0.06838565022421525
s(S'Expansion.Conjunction.2'
p4958
S'.2'
p4959
tp4960
F0.005605381165919282
s(S'Temporal.Asynchronous.2'
p4961
Ntp4962
F0.005605381165919282
s(Ng4956
tp4963
F0.05829596412556054
s(S'.2'
p4964
S'.1'
p4965
tp4966
F0.002242152466367713
s(Ng4961
tp4967
F0.011210762331838564
s(NS'.2'
p4968
tp4969
F0.08071748878923767
s(S'Expansion.Conjunction.1'
p4970
Ntp4971
F0.004484304932735426
s(g4954
Ntp4972
F0.017937219730941704
s(S'Temporal.Asynchronous.2'
p4973
g4959
tp4974
F0.005605381165919282
s(g4968
Ntp4975
F0.05717488789237668
s(NNtp4976
F0.6199551569506726
ssS'apwsE951121.0037-2-2-0.perm-10.txt.pipe'
p4977
(dp4978
(NS'Comparison.Contrast.2'
p4979
tp4980
F0.5555555555555556
s(NNtp4981
F0.4444444444444444
ssS'apwsE950424.0128-0-1.perm-12.txt.pipe'
p4982
(dp4983
sS'apwsE951003.0004-2-2-0.perm-11.txt.pipe'
p4984
(dp4985
(S'.1'
p4986
S'Expansion.Conjunction.1'
p4987
tp4988
F0.003194888178913738
s(NS'.2'
p4989
tp4990
F0.04153354632587859
s(S'Expansion.Conjunction.1'
p4991
Ntp4992
F0.054313099041533544
s(NNtp4993
F0.48562300319488816
s(NS'Expansion.Conjunction.2'
p4994
tp4995
F0.11182108626198083
s(S'.1'
p4996
Ntp4997
F0.06389776357827476
s(S'Expansion.Conjunction.2'
p4998
Ntp4999
F0.07987220447284345
s(g4994
S'.2'
p5000
tp5001
F0.02875399361022364
s(Ng4991
tp5002
F0.019169329073482427
s(g4989
Ntp5003
F0.02875399361022364
s(Ng4996
tp5004
F0.0670926517571885
s(S'.2'
p5005
S'Expansion.Conjunction.2'
p5006
tp5007
F0.01597444089456869
ssS'apwsE951101.0026-0-1.perm-11.txt.pipe'
p5008
(dp5009
sS'apwsE950827.0022-2-2-0.perm-11.txt.pipe'
p5010
(dp5011
sS'apwsE960313.0036-2-2-0.perm-12.txt.pipe'
p5012
(dp5013
sS'apwsE950919.0564-2-2-0.perm-10.txt.pipe'
p5014
(dp5015
sS'apwsE951023.0357-2-2-0.perm-13.txt.pipe'
p5016
(dp5017
sS'apwsE950919.0580-2-2-0.perm-10.txt.pipe'
p5018
(dp5019
sS'apwsE951009.0244-2-2-0.perm-12.txt.pipe'
p5020
(dp5021
(S'Contingency.Cause.1'
p5022
Ntp5023
F0.03864734299516908
s(S'Temporal.Synchrony.2'
p5024
Ntp5025
F0.014492753623188406
s(NS'.2'
p5026
tp5027
F0.06280193236714976
s(S'Comparison.Contrast.2'
p5028
Ntp5029
F0.05314009661835749
s(NS'Comparison.Contrast.1'
p5030
tp5031
F0.01932367149758454
s(NS'Comparison.Contrast.2'
p5032
tp5033
F0.004830917874396135
s(NNtp5034
F0.6570048309178744
s(S'.1'
p5035
Ntp5036
F0.004830917874396135
s(S'Comparison.Contrast.1'
p5037
Ntp5038
F0.06280193236714976
s(NS'Temporal.Synchrony.1'
p5039
tp5040
F0.004830917874396135
s(S'Temporal.Synchrony.2'
p5041
S'Comparison.Contrast.2'
p5042
tp5043
F0.004830917874396135
s(S'Contingency.Cause.2'
p5044
Ntp5045
F0.043478260869565216
s(Ng5035
tp5046
F0.004830917874396135
s(Ng5024
tp5047
F0.01932367149758454
s(g5039
Ntp5048
F0.004830917874396135
ssS'apwsE951004.0060-2-2-0.perm-10.txt.pipe'
p5049
(dp5050
sS'apwsE950919.0564-2-2-0.perm-13.txt.pipe'
p5051
(dp5052
(S'Expansion.Conjunction.2'
p5053
Ntp5054
F0.0975609756097561
s(S'Expansion.Conjunction.1'
p5055
S'Comparison.Contrast.2'
p5056
tp5057
F0.024390243902439025
s(S'Expansion.Conjunction.1'
p5058
Ntp5059
F0.04878048780487805
s(NS'Comparison.Contrast.1'
p5060
tp5061
F0.24390243902439024
s(NS'Comparison.Contrast.2'
p5062
tp5063
F0.1951219512195122
s(NNtp5064
F0.3902439024390244
ssS'apwsE951001.0328-2-2-0.perm-12.txt.pipe'
p5065
(dp5066
(NNtp5067
F0.4444444444444444
s(NS'.2'
p5068
tp5069
F0.3611111111111111
s(S'.1'
p5070
Ntp5071
F0.19444444444444445
ssS'apwsE960122.0410-0-1.perm-1.txt.pipe'
p5072
(dp5073
sS'apwsE951010.0087-2-2-0.perm-13.txt.pipe'
p5074
(dp5075
(S'Temporal.Synchrony.1'
p5076
S'Comparison.Contrast.1'
p5077
tp5078
F0.002
s(S'Temporal.Synchrony.2'
p5079
Ntp5080
F0.034
s(NS'Temporal.Asynchronous.2'
p5081
tp5082
F0.004
s(NS'Temporal.Asynchronous.1'
p5083
tp5084
F0.004
s(NS'Comparison.Contrast.1'
p5085
tp5086
F0.038
s(g5083
Ntp5087
F0.01
s(NS'Comparison.Contrast.2'
p5088
tp5089
F0.042
s(NNtp5090
F0.676
s(g5085
Ntp5091
F0.04
s(NS'Temporal.Synchrony.1'
p5092
tp5093
F0.016
s(S'Temporal.Asynchronous.2'
p5094
Ntp5095
F0.028
s(S'Temporal.Synchrony.2'
p5096
S'Comparison.Contrast.2'
p5097
tp5098
F0.02
s(Ng5079
tp5099
F0.054
s(g5092
Ntp5100
F0.032
ssS'apwsE950620.0596-0-1.perm-2.txt.pipe'
p5101
(dp5102
sS'apwsE960508.0041-2-2-0.perm-13.txt.pipe'
p5103
(dp5104
sS'apwsE960313.0026-2-2-0.perm-1.txt.pipe'
p5105
(dp5106
sS'apwsE951121.0037-2-2-0.perm-12.txt.pipe'
p5107
(dp5108
(S'Comparison.Contrast.1'
p5109
Ntp5110
F0.32558139534883723
s(S'Comparison.Contrast.2'
p5111
S'Comparison.Contrast.2'
p5112
tp5113
F0.09302325581395349
s(NS'Comparison.Contrast.2'
p5114
tp5115
F0.4186046511627907
s(S'Comparison.Contrast.2'
p5116
Ntp5117
F0.16279069767441862
ssS'apwsE951006.0493-2-2-0.perm-12.txt.pipe'
p5118
(dp5119
(S'Contingency.Cause.1'
p5120
Ntp5121
F0.003271537622682661
s(S'Temporal.Asynchronous.2'
p5122
S'Comparison.Contrast.2'
p5123
tp5124
F0.004362050163576881
s(S'Comparison.Concession.1'
p5125
Ntp5126
F0.007633587786259542
s(S'Comparison.Contrast.2'
p5127
Ntp5128
F0.03489640130861505
s(NS'Temporal.Asynchronous.1'
p5129
tp5130
F0.007633587786259542
s(g5129
Ntp5131
F0.009814612868047983
s(Ng5127
tp5132
F0.03380588876772083
s(NS'Expansion.Conjunction.2'
p5133
tp5134
F0.028353326063249727
s(S'Comparison.Contrast.1'
p5135
Ntp5136
F0.03489640130861505
s(S'Contingency.Cause.2'
p5137
Ntp5138
F0.010905125408942203
s(NS'Comparison.Concession.2'
p5139
tp5140
F0.008724100327153763
s(S'Comparison.Concession.2'
p5141
S'Expansion.Conjunction.1'
p5142
tp5143
F0.0010905125408942203
s(NS'Temporal.Asynchronous.2'
p5144
tp5145
F0.010905125408942203
s(NS'Contingency.Cause.2'
p5146
tp5147
F0.016357688113413305
s(Ng5135
tp5148
F0.028353326063249727
s(S'Comparison.Contrast.2'
p5149
S'Comparison.Contrast.1'
p5150
tp5151
F0.004362050163576881
s(S'Comparison.Contrast.2'
p5152
S'Comparison.Concession.2'
p5153
tp5154
F0.003271537622682661
s(S'Comparison.Contrast.2'
p5155
S'Temporal.Asynchronous.2'
p5156
tp5157
F0.0010905125408942203
s(g5133
Ntp5158
F0.009814612868047983
s(S'Expansion.Conjunction.2'
p5159
g5156
tp5160
F0.0010905125408942203
s(Ng5125
tp5161
F0.007633587786259542
s(NS'Expansion.Conjunction.1'
p5162
tp5163
F0.011995637949836423
s(S'Expansion.Conjunction.1'
p5164
S'Comparison.Contrast.1'
p5165
tp5166
F0.0010905125408942203
s(g5146
S'Comparison.Contrast.2'
p5167
tp5168
F0.0054525627044711015
s(g5162
Ntp5169
F0.011995637949836423
s(S'Expansion.Conjunction.2'
p5170
g5150
tp5171
F0.004362050163576881
s(NNtp5172
F0.6706652126499455
s(g5144
Ntp5173
F0.007633587786259542
s(S'Comparison.Contrast.2'
p5174
S'Temporal.Asynchronous.1'
p5175
tp5176
F0.0021810250817884407
s(S'Expansion.Conjunction.2'
p5177
g5175
tp5178
F0.0010905125408942203
s(S'Expansion.Conjunction.2'
p5179
S'Contingency.Cause.1'
p5180
tp5181
F0.0010905125408942203
s(g5164
S'Temporal.Asynchronous.1'
p5182
tp5183
F0.0010905125408942203
s(g5139
Ntp5184
F0.010905125408942203
s(Ng5120
tp5185
F0.0021810250817884407
ssS'apwsE951121.0032-2-2-0.perm-12.txt.pipe'
p5186
(dp5187
sS'apwsE951024.0123-2-2-0.perm-13.txt.pipe'
p5188
(dp5189
(S'Comparison.Contrast.2'
p5190
Ntp5191
F0.057692307692307696
s(S'Expansion.Conjunction.1'
p5192
Ntp5193
F0.01282051282051282
s(S'Comparison.Contrast.1'
p5194
S'Expansion.Conjunction.2'
p5195
tp5196
F0.00641025641025641
s(NS'Comparison.Contrast.2'
p5197
tp5198
F0.038461538461538464
s(NNtp5199
F0.6025641025641025
s(NS'Expansion.Conjunction.2'
p5200
tp5201
F0.02564102564102564
s(S'Comparison.Contrast.1'
p5202
Ntp5203
F0.0641025641025641
s(S'Comparison.Contrast.2'
p5204
S'Comparison.Contrast.2'
p5205
tp5206
F0.00641025641025641
s(NS'Comparison.Concession.2'
p5207
tp5208
F0.057692307692307696
s(S'Comparison.Contrast.1'
p5209
S'Comparison.Contrast.1'
p5210
tp5211
F0.019230769230769232
s(g5197
S'Expansion.Conjunction.1'
p5212
tp5213
F0.00641025641025641
s(NS'Comparison.Contrast.1'
p5214
tp5215
F0.01282051282051282
s(S'Comparison.Contrast.2'
p5216
S'Comparison.Contrast.1'
p5217
tp5218
F0.00641025641025641
s(S'Expansion.Conjunction.2'
p5219
Ntp5220
F0.01282051282051282
s(NS'Comparison.Concession.1'
p5221
tp5222
F0.04487179487179487
s(NS'Expansion.Conjunction.1'
p5223
tp5224
F0.019230769230769232
s(S'Expansion.Conjunction.2'
p5225
S'Comparison.Concession.1'
p5226
tp5227
F0.00641025641025641
ssS'apwsE960106.0047-2-2-0.perm-1.txt.pipe'
p5228
(dp5229
sS'apwsE950914.0074-0-1.perm-11.txt.pipe'
p5230
(dp5231
sS'apwsE951003.0485-2-2-0.perm-1.txt.pipe'
p5232
(dp5233
sS'apwsE951201.0010-0-1.perm-11.txt.pipe'
p5234
(dp5235
sS'apwsE950928.0094-0-1.perm-10.txt.pipe'
p5236
(dp5237
sS'apwsE960303.0090-2-2-0.perm-1.txt.pipe'
p5238
(dp5239
sS'apwsE951222.0206-2-2-0.perm-10.txt.pipe'
p5240
(dp5241
sS'apwsE951221.0056-2-2-0.perm-11.txt.pipe'
p5242
(dp5243
sS'apwsE960109.0103-2-2-0.perm-1.txt.pipe'
p5244
(dp5245
sS'apwsE950925.0091-0-1.perm-1.txt.pipe'
p5246
(dp5247
(NS'Expansion.Conjunction.2'
p5248
tp5249
F0.5294117647058824
s(S'Expansion.Conjunction.1'
p5250
Ntp5251
F0.47058823529411764
ssS'apwsE960216.0241-2-2-0.perm-13.txt.pipe'
p5252
(dp5253
sS'apwsE951215.0060-2-2-0.perm-12.txt.pipe'
p5254
(dp5255
sS'apwsE960207.0488-2-2-0.perm-11.txt.pipe'
p5256
(dp5257
(NS'Expansion.Alternative.2'
p5258
tp5259
F0.23684210526315788
s(NS'Expansion.Alternative.1'
p5260
tp5261
F0.13157894736842105
s(NS'Expansion.Conjunction.2'
p5262
tp5263
F0.39473684210526316
s(S'Expansion.Conjunction.1'
p5264
Ntp5265
F0.23684210526315788
ssS'apwsE960109.0130-2-2-0.perm-11.txt.pipe'
p5266
(dp5267
(S'Comparison.Contrast.2'
p5268
Ntp5269
F0.002670940170940171
s(S'Expansion.Conjunction.1'
p5270
Ntp5271
F0.0016025641025641025
s(Ng5268
tp5272
F0.002670940170940171
s(S'.1'
p5273
S'.1'
p5274
tp5275
F0.006944444444444444
s(NS'Expansion.Conjunction.2'
p5276
tp5277
F0.002136752136752137
s(S'.1'
p5278
Ntp5279
F0.06623931623931624
s(S'Comparison.Contrast.1'
p5280
Ntp5281
F0.0037393162393162395
s(Ng5278
tp5282
F0.060897435897435896
s(S'Expansion.Conjunction.2'
p5283
S'.2'
p5284
tp5285
F0.0005341880341880342
s(S'.2'
p5286
g5274
tp5287
F0.003205128205128205
s(S'.2'
p5288
g5283
tp5289
F0.0005341880341880342
s(S'Expansion.Conjunction.2'
p5290
S'.1'
p5291
tp5292
F0.0005341880341880342
s(NS'.2'
p5293
tp5294
F0.07745726495726496
s(Ng5280
tp5295
F0.0037393162393162395
s(g5293
S'.2'
p5296
tp5297
F0.02403846153846154
s(g5276
Ntp5298
F0.0016025641025641025
s(Ng5270
tp5299
F0.0016025641025641025
s(g5296
Ntp5300
F0.07104700854700854
s(NNtp5301
F0.6688034188034188
ssS'apwsE951009.0228-2-2-0.perm-11.txt.pipe'
p5302
(dp5303
(S'Contingency.Cause.1'
p5304
Ntp5305
F0.013824884792626729
s(S'.2'
p5306
S'Contingency.Cause.2'
p5307
tp5308
F0.01152073732718894
s(S'.2'
p5309
S'.2'
p5310
tp5311
F0.002304147465437788
s(S'Comparison.Contrast.1'
p5312
S'.1'
p5313
tp5314
F0.002304147465437788
s(NS'Comparison.Contrast.2'
p5315
tp5316
F0.027649769585253458
s(NNtp5317
F0.5967741935483871
s(NS'.1'
p5318
tp5319
F0.04608294930875576
s(S'Comparison.Contrast.1'
p5320
Ntp5321
F0.052995391705069124
s(S'Contingency.Cause.2'
p5322
Ntp5323
F0.02534562211981567
s(g5318
Ntp5324
F0.04838709677419355
s(S'Comparison.Contrast.2'
p5325
Ntp5326
F0.016129032258064516
s(NS'.2'
p5327
tp5328
F0.07142857142857142
s(Ng5322
tp5329
F0.018433179723502304
s(g5307
S'.2'
p5330
tp5331
F0.004608294930875576
s(Ng5320
tp5332
F0.009216589861751152
s(S'Comparison.Contrast.2'
p5333
S'.2'
p5334
tp5335
F0.002304147465437788
s(S'.2'
p5336
Ntp5337
F0.03686635944700461
s(Ng5304
tp5338
F0.013824884792626729
ssS'apwsE960303.0079-2-2-0.perm-13.txt.pipe'
p5339
(dp5340
sS'apwsE960207.0124-2-2-0.perm-1.txt.pipe'
p5341
(dp5342
sS'apwsE950307.0067-0-1.perm-13.txt.pipe'
p5343
(dp5344
sS'apwsE960216.0241-2-2-0.perm-1.txt.pipe'
p5345
(dp5346
sS'apwsE951125.0054-2-2-0.perm-12.txt.pipe'
p5347
(dp5348
(S'Comparison.Contrast.2'
p5349
Ntp5350
F0.0213903743315508
s(NS'.2'
p5351
tp5352
F0.16042780748663102
s(S'.2'
p5353
S'.2'
p5354
tp5355
F0.016042780748663103
s(NS'Comparison.Contrast.1'
p5356
tp5357
F0.0213903743315508
s(NS'Comparison.Contrast.2'
p5358
tp5359
F0.10160427807486631
s(S'.1'
p5360
S'.1'
p5361
tp5362
F0.0213903743315508
s(S'.1'
p5363
Ntp5364
F0.10695187165775401
s(S'Comparison.Contrast.1'
p5365
Ntp5366
F0.0427807486631016
s(g5360
S'Comparison.Contrast.1'
p5367
tp5368
F0.016042780748663103
s(g5358
g5354
tp5369
F0.0106951871657754
s(S'.2'
p5370
Ntp5371
F0.06417112299465241
s(NS'.1'
p5372
tp5373
F0.058823529411764705
s(NNtp5374
F0.3582887700534759
ssS'apwsE951216.0211-2-2-0.perm-11.txt.pipe'
p5375
(dp5376
sS'apwsE950307.0067-0-1.perm-10.txt.pipe'
p5377
(dp5378
sS'apwsE960303.0090-2-2-0.perm-13.txt.pipe'
p5379
(dp5380
sS'apwsE951001.0242-2-2-0.perm-10.txt.pipe'
p5381
(dp5382
sS'apwsE951201.0003-2-2-0.perm-11.txt.pipe'
p5383
(dp5384
sS'apwsE951121.0032-2-2-0.perm-1.txt.pipe'
p5385
(dp5386
sS'apwsE950928.0094-0-1.perm-11.txt.pipe'
p5387
(dp5388
sS'apwsE950905.0546-2-2-0.perm-11.txt.pipe'
p5389
(dp5390
sS'apwsE950213.0175-0-1.perm-12.txt.pipe'
p5391
(dp5392
sS'apwsE951001.0279-2-2-0.perm-10.txt.pipe'
p5393
(dp5394
sS'apwsE960206.0441-2-2-0.perm-1.txt.pipe'
p5395
(dp5396
sS'apwsE960203.0270-2-2-0.perm-11.txt.pipe'
p5397
(dp5398
(S'Expansion.Conjunction.1'
p5399
S'Expansion.Conjunction.2'
p5400
tp5401
F0.027777777777777776
s(S'Expansion.Conjunction.2'
p5402
Ntp5403
F0.16666666666666666
s(S'Expansion.Conjunction.1'
p5404
Ntp5405
F0.1388888888888889
s(NS'Expansion.Conjunction.1'
p5406
tp5407
F0.1388888888888889
s(NNtp5408
F0.3888888888888889
s(NS'Expansion.Conjunction.2'
p5409
tp5410
F0.1388888888888889
ssS'apwsE960109.0103-2-2-0.perm-10.txt.pipe'
p5411
(dp5412
sS'apwsE951023.0362-2-2-0.perm-11.txt.pipe'
p5413
(dp5414
sS'apwsE950905.0546-2-2-0.perm-12.txt.pipe'
p5415
(dp5416
sS'apwsE951001.0257-2-2-0.perm-13.txt.pipe'
p5417
(dp5418
(NNtp5419
F0.5106382978723404
s(NS'.2'
p5420
tp5421
F0.2978723404255319
s(S'.1'
p5422
Ntp5423
F0.19148936170212766
ssS'apwsE951009.0294-2-2-0.perm-12.txt.pipe'
p5424
(dp5425
s.