(dp0
S'apwsE960207.0124-2-2-0.perm-13.txt.pipe'
p1
(dp2
sS'apwsE951024.0072-2-2-0.perm-10.txt.pipe'
p3
(dp4
(S'Comparison.Contrast.1'
p5
Ntp6
F0.10416666666666667
s(NS'Comparison.Concession.1'
p7
tp8
F0.16666666666666666
s(S'Comparison.Contrast.2'
p9
Ntp10
F0.14583333333333334
s(S'Explicit'
p11
Ntp12
F0.25
s(NS'Comparison.Concession.2'
p13
tp14
F0.16666666666666666
s(NS'Explicit'
p15
tp16
F0.3333333333333333
s(g11
g15
tp17
F0.020833333333333332
s(S'Comparison.Contrast.1'
p18
S'Comparison.Concession.2'
p19
tp20
F0.020833333333333332
s(NNtp21
F0.3958333333333333
ssS'apwsE960313.0026-2-2-0.perm-13.txt.pipe'
p22
(dp23
sS'apwsE960313.0250-0-1.perm-12.txt.pipe'
p24
(dp25
sS'apwsE960313.0250-0-1.perm-11.txt.pipe'
p26
(dp27
sS'apwsE951001.0279-2-2-0.perm-13.txt.pipe'
p28
(dp29
(S'Implicit'
p30
Ntp31
F0.02681992337164751
s(S'Expansion.Conjunction.1'
p32
Ntp33
F0.0176678445229682
s(NS'Temporal.Asynchronous.1'
p34
tp35
F0.009422850412249705
s(S'.1'
p36
S'.1'
p37
tp38
F0.004711425206124852
s(NS'Expansion.Conjunction.2'
p39
tp40
F0.028268551236749116
s(S'.1'
p41
Ntp42
F0.05653710247349823
s(NS'EntRel'
p43
tp44
F0.08556832694763729
s(S'EntRel'
p45
S'Implicit'
p46
tp47
F0.0038314176245210726
s(Ng41
tp48
F0.045936395759717315
s(S'.2'
p49
S'.1'
p50
tp51
F0.001177856301531213
s(S'.2'
p52
S'Expansion.Conjunction.2'
p53
tp54
F0.0035335689045936395
s(Ng30
tp55
F0.035759897828863345
s(NS'Temporal.Asynchronous.2'
p56
tp57
F0.011778563015312132
s(NS'.2'
p58
tp59
F0.071849234393404
s(S'EntRel'
p60
S'EntRel'
p61
tp62
F0.017879948914431672
s(NS'Explicit'
p63
tp64
F0.022988505747126436
s(S'.2'
p65
S'.2'
p66
tp67
F0.011778563015312132
s(g39
Ntp68
F0.007067137809187279
s(g43
Ntp69
F0.07407407407407407
s(NS'Expansion.Conjunction.1'
p70
tp71
F0.004711425206124852
s(g58
Ntp72
F0.04946996466431095
s(NNtp73
F0.7330779054916986
ssS'apwsE951001.0279-2-2-0.perm-1.txt.pipe'
p74
(dp75
(S'.1'
p76
Ntp77
F0.060167555217060166
s(S'Implicit'
p78
Ntp79
F0.005054759898904802
s(S'.2'
p80
S'.2'
p81
tp82
F0.024371667936024372
s(S'EntRel'
p83
Ntp84
F0.09519797809604044
s(S'Temporal.Asynchronous.1'
p85
Ntp86
F0.00456968773800457
s(S'Temporal.Asynchronous.1'
p87
S'.1'
p88
tp89
F0.0015232292460015233
s(S'.1'
p90
S'.1'
p91
tp92
F0.012185833968012186
s(NS'Expansion.Conjunction.2'
p93
tp94
F0.003808073115003808
s(NNtp95
F0.7531592249368155
s(S'Temporal.Asynchronous.2'
p96
Ntp97
F0.003808073115003808
s(Ng83
tp98
F0.08087615838247683
s(S'EntRel'
p99
g78
tp100
F0.0016849199663016006
s(Ng76
tp101
F0.04950495049504951
s(S'.2'
p102
g91
tp103
F0.005331302361005331
s(S'.2'
p104
S'Expansion.Conjunction.2'
p105
tp106
F0.0007616146230007616
s(Ng78
tp107
F0.008424599831508003
s(S'.1'
p108
S'Expansion.Conjunction.1'
p109
tp110
F0.0007616146230007616
s(NS'.2'
p111
tp112
F0.07083015993907082
s(S'EntRel'
p113
S'EntRel'
p114
tp115
F0.040438079191238416
s(S'Explicit'
p116
Ntp117
F0.009267059814658803
s(S'Expansion.Conjunction.1'
p118
Ntp119
F0.00456968773800457
s(S'Temporal.Asynchronous.2'
p120
S'.2'
p121
tp122
F0.003808073115003808
s(Ng118
tp123
F0.003808073115003808
s(g111
Ntp124
F0.06930693069306931
s(g116
g114
tp125
F0.005897219882055603
ssS'apwsE951009.0226-2-2-0.perm-10.txt.pipe'
p126
(dp127
sS'apwsE951221.0001-0-1.perm-11.txt.pipe'
p128
(dp129
sS'apwsE960109.0130-2-2-0.perm-10.txt.pipe'
p130
(dp131
(S'Contingency.Cause.1'
p132
Ntp133
F0.0008136696501220504
s(S'Comparison.Contrast.2'
p134
Ntp135
F0.0040683482506102524
s(S'.2'
p136
S'.2'
p137
tp138
F0.021969080553295363
s(S'EntRel'
p139
Ntp140
F0.11299435028248588
s(S'.1'
p141
S'Comparison.Contrast.2'
p142
tp143
F0.0016273393002441008
s(Ng134
tp144
F0.0024410089503661514
s(g141
S'.1'
p145
tp146
F0.008136696501220505
s(S'.1'
p147
Ntp148
F0.07892595606183889
s(S'Comparison.Contrast.1'
p149
Ntp150
F0.005695687550854353
s(NS'EntRel'
p151
tp152
F0.1167608286252354
s(S'Contingency.Cause.2'
p153
Ntp154
F0.005695687550854353
s(Ng147
tp155
F0.06997558991049634
s(S'.2'
p156
g145
tp157
F0.0040683482506102524
s(g156
g142
tp158
F0.0008136696501220504
s(NS'.2'
p159
tp160
F0.0984540276647681
s(S'EntRel'
p161
S'EntRel'
p162
tp163
F0.03483992467043315
s(NS'Explicit'
p164
tp165
F0.009416195856873822
s(Ng149
tp166
F0.005695687550854353
s(g164
Ntp167
F0.018832391713747645
s(S'EntRel'
p168
g164
tp169
F0.0018832391713747645
s(S'.2'
p170
Ntp171
F0.0821806346623271
s(NNtp172
F0.7052730696798494
ssS'apwsE960102.0206-0-1.perm-12.txt.pipe'
p173
(dp174
sS'apwsE950914.0074-0-1.perm-10.txt.pipe'
p175
(dp176
sS'apwsE951221.0049-2-2-0.perm-11.txt.pipe'
p177
(dp178
sS'apwsE950827.0022-2-2-0.perm-10.txt.pipe'
p179
(dp180
sS'apwsE951125.0054-2-2-0.perm-11.txt.pipe'
p181
(dp182
(S'Comparison.Contrast.2'
p183
Ntp184
F0.10576923076923077
s(NS'.2'
p185
tp186
F0.09615384615384616
s(NS'Explicit'
p187
tp188
F0.15384615384615385
s(g187
Ntp189
F0.20192307692307693
s(S'Comparison.Contrast.1'
p190
S'.1'
p191
tp192
F0.009615384615384616
s(Ng183
tp193
F0.15384615384615385
s(S'Comparison.Contrast.2'
p194
S'.2'
p195
tp196
F0.04807692307692308
s(NS'.1'
p197
tp198
F0.057692307692307696
s(S'Comparison.Contrast.1'
p199
Ntp200
F0.09615384615384616
s(NS'EntRel'
p201
tp202
F0.15384615384615385
s(g187
g201
tp203
F0.057692307692307696
s(g197
Ntp204
F0.0673076923076923
s(g201
Ntp205
F0.0673076923076923
s(NNtp206
F0.36538461538461536
ssS'apwsE951215.0060-2-2-0.perm-13.txt.pipe'
p207
(dp208
sS'apwsE950914.0071-0-1.perm-12.txt.pipe'
p209
(dp210
sS'apwsE950307.0067-0-1.perm-12.txt.pipe'
p211
(dp212
sS'apwsE951222.0206-2-2-0.perm-12.txt.pipe'
p213
(dp214
sS'apwsE950827.0022-2-2-0.perm-12.txt.pipe'
p215
(dp216
(S'Contingency.Cause.1'
p217
Ntp218
F0.05555555555555555
s(S'Explicit'
p219
S'Explicit'
p220
tp221
F0.07692307692307693
s(NS'Temporal.Asynchronous.2'
p222
tp223
F0.16666666666666666
s(NS'Temporal.Asynchronous.1'
p224
tp225
F0.08333333333333333
s(NS'Comparison.Contrast.1'
p226
tp227
F0.16666666666666666
s(g219
Ntp228
F0.46153846153846156
s(S'Contingency.Cause.2'
p229
S'Comparison.Contrast.1'
p230
tp231
F0.027777777777777776
s(NS'Comparison.Contrast.2'
p232
tp233
F0.16666666666666666
s(g229
S'Temporal.Asynchronous.2'
p234
tp235
F0.027777777777777776
s(NS'Explicit'
p236
tp237
F0.46153846153846156
s(S'Contingency.Cause.2'
p238
Ntp239
F0.2777777777777778
s(S'Contingency.Cause.1'
p240
S'Comparison.Contrast.2'
p241
tp242
F0.027777777777777776
ssS'apwsE951101.0026-0-1.perm-10.txt.pipe'
p243
(dp244
sS'apwsE951009.0244-2-2-0.perm-13.txt.pipe'
p245
(dp246
(S'Contingency.Cause.1'
p247
Ntp248
F0.02768166089965398
s(S'Expansion.Restatement.1'
p249
Ntp250
F0.0034602076124567475
s(S'Implicit'
p251
Ntp252
F0.04044117647058824
s(S'Comparison.Contrast.2'
p253
Ntp254
F0.031141868512110725
s(S'Expansion.Conjunction.1'
p255
Ntp256
F0.010380622837370242
s(S'EntRel'
p257
Ntp258
F0.03676470588235294
s(S'Explicit'
p259
S'Explicit'
p260
tp261
F0.007352941176470588
s(g251
g257
tp262
F0.007352941176470588
s(NNtp263
F0.7095588235294118
s(NS'.1'
p264
tp265
F0.03460207612456748
s(S'Comparison.Contrast.1'
p266
Ntp267
F0.031141868512110725
s(NS'Temporal.Synchrony.1'
p268
tp269
F0.0034602076124567475
s(Ng257
tp270
F0.04411764705882353
s(S'Contingency.Cause.2'
p271
Ntp272
F0.031141868512110725
s(g264
Ntp273
F0.03460207612456748
s(NS'Expansion.Restatement.2'
p274
tp275
F0.04152249134948097
s(Ng251
tp276
F0.04779411764705882
s(NS'.2'
p277
tp278
F0.006920415224913495
s(Ng260
tp279
F0.011029411764705883
s(S'Expansion.Conjunction.1'
p280
S'Temporal.Synchrony.2'
p281
tp282
F0.006920415224913495
s(S'Explicit'
p283
Ntp284
F0.09558823529411764
s(S'Expansion.Conjunction.2'
p285
Ntp286
F0.01730103806228374
s(g274
Ntp287
F0.03460207612456748
s(Ng249
tp288
F0.0034602076124567475
s(NS'Temporal.Synchrony.2'
p289
tp290
F0.006920415224913495
s(S'Expansion.Restatement.2'
p291
S'.2'
p292
tp293
F0.006920415224913495
ssS'apwsE951122.0012-0-1.perm-11.txt.pipe'
p294
(dp295
sS'apwsE951009.0216-2-2-0.perm-1.txt.pipe'
p296
(dp297
sS'apwsE951009.0228-2-2-0.perm-13.txt.pipe'
p298
(dp299
(S'Contingency.Cause.1'
p300
Ntp301
F0.01348747591522158
s(S'Implicit'
p302
Ntp303
F0.07006369426751592
s(S'Contingency.Cause.2'
p304
S'.1'
p305
tp306
F0.0019267822736030828
s(S'Comparison.Contrast.2'
p307
Ntp308
F0.015414258188824663
s(S'.2'
p309
S'.2'
p310
tp311
F0.01348747591522158
s(S'.1'
p312
Ntp313
F0.04046242774566474
s(S'Implicit'
p314
S'EntRel'
p315
tp316
F0.0021231422505307855
s(S'Comparison.Contrast.1'
p317
g305
tp318
F0.0019267822736030828
s(Ng307
tp319
F0.023121387283236993
s(S'.1'
p320
S'.1'
p321
tp322
F0.0019267822736030828
s(NNtp323
F0.7239915074309978
s(S'Comparison.Contrast.1'
p324
Ntp325
F0.036608863198458574
s(Ng315
tp326
F0.07430997876857749
s(S'Contingency.Cause.2'
p327
Ntp328
F0.011560693641618497
s(Ng312
tp329
F0.038535645472061654
s(S'.2'
p330
g321
tp331
F0.0019267822736030828
s(NS'Implicit'
p332
tp333
F0.04883227176220807
s(NS'.2'
p334
tp335
F0.05973025048169557
s(NS'Contingency.Cause.2'
p336
tp337
F0.028901734104046242
s(NS'Explicit'
p338
tp339
F0.016985138004246284
s(NS'Comparison.Contrast.1'
p340
tp341
F0.02119460500963391
s(g315
S'EntRel'
p342
tp343
F0.016985138004246284
s(g315
Ntp344
F0.04670912951167728
s(g334
Ntp345
F0.030828516377649325
s(NS'Contingency.Cause.1'
p346
tp347
F0.0019267822736030828
ssS'apwsE951024.0005-2-2-0.perm-1.txt.pipe'
p348
(dp349
(S'Explicit'
p350
S'Explicit'
p351
tp352
F0.043478260869565216
s(S'Expansion.Conjunction.1'
p353
Ntp354
F0.13043478260869565
s(NS'Explicit'
p355
tp356
F0.34782608695652173
s(NS'Comparison.Contrast.1'
p357
tp358
F0.08695652173913043
s(g350
Ntp359
F0.2608695652173913
s(S'Expansion.Conjunction.2'
p360
S'Expansion.Conjunction.2'
p361
tp362
F0.021739130434782608
s(NS'Comparison.Contrast.2'
p363
tp364
F0.13043478260869565
s(NNtp365
F0.34782608695652173
s(NS'Expansion.Conjunction.2'
p366
tp367
F0.043478260869565216
s(S'Expansion.Conjunction.2'
p368
Ntp369
F0.13043478260869565
s(NS'Expansion.Conjunction.1'
p370
tp371
F0.08695652173913043
s(g361
S'Comparison.Contrast.1'
p372
tp373
F0.021739130434782608
ssS'apwsE951018.0070-2-2-0.perm-12.txt.pipe'
p374
(dp375
sS'apwsE950425.0109-0-1.perm-12.txt.pipe'
p376
(dp377
sS'apwsE951121.0032-2-2-0.perm-10.txt.pipe'
p378
(dp379
sS'apwsE951201.0010-0-1.perm-10.txt.pipe'
p380
(dp381
sS'apwsE951221.0056-2-2-0.perm-10.txt.pipe'
p382
(dp383
sS'apwsE950425.0109-0-1.perm-11.txt.pipe'
p384
(dp385
sS'apwsE951216.0211-2-2-0.perm-1.txt.pipe'
p386
(dp387
sS'apwsE951006.0493-2-2-0.perm-1.txt.pipe'
p388
(dp389
(S'Contingency.Cause.1'
p390
Ntp391
F0.0043541364296081275
s(S'Explicit'
p392
Ntp393
F0.1407766990291262
s(S'Comparison.Contrast.2'
p394
S'Expansion.Conjunction.2'
p395
tp396
F0.0043541364296081275
s(S'Comparison.Contrast.2'
p397
Ntp398
F0.013062409288824383
s(S'Expansion.Conjunction.1'
p399
Ntp400
F0.02177068214804064
s(S'Temporal.Asynchronous.1'
p401
Ntp402
F0.013062409288824383
s(S'Explicit'
p403
S'Explicit'
p404
tp405
F0.019417475728155338
s(Ng397
tp406
F0.05224963715529753
s(NNtp407
F0.7216828478964401
s(NS'Expansion.Conjunction.2'
p408
tp409
F0.027576197387518143
s(S'Comparison.Contrast.1'
p410
Ntp411
F0.059506531204644414
s(S'Temporal.Asynchronous.2'
p412
Ntp413
F0.013062409288824383
s(S'Contingency.Cause.2'
p414
Ntp415
F0.018867924528301886
s(NS'Comparison.Concession.2'
p416
tp417
F0.013062409288824383
s(S'Expansion.Conjunction.2'
p418
S'Expansion.Conjunction.1'
p419
tp420
F0.001451378809869376
s(S'Temporal.Asynchronous.2'
p421
S'Comparison.Contrast.1'
p422
tp423
F0.002902757619738752
s(g421
S'Expansion.Conjunction.2'
p424
tp425
F0.002902757619738752
s(Ng392
tp426
F0.11812297734627832
s(NS'Comparison.Contrast.1'
p427
tp428
F0.02902757619738752
s(S'Comparison.Contrast.2'
p429
S'Comparison.Contrast.1'
p430
tp431
F0.002902757619738752
s(S'Expansion.Conjunction.2'
p432
Ntp433
F0.023222060957910014
s(S'Comparison.Contrast.1'
p434
g419
tp435
F0.001451378809869376
s(NS'Comparison.Concession.1'
p436
tp437
F0.010159651669085631
s(S'Contingency.Cause.2'
p438
S'Comparison.Concession.2'
p439
tp440
F0.002902757619738752
s(Ng399
tp441
F0.02902757619738752
s(S'Expansion.Conjunction.1'
p442
g430
tp443
F0.0043541364296081275
s(S'Comparison.Contrast.1'
p444
S'Expansion.Conjunction.2'
p445
tp446
F0.001451378809869376
ssS'apwsE960108.0194-2-2-0.perm-1.txt.pipe'
p447
(dp448
sS'apwsE951009.0216-2-2-0.perm-11.txt.pipe'
p449
(dp450
sS'apwsE960207.0124-2-2-0.perm-12.txt.pipe'
p451
(dp452
sS'apwsE960207.0018-2-2-0.perm-13.txt.pipe'
p453
(dp454
(S'Expansion.Conjunction.1'
p455
Ntp456
F0.14814814814814814
s(NS'Explicit'
p457
tp458
F0.45454545454545453
s(NS'Comparison.Contrast.1'
p459
tp460
F0.18518518518518517
s(S'Explicit'
p461
Ntp462
F0.18181818181818182
s(NS'Comparison.Contrast.2'
p463
tp464
F0.037037037037037035
s(NNtp465
F0.36363636363636365
s(NS'Expansion.Conjunction.2'
p466
tp467
F0.3333333333333333
ssS'apwsE950119.0186-0-1.perm-1.txt.pipe'
p468
(dp469
sS'apwsE960122.0410-0-1.perm-10.txt.pipe'
p470
(dp471
(S'Comparison.Contrast.1'
p472
Ntp473
F0.08695652173913043
s(S'Comparison.Contrast.1'
p474
S'Comparison.Contrast.1'
p475
tp476
F0.08695652173913043
s(S'Comparison.Contrast.2'
p477
Ntp478
F0.34782608695652173
s(NS'Explicit'
p479
tp480
F0.43478260869565216
s(NS'Comparison.Contrast.1'
p481
tp482
F0.17391304347826086
s(S'Comparison.Contrast.2'
p483
S'Comparison.Contrast.1'
p484
tp485
F0.043478260869565216
s(S'Explicit'
p486
g479
tp487
F0.13043478260869565
s(NS'Comparison.Contrast.2'
p488
tp489
F0.2608695652173913
s(g486
Ntp490
F0.43478260869565216
ssS'apwsE951020.0432-2-2-0.perm-12.txt.pipe'
p491
(dp492
(S'Comparison.Contrast.2'
p493
Ntp494
F0.019178082191780823
s(S'.2'
p495
S'.2'
p496
tp497
F0.024657534246575342
s(S'Explicit'
p498
S'Explicit'
p499
tp500
F0.009188361408882083
s(NS'Comparison.Contrast.2'
p501
tp502
F0.030136986301369864
s(S'.1'
p503
S'.1'
p504
tp505
F0.00410958904109589
s(NS'Expansion.Conjunction.2'
p506
tp507
F0.02054794520547945
s(S'.1'
p508
Ntp509
F0.04794520547945205
s(S'Comparison.Contrast.2'
p510
g504
tp511
F0.0013698630136986301
s(S'Comparison.Contrast.1'
p512
Ntp513
F0.019178082191780823
s(S'.2'
p514
S'Expansion.Conjunction.2'
p515
tp516
F0.00684931506849315
s(S'.1'
p517
S'Expansion.Conjunction.1'
p518
tp519
F0.0013698630136986301
s(NS'.2'
p520
tp521
F0.0821917808219178
s(g510
S'Contingency.Condition.1'
p522
tp523
F0.0013698630136986301
s(NS'Comparison.Contrast.1'
p524
tp525
F0.015068493150684932
s(S'Comparison.Contrast.2'
p526
S'Comparison.Contrast.1'
p527
tp528
F0.0013698630136986301
s(S'Comparison.Contrast.2'
p529
S'.2'
p530
tp531
F0.010958904109589041
s(S'Expansion.Conjunction.2'
p532
Ntp533
F0.00684931506849315
s(NS'Expansion.Conjunction.1'
p534
tp535
F0.02054794520547945
s(NS'Contingency.Condition.1'
p536
tp537
F0.0027397260273972603
s(S'Expansion.Conjunction.1'
p538
g512
tp539
F0.0013698630136986301
s(g534
Ntp540
F0.026027397260273973
s(S'EntRel'
p541
Ntp542
F0.10413476263399694
s(S'Expansion.Conjunction.2'
p543
g527
tp544
F0.0013698630136986301
s(g503
S'Comparison.Contrast.2'
p545
tp546
F0.0013698630136986301
s(S'Comparison.Contrast.1'
p547
S'.1'
p548
tp549
F0.0027397260273972603
s(NNtp550
F0.5773353751914242
s(NS'.1'
p551
tp552
F0.03287671232876712
s(S'Comparison.Contrast.2'
p553
S'Comparison.Contrast.2'
p554
tp555
F0.00410958904109589
s(NS'Contingency.Condition.2'
p556
tp557
F0.00410958904109589
s(NS'EntRel'
p558
tp559
F0.09188361408882083
s(g536
Ntp560
F0.00410958904109589
s(g503
g522
tp561
F0.0013698630136986301
s(g547
S'Comparison.Contrast.1'
p562
tp563
F0.0013698630136986301
s(g556
Ntp564
F0.00410958904109589
s(S'EntRel'
p565
S'EntRel'
p566
tp567
F0.03215926493108729
s(NS'Explicit'
p568
tp569
F0.08422664624808576
s(g558
g568
tp570
F0.01225114854517611
s(S'.1'
p571
g562
tp572
F0.0013698630136986301
s(S'.2'
p573
g518
tp574
F0.0013698630136986301
s(S'Expansion.Conjunction.2'
p575
g554
tp576
F0.0027397260273972603
s(g520
Ntp577
F0.07671232876712329
s(S'Explicit'
p578
g541
tp579
F0.016845329249617153
s(g578
Ntp580
F0.07197549770290965
ssS'apwsE960109.0412-0-1.perm-1.txt.pipe'
p581
(dp582
sS'apwsE951018.0182-2-2-0.perm-13.txt.pipe'
p583
(dp584
(NS'Explicit'
p585
tp586
F0.5517241379310345
s(S'Temporal.Synchrony.2'
p587
Ntp588
F0.2413793103448276
s(NS'Contingency.Condition.2'
p589
tp590
F0.4827586206896552
s(NS'Contingency.Condition.1'
p591
tp592
F0.06896551724137931
s(S'Explicit'
p593
Ntp594
F0.4482758620689655
s(S'Temporal.Synchrony.1'
p595
Ntp596
F0.20689655172413793
ssS'apwsE950112.0297-0-1.perm-1.txt.pipe'
p597
(dp598
sS'apwsE951024.0005-2-2-0.perm-10.txt.pipe'
p599
(dp600
(NS'EntRel'
p601
tp602
F0.15030060120240482
s(S'Comparison.Contrast.2'
p603
Ntp604
F0.010050251256281407
s(S'Expansion.Conjunction.1'
p605
Ntp606
F0.006700167504187605
s(S'EntRel'
p607
Ntp608
F0.16633266533066132
s(S'Comparison.Contrast.1'
p609
S'.1'
p610
tp611
F0.0016750418760469012
s(S'.1'
p612
S'.1'
p613
tp614
F0.01675041876046901
s(NS'Expansion.Conjunction.2'
p615
tp616
F0.005025125628140704
s(S'.1'
p617
Ntp618
F0.10887772194304858
s(S'Comparison.Contrast.1'
p619
Ntp620
F0.006700167504187605
s(Ng617
tp621
F0.09045226130653267
s(S'Expansion.Conjunction.2'
p622
S'.2'
p623
tp624
F0.0016750418760469012
s(S'.2'
p625
S'.1'
p626
tp627
F0.005025125628140704
s(NS'.2'
p628
tp629
F0.11725293132328309
s(g601
g607
tp630
F0.06012024048096192
s(NS'Explicit'
p631
tp632
F0.014028056112224449
s(S'Explicit'
p633
Ntp634
F0.03206412825651302
s(g628
S'.2'
p635
tp636
F0.03350083752093802
s(g615
Ntp637
F0.0033500837520938024
s(Ng605
tp638
F0.006700167504187605
s(g635
Ntp639
F0.10720268006700168
s(g633
g607
tp640
F0.004008016032064128
s(NNtp641
F0.5731462925851704
ssS'apwsE951009.0294-2-2-0.perm-11.txt.pipe'
p642
(dp643
sS'apwsE951009.0294-2-2-0.perm-10.txt.pipe'
p644
(dp645
sS'apwsE951003.0004-2-2-0.perm-1.txt.pipe'
p646
(dp647
(S'Expansion.Conjunction.1'
p648
Ntp649
F0.2647058823529412
s(NS'Explicit'
p650
tp651
F0.3235294117647059
s(S'Explicit'
p652
Ntp653
F0.2647058823529412
s(NNtp654
F0.4117647058823529
s(NS'Expansion.Conjunction.2'
p655
tp656
F0.3235294117647059
ssS'apwsE950827.0022-2-2-0.perm-1.txt.pipe'
p657
(dp658
(S'Comparison.Contrast.1'
p659
S'Contingency.Cause.2'
p660
tp661
F0.027777777777777776
s(S'Comparison.Contrast.2'
p662
Ntp663
F0.16666666666666666
s(NS'Contingency.Cause.2'
p664
tp665
F0.2777777777777778
s(NS'Explicit'
p666
tp667
F0.46153846153846156
s(S'Temporal.Asynchronous.1'
p668
Ntp669
F0.08333333333333333
s(S'Explicit'
p670
g666
tp671
F0.07692307692307693
s(S'Temporal.Asynchronous.2'
p672
g660
tp673
F0.027777777777777776
s(S'Comparison.Contrast.1'
p674
Ntp675
F0.16666666666666666
s(S'Temporal.Asynchronous.2'
p676
Ntp677
F0.16666666666666666
s(g670
Ntp678
F0.46153846153846156
s(NS'Contingency.Cause.1'
p679
tp680
F0.05555555555555555
s(S'Comparison.Contrast.2'
p681
S'Contingency.Cause.1'
p682
tp683
F0.027777777777777776
ssS'apwsE950925.0091-0-1.perm-10.txt.pipe'
p684
(dp685
(NS'Explicit'
p686
tp687
F0.5833333333333334
s(g686
Ntp688
F0.4166666666666667
s(NS'Expansion.Conjunction.2'
p689
tp690
F0.5833333333333334
s(S'Expansion.Conjunction.1'
p691
Ntp692
F0.4166666666666667
ssS'apwsE951009.0245-2-2-0.perm-12.txt.pipe'
p693
(dp694
(S'Contingency.Cause.1'
p695
Ntp696
F0.01283147989734816
s(S'Implicit'
p697
Ntp698
F0.06288751107174491
s(S'Comparison.Contrast.2'
p699
Ntp700
F0.013686911890504704
s(S'.2'
p701
S'.2'
p702
tp703
F0.00427715996578272
s(S'Explicit'
p704
S'Explicit'
p705
tp706
F0.0008857395925597874
s(Ng699
tp707
F0.017964071856287425
s(NS'Expansion.Conjunction.2'
p708
tp709
F0.01283147989734816
s(S'.1'
p710
Ntp711
F0.02737382378100941
s(S'Comparison.Contrast.1'
p712
Ntp713
F0.018819503849443968
s(S'Implicit'
p714
S'Explicit'
p715
tp716
F0.0008857395925597874
s(S'Contingency.Cause.1'
p717
S'.1'
p718
tp719
F0.000855431993156544
s(S'Contingency.Cause.2'
p720
Ntp721
F0.01454234388366125
s(S'EntRel'
p722
g697
tp723
F0.011514614703277236
s(S'.2'
p724
S'Expansion.Conjunction.2'
p725
tp726
F0.00855431993156544
s(Ng714
tp727
F0.046058458813108945
s(Ng724
tp728
F0.05132591958939264
s(NS'Contingency.Cause.2'
p729
tp730
F0.01454234388366125
s(g729
S'.2'
p731
tp732
F0.000855431993156544
s(NS'Comparison.Contrast.1'
p733
tp734
F0.010265183917878529
s(S'Explicit'
p735
Ntp736
F0.04162976085031001
s(S'Comparison.Contrast.2'
p737
S'.2'
p738
tp739
F0.0025662959794696323
s(g725
Ntp740
F0.029940119760479042
s(NS'Expansion.Conjunction.1'
p741
tp742
F0.01283147989734816
s(S'Comparison.Contrast.2'
p743
S'Contingency.Cause.2'
p744
tp745
F0.0025662959794696323
s(S'Contingency.Cause.2'
p746
g744
tp747
F0.0025662959794696323
s(S'.2'
p748
g744
tp749
F0.003421727972626176
s(S'Expansion.Conjunction.1'
p750
Ntp751
F0.016253207869974338
s(S'EntRel'
p752
Ntp753
F0.053144375553587246
s(g714
S'EntRel'
p754
tp755
F0.00354295837023915
s(NNtp756
F0.6616474756421612
s(g708
g731
tp757
F0.001710863986313088
s(g735
g714
tp758
F0.002657218777679362
s(S'Expansion.Conjunction.2'
p759
S'Temporal.Synchrony.2'
p760
tp761
F0.000855431993156544
s(S'Expansion.Conjunction.1'
p762
S'.1'
p763
tp764
F0.000855431993156544
s(Ng722
tp765
F0.06997342781222321
s(Ng710
tp766
F0.02566295979469632
s(S'.2'
p767
g763
tp768
F0.000855431993156544
s(S'.2'
p769
S'Comparison.Contrast.2'
p770
tp771
F0.000855431993156544
s(S'EntRel'
p772
g752
tp773
F0.005314437555358724
s(Ng735
tp774
F0.0354295837023915
s(NS'Temporal.Synchrony.1'
p775
tp776
F0.000855431993156544
s(g717
S'Expansion.Conjunction.1'
p777
tp778
F0.000855431993156544
s(g772
g735
tp779
F0.0008857395925597874
s(S'.2'
p780
Ntp781
F0.033361847733105215
s(g715
g754
tp782
F0.00354295837023915
s(NS'Temporal.Synchrony.2'
p783
tp784
F0.0025662959794696323
s(Ng695
tp785
F0.013686911890504704
ssS'apwsE960313.0036-2-2-0.perm-1.txt.pipe'
p786
(dp787
sS'apwsE960102.0206-0-1.perm-1.txt.pipe'
p788
(dp789
(S'EntRel'
p790
Ntp791
F0.6470588235294118
s(Ng790
tp792
F0.35294117647058826
s(NS'.2'
p793
tp794
F0.35294117647058826
s(S'.1'
p795
Ntp796
F0.6470588235294118
ssS'apwsE951009.0305-2-2-0.perm-11.txt.pipe'
p797
(dp798
(S'Contingency.Cause.1'
p799
Ntp800
F0.015238095238095238
s(S'Temporal.Synchrony.2'
p801
Ntp802
F0.007619047619047619
s(S'Comparison.Contrast.2'
p803
Ntp804
F0.017142857142857144
s(S'Expansion.Conjunction.1'
p805
Ntp806
F0.024761904761904763
s(NS'Explicit'
p807
tp808
F0.122
s(S'Explicit'
p809
Ntp810
F0.11
s(S'Contingency.Cause.2'
p811
Ntp812
F0.017142857142857144
s(NS'Comparison.Contrast.2'
p813
tp814
F0.024761904761904763
s(NNtp815
F0.764
s(NS'Expansion.Conjunction.2'
p816
tp817
F0.06285714285714286
s(S'Expansion.Conjunction.2'
p818
Ntp819
F0.009523809523809525
s(S'Comparison.Contrast.1'
p820
Ntp821
F0.04380952380952381
s(Ng805
tp822
F0.04380952380952381
s(S'Temporal.Synchrony.1'
p823
Ntp824
F0.0019047619047619048
s(S'Expansion.Conjunction.1'
p825
S'Expansion.Conjunction.1'
p826
tp827
F0.0038095238095238095
s(S'Explicit'
p828
g807
tp829
F0.004
ssS'apwsE960108.0238-2-2-0.perm-1.txt.pipe'
p830
(dp831
sS'apwsE960303.0079-2-2-0.perm-12.txt.pipe'
p832
(dp833
sS'apwsE950919.0202-2-2-0.perm-13.txt.pipe'
p834
(dp835
sS'apwsE951023.0362-2-2-0.perm-10.txt.pipe'
p836
(dp837
sS'apwsE960313.0250-0-1.perm-13.txt.pipe'
p838
(dp839
sS'apwsE951001.0302-2-2-0.perm-11.txt.pipe'
p840
(dp841
(S'Contingency.Cause.1'
p842
Ntp843
F0.0006218905472636816
s(S'Implicit'
p844
Ntp845
F0.028820375335120642
s(S'.2'
p846
S'.2'
p847
tp848
F0.009328358208955223
s(NS'Temporal.Asynchronous.1'
p849
tp850
F0.004975124378109453
s(g849
Ntp851
F0.004975124378109453
s(S'Implicit'
p852
S'EntRel'
p853
tp854
F0.0020107238605898124
s(S'.1'
p855
S'.1'
p856
tp857
F0.004353233830845771
s(NS'Expansion.Conjunction.2'
p858
tp859
F0.01181592039800995
s(S'.1'
p860
Ntp861
F0.041044776119402986
s(S'.2'
p862
S'Expansion.Restatement.2'
p863
tp864
F0.0012437810945273632
s(g844
S'Explicit'
p865
tp866
F0.0006702412868632708
s(S'EntRel'
p867
g844
tp868
F0.006032171581769437
s(S'.2'
p869
S'Expansion.Conjunction.2'
p870
tp871
F0.003109452736318408
s(S'Expansion.Restatement.2'
p872
S'.1'
p873
tp874
F0.0006218905472636816
s(NS'Implicit'
p875
tp876
F0.039544235924932974
s(S'.1'
p877
S'Expansion.Restatement.1'
p878
tp879
F0.0006218905472636816
s(NS'Temporal.Asynchronous.2'
p880
tp881
F0.004353233830845771
s(NS'.2'
p882
tp883
F0.053482587064676616
s(NS'Contingency.Cause.2'
p884
tp885
F0.007462686567164179
s(NS'Expansion.Restatement.2'
p886
tp887
F0.006218905472636816
s(g865
Ntp888
F0.00871313672922252
s(S'Expansion.Conjunction.2'
p889
Ntp890
F0.009328358208955223
s(S'Temporal.Asynchronous.2'
p891
S'Expansion.Conjunction.2'
p892
tp893
F0.003109452736318408
s(NS'Expansion.Conjunction.1'
p894
tp895
F0.014303482587064677
s(g865
S'Implicit'
p896
tp897
F0.003351206434316354
s(S'Expansion.Conjunction.1'
p898
S'Temporal.Asynchronous.2'
p899
tp900
F0.0006218905472636816
s(S'Expansion.Restatement.2'
p901
S'.2'
p902
tp903
F0.0006218905472636816
s(S'Expansion.Restatement.1'
p904
Ntp905
F0.0037313432835820895
s(g886
Ntp906
F0.006218905472636816
s(S'.2'
p907
S'Contingency.Cause.2'
p908
tp909
F0.0006218905472636816
s(g894
Ntp910
F0.014303482587064677
s(S'EntRel'
p911
Ntp912
F0.06568364611260054
s(S'Expansion.Conjunction.2'
p913
g892
tp914
F0.003109452736318408
s(NNtp915
F0.75
s(Ng860
tp916
F0.03482587064676617
s(g899
Ntp917
F0.003109452736318408
s(Ng911
tp918
F0.064343163538874
s(S'Expansion.Restatement.1'
p919
S'.1'
p920
tp921
F0.0006218905472636816
s(S'.2'
p922
g891
tp923
F0.0012437810945273632
s(S'.2'
p924
g856
tp925
F0.0024875621890547263
s(g844
g896
tp926
F0.004021447721179625
s(S'EntRel'
p927
S'EntRel'
p928
tp929
F0.015415549597855228
s(Ng865
tp930
F0.010053619302949061
s(g867
g865
tp931
F0.0013404825737265416
s(g898
S'Expansion.Conjunction.1'
p932
tp933
F0.0006218905472636816
s(g882
Ntp934
F0.04664179104477612
s(Ng919
tp935
F0.0037313432835820895
s(Ng842
tp936
F0.0006218905472636816
ssS'apwsE950919.0594-2-2-0.perm-12.txt.pipe'
p937
(dp938
sS'apwsE951221.0001-0-1.perm-12.txt.pipe'
p939
(dp940
(S'Comparison.Contrast.1'
p941
Ntp942
F0.19047619047619047
s(S'Comparison.Contrast.1'
p943
S'Comparison.Contrast.1'
p944
tp945
F0.09523809523809523
s(S'Comparison.Contrast.2'
p946
Ntp947
F0.2857142857142857
s(S'Comparison.Contrast.1'
p948
S'Comparison.Contrast.2'
p949
tp950
F0.047619047619047616
s(NS'Comparison.Contrast.1'
p951
tp952
F0.047619047619047616
s(NS'Explicit'
p953
tp954
F0.38095238095238093
s(S'Explicit'
p955
g953
tp956
F0.14285714285714285
s(NS'Comparison.Contrast.2'
p957
tp958
F0.3333333333333333
s(g955
Ntp959
F0.47619047619047616
ssS'apwsE951024.0072-2-2-0.perm-11.txt.pipe'
p960
(dp961
(S'Comparison.Concession.1'
p962
Ntp963
F0.07291666666666667
s(S'Comparison.Contrast.2'
p964
Ntp965
F0.07291666666666667
s(NS'Explicit'
p966
tp967
F0.25
s(S'Explicit'
p968
Ntp969
F0.2916666666666667
s(g968
S'Explicit'
p970
tp971
F0.020833333333333332
s(NNtp972
F0.4375
s(NS'Expansion.Conjunction.2'
p973
tp974
F0.052083333333333336
s(S'Comparison.Concession.1'
p975
S'Expansion.Conjunction.1'
p976
tp977
F0.010416666666666666
s(S'Comparison.Contrast.1'
p978
Ntp979
F0.052083333333333336
s(Ng962
tp980
F0.08333333333333333
s(NS'Expansion.Conjunction.1'
p981
tp982
F0.03125
s(NS'Comparison.Concession.2'
p983
tp984
F0.08333333333333333
s(g983
Ntp985
F0.09375
s(S'Comparison.Contrast.1'
p986
S'Comparison.Concession.2'
p987
tp988
F0.010416666666666666
ssS'apwsE951006.0493-2-2-0.perm-13.txt.pipe'
p989
(dp990
(S'Contingency.Cause.1'
p991
Ntp992
F0.0017271157167530224
s(S'Explicit'
p993
S'Explicit'
p994
tp995
F0.010101010101010102
s(S'Comparison.Concession.1'
p996
Ntp997
F0.006044905008635579
s(S'Comparison.Contrast.2'
p998
Ntp999
F0.03540587219343696
s(S'Expansion.Conjunction.1'
p1000
Ntp1001
F0.016407599309153715
s(NS'Temporal.Asynchronous.1'
p1002
tp1003
F0.0069084628670120895
s(S'Contingency.Cause.2'
p1004
Ntp1005
F0.012953367875647668
s(NS'Comparison.Contrast.2'
p1006
tp1007
F0.046632124352331605
s(NNtp1008
F0.7704315886134068
s(NS'Expansion.Conjunction.2'
p1009
tp1010
F0.02158894645941278
s(S'Comparison.Contrast.1'
p1011
Ntp1012
F0.039723661485319514
s(S'Comparison.Contrast.2'
p1013
S'Temporal.Asynchronous.1'
p1014
tp1015
F0.0008635578583765112
s(S'Expansion.Conjunction.2'
p1016
S'Comparison.Contrast.2'
p1017
tp1018
F0.0025906735751295338
s(S'Comparison.Concession.2'
p1019
S'Expansion.Conjunction.2'
p1020
tp1021
F0.004317789291882556
s(NS'Temporal.Asynchronous.2'
p1022
tp1023
F0.008635578583765112
s(S'Contingency.Cause.1'
p1024
S'Expansion.Conjunction.2'
p1025
tp1026
F0.0008635578583765112
s(NS'Explicit'
p1027
tp1028
F0.10927456382001836
s(Ng1011
tp1029
F0.038860103626943004
s(S'Explicit'
p1030
Ntp1031
F0.11019283746556474
s(S'Comparison.Contrast.2'
p1032
S'Temporal.Asynchronous.2'
p1033
tp1034
F0.0008635578583765112
s(S'Expansion.Conjunction.2'
p1035
Ntp1036
F0.017271157167530225
s(NS'Expansion.Conjunction.1'
p1037
tp1038
F0.007772020725388601
s(S'Comparison.Concession.2'
p1039
Ntp1040
F0.0051813471502590676
s(g1024
S'Comparison.Contrast.1'
p1041
tp1042
F0.0008635578583765112
ssS'apwsE950331.0603-0-1.perm-13.txt.pipe'
p1043
(dp1044
sS'apwsE951010.0048-2-2-0.perm-10.txt.pipe'
p1045
(dp1046
(S'Temporal.Asynchronous.2'
p1047
S'Comparison.Contrast.2'
p1048
tp1049
F0.0031914893617021275
s(S'Comparison.Contrast.2'
p1050
Ntp1051
F0.014893617021276596
s(S'Expansion.Conjunction.1'
p1052
Ntp1053
F0.007446808510638298
s(NS'Temporal.Asynchronous.1'
p1054
tp1055
F0.007446808510638298
s(S'Temporal.Asynchronous.1'
p1056
Ntp1057
F0.018085106382978722
s(S'Explicit'
p1058
S'Explicit'
p1059
tp1060
F0.003374578177727784
s(Ng1050
tp1061
F0.03404255319148936
s(NNtp1062
F0.7772778402699663
s(S'Comparison.Contrast.1'
p1063
Ntp1064
F0.030851063829787233
s(NS'Temporal.Synchrony.1'
p1065
tp1066
F0.019148936170212766
s(S'Temporal.Asynchronous.2'
p1067
Ntp1068
F0.031914893617021274
s(g1065
Ntp1069
F0.019148936170212766
s(S'Temporal.Synchrony.2'
p1070
Ntp1071
F0.00425531914893617
s(Ng1067
tp1072
F0.015957446808510637
s(Ng1059
tp1073
F0.11473565804274466
s(Ng1063
tp1074
F0.02553191489361702
s(g1059
Ntp1075
F0.1046119235095613
s(S'Expansion.Conjunction.2'
p1076
Ntp1077
F0.006382978723404255
s(NS'Temporal.Synchrony.2'
p1078
tp1079
F0.026595744680851064
ssS'apwsE960313.0026-2-2-0.perm-12.txt.pipe'
p1080
(dp1081
sS'apwsE951003.0485-2-2-0.perm-13.txt.pipe'
p1082
(dp1083
sS'apwsE951203.0078-2-2-0.perm-13.txt.pipe'
p1084
(dp1085
(S'Comparison.Contrast.1'
p1086
Ntp1087
F0.3125
s(NS'Explicit'
p1088
tp1089
F0.375
s(S'Comparison.Contrast.2'
p1090
Ntp1091
F0.125
s(S'Comparison.Contrast.1'
p1092
S'Comparison.Contrast.2'
p1093
tp1094
F0.0625
s(NS'Comparison.Contrast.1'
p1095
tp1096
F0.0625
s(S'Comparison.Contrast.2'
p1097
S'Comparison.Contrast.1'
p1098
tp1099
F0.125
s(S'Explicit'
p1100
g1088
tp1101
F0.1875
s(NS'Comparison.Contrast.2'
p1102
tp1103
F0.3125
s(g1100
Ntp1104
F0.4375
ssS'apwsE960508.0041-2-2-0.perm-11.txt.pipe'
p1105
(dp1106
sS'apwsE951010.0048-2-2-0.perm-11.txt.pipe'
p1107
(dp1108
(S'Explicit'
p1109
Ntp1110
F0.061016949152542375
s(NS'Temporal.Asynchronous.2'
p1111
tp1112
F0.009950248756218905
s(S'Comparison.Contrast.2'
p1113
Ntp1114
F0.013266998341625208
s(NS'Temporal.Asynchronous.1'
p1115
tp1116
F0.011608623548922056
s(NS'Explicit'
p1117
tp1118
F0.1152542372881356
s(S'Temporal.Asynchronous.2'
p1119
S'Temporal.Synchrony.1'
p1120
tp1121
F0.001658374792703151
s(g1109
g1117
tp1122
F0.005084745762711864
s(Ng1113
tp1123
F0.03150912106135987
s(NNtp1124
F0.8186440677966101
s(NS'Expansion.Conjunction.2'
p1125
tp1126
F0.009950248756218905
s(S'Comparison.Contrast.1'
p1127
Ntp1128
F0.004975124378109453
s(NS'Temporal.Synchrony.1'
p1129
tp1130
F0.01658374792703151
s(S'Temporal.Asynchronous.2'
p1131
Ntp1132
F0.01824212271973466
s(NS'Expansion.Conjunction.1'
p1133
tp1134
F0.011608623548922056
s(NS'Temporal.Synchrony.2'
p1135
tp1136
F0.04311774461028192
s(g1129
Ntp1137
F0.02155887230514096
s(S'Temporal.Asynchronous.1'
p1138
Ntp1139
F0.001658374792703151
s(S'Temporal.Asynchronous.1'
p1140
S'Temporal.Synchrony.1'
p1141
tp1142
F0.003316749585406302
ssS'apwsE951003.0004-2-2-0.perm-12.txt.pipe'
p1143
(dp1144
(S'Contingency.Cause.1'
p1145
Ntp1146
F0.006644518272425249
s(S'Implicit'
p1147
Ntp1148
F0.017793594306049824
s(S'Expansion.Conjunction.1'
p1149
Ntp1150
F0.016611295681063124
s(S'EntRel'
p1151
Ntp1152
F0.09252669039145907
s(g1147
S'EntRel'
p1153
tp1154
F0.0035587188612099642
s(NNtp1155
F0.6832740213523132
s(NS'Expansion.Conjunction.2'
p1156
tp1157
F0.029900332225913623
s(S'.1'
p1158
Ntp1159
F0.054817275747508304
s(S'Explicit'
p1160
g1147
tp1161
F0.0035587188612099642
s(Ng1160
tp1162
F0.0498220640569395
s(NS'EntRel'
p1163
tp1164
F0.08185053380782918
s(S'Contingency.Cause.2'
p1165
Ntp1166
F0.009966777408637873
s(NS'.1'
p1167
tp1168
F0.03986710963455149
s(S'.2'
p1169
S'Expansion.Conjunction.2'
p1170
tp1171
F0.008305647840531562
s(Ng1147
tp1172
F0.017793594306049824
s(NS'.2'
p1173
tp1174
F0.06976744186046512
s(Ng1165
tp1175
F0.009966777408637873
s(S'Contingency.Cause.2'
p1176
S'.2'
p1177
tp1178
F0.0033222591362126247
s(g1160
Ntp1179
F0.03202846975088968
s(S'.2'
p1180
S'.2'
p1181
tp1182
F0.008305647840531562
s(g1163
g1160
tp1183
F0.008896797153024912
s(S'Expansion.Conjunction.2'
p1184
Ntp1185
F0.013289036544850499
s(S'EntRel'
p1186
S'EntRel'
p1187
tp1188
F0.008896797153024912
s(Ng1145
tp1189
F0.006644518272425249
s(Ng1149
tp1190
F0.016611295681063124
s(g1173
Ntp1191
F0.06478405315614617
s(S'Expansion.Conjunction.2'
p1192
S'Contingency.Cause.2'
p1193
tp1194
F0.0033222591362126247
ssS'apwsE951010.0048-2-2-0.perm-12.txt.pipe'
p1195
(dp1196
(S'Comparison.Contrast.2'
p1197
S'Temporal.Synchrony.1'
p1198
tp1199
F0.003896103896103896
s(S'Comparison.Contrast.2'
p1200
Ntp1201
F0.033766233766233764
s(NS'Temporal.Asynchronous.1'
p1202
tp1203
F0.007792207792207792
s(g1202
Ntp1204
F0.00909090909090909
s(S'Explicit'
p1205
S'Explicit'
p1206
tp1207
F0.00819672131147541
s(NS'Comparison.Contrast.2'
p1208
tp1209
F0.045454545454545456
s(NNtp1210
F0.773224043715847
s(S'Comparison.Contrast.1'
p1211
Ntp1212
F0.015584415584415584
s(NS'Temporal.Synchrony.1'
p1213
tp1214
F0.02727272727272727
s(S'Temporal.Asynchronous.2'
p1215
Ntp1216
F0.015584415584415584
s(S'Comparison.Contrast.2'
p1217
S'Temporal.Asynchronous.1'
p1218
tp1219
F0.0012987012987012987
s(g1213
Ntp1220
F0.03116883116883117
s(S'Temporal.Synchrony.2'
p1221
Ntp1222
F0.005194805194805195
s(NS'Temporal.Asynchronous.2'
p1223
tp1224
F0.016883116883116882
s(NS'Explicit'
p1225
tp1226
F0.1284153005464481
s(NS'Comparison.Contrast.1'
p1227
tp1228
F0.01038961038961039
s(g1225
Ntp1229
F0.09016393442622951
s(g1197
g1215
tp1230
F0.0025974025974025974
s(g1223
S'Temporal.Synchrony.2'
p1231
tp1232
F0.003896103896103896
s(NS'Temporal.Synchrony.2'
p1233
tp1234
F0.03506493506493506
ssS'apwsE960203.0270-2-2-0.perm-1.txt.pipe'
p1235
(dp1236
sS'apwsE950928.0080-0-1.perm-13.txt.pipe'
p1237
(dp1238
sS'apwsE951210.0051-2-2-0.perm-11.txt.pipe'
p1239
(dp1240
sS'apwsE960207.0488-2-2-0.perm-10.txt.pipe'
p1241
(dp1242
(S'Expansion.Conjunction.1'
p1243
S'Expansion.Alternative.1'
p1244
tp1245
F0.02564102564102564
s(S'Expansion.Conjunction.1'
p1246
Ntp1247
F0.23076923076923078
s(NS'Explicit'
p1248
tp1249
F0.6296296296296297
s(S'Explicit'
p1250
Ntp1251
F0.3333333333333333
s(g1250
g1248
tp1252
F0.037037037037037035
s(NS'Expansion.Conjunction.2'
p1253
tp1254
F0.41025641025641024
s(NS'Expansion.Alternative.2'
p1255
tp1256
F0.23076923076923078
s(NS'Expansion.Alternative.1'
p1257
tp1258
F0.10256410256410256
ssS'apwsE960109.0412-0-1.perm-10.txt.pipe'
p1259
(dp1260
sS'apwsE960313.0036-2-2-0.perm-10.txt.pipe'
p1261
(dp1262
(S'Contingency.Cause.1'
p1263
Ntp1264
F0.010638297872340425
s(NS'Contingency.Cause.2'
p1265
tp1266
F0.10638297872340426
s(NS'Explicit'
p1267
tp1268
F0.3191489361702128
s(NS'Comparison.Contrast.1'
p1269
tp1270
F0.11702127659574468
s(S'Temporal.Asynchronous.1'
p1271
Ntp1272
F0.07446808510638298
s(S'Explicit'
p1273
g1267
tp1274
F0.010638297872340425
s(NS'Comparison.Contrast.2'
p1275
tp1276
F0.07446808510638298
s(NNtp1277
F0.35106382978723405
s(S'Temporal.Asynchronous.2'
p1278
Ntp1279
F0.1276595744680851
s(g1265
Ntp1280
F0.10638297872340426
s(S'Contingency.Cause.1'
p1281
S'Comparison.Contrast.2'
p1282
tp1283
F0.010638297872340425
s(S'Explicit'
p1284
Ntp1285
F0.3191489361702128
s(Ng1263
tp1286
F0.02127659574468085
ssS'apwsE951023.0357-2-2-0.perm-11.txt.pipe'
p1287
(dp1288
sS'apwsE951020.0432-2-2-0.perm-11.txt.pipe'
p1289
(dp1290
(S'Contingency.Cause.1'
p1291
Ntp1292
F0.004581151832460733
s(S'Implicit'
p1293
Ntp1294
F0.012116892373485389
s(S'Comparison.Contrast.2'
p1295
Ntp1296
F0.009162303664921465
s(S'.2'
p1297
S'.2'
p1298
tp1299
F0.015706806282722512
s(S'Explicit'
p1300
S'Explicit'
p1301
tp1302
F0.003563791874554526
s(NS'Comparison.Contrast.2'
p1303
tp1304
F0.01963350785340314
s(S'.1'
p1305
S'.1'
p1306
tp1307
F0.005235602094240838
s(NS'Expansion.Conjunction.2'
p1308
tp1309
F0.010471204188481676
s(S'.1'
p1310
Ntp1311
F0.037303664921465966
s(S'Comparison.Contrast.2'
p1312
S'.1'
p1313
tp1314
F0.0006544502617801048
s(S'Comparison.Contrast.1'
p1315
Ntp1316
F0.008507853403141362
s(S'Implicit'
p1317
S'Explicit'
p1318
tp1319
F0.0007127583749109052
s(S'Contingency.Cause.2'
p1320
Ntp1321
F0.003926701570680628
s(S'.2'
p1322
S'Expansion.Conjunction.2'
p1323
tp1324
F0.004581151832460733
s(S'Expansion.Restatement.2'
p1325
S'.1'
p1326
tp1327
F0.0006544502617801048
s(Ng1317
tp1328
F0.0135424091233072
s(S'Expansion.Restatement.1'
p1329
S'.1'
p1330
tp1331
F0.0006544502617801048
s(S'.1'
p1332
S'Expansion.Conjunction.1'
p1333
tp1334
F0.001963350785340314
s(Ng1322
tp1335
F0.06217277486910995
s(Ng1320
tp1336
F0.004581151832460733
s(S'Comparison.Contrast.2'
p1337
S'Expansion.Conjunction.1'
p1338
tp1339
F0.0006544502617801048
s(Ng1315
tp1340
F0.010471204188481676
s(S'Explicit'
p1341
Ntp1342
F0.03991446899501069
s(g1303
S'.2'
p1343
tp1344
F0.006544502617801047
s(g1323
Ntp1345
F0.004581151832460733
s(S'Comparison.Contrast.1'
p1346
S'Expansion.Conjunction.1'
p1347
tp1348
F0.0006544502617801048
s(S'.1'
p1349
S'Contingency.Condition.1'
p1350
tp1351
F0.0006544502617801048
s(S'Expansion.Restatement.2'
p1352
Ntp1353
F0.002617801047120419
s(NS'Expansion.Conjunction.1'
p1354
tp1355
F0.014397905759162303
s(NS'Contingency.Condition.1'
p1356
tp1357
F0.0013089005235602095
s(S'Expansion.Conjunction.1'
p1358
S'Comparison.Contrast.1'
p1359
tp1360
F0.0006544502617801048
s(S'Expansion.Restatement.2'
p1361
S'.2'
p1362
tp1363
F0.004581151832460733
s(S'Expansion.Restatement.1'
p1364
Ntp1365
F0.001963350785340314
s(S'.2'
p1366
g1359
tp1367
F0.0006544502617801048
s(S'Contingency.Cause.2'
p1368
g1330
tp1369
F0.0006544502617801048
s(g1354
Ntp1370
F0.014397905759162303
s(S'EntRel'
p1371
Ntp1372
F0.07626514611546685
s(g1317
S'EntRel'
p1373
tp1374
F0.006414825374198147
s(g1349
g1337
tp1375
F0.0006544502617801048
s(S'Comparison.Contrast.1'
p1376
S'.1'
p1377
tp1378
F0.0013089005235602095
s(S'.2'
p1379
g1350
tp1380
F0.0006544502617801048
s(NNtp1381
F0.6685673556664291
s(g1308
S'.2'
p1382
tp1383
F0.0032722513089005235
s(g1312
g1337
tp1384
F0.0006544502617801048
s(S'Expansion.Conjunction.1'
p1385
S'.1'
p1386
tp1387
F0.0013089005235602095
s(NS'EntRel'
p1388
tp1389
F0.07483962936564505
s(g1341
S'EntRel'
p1390
tp1391
F0.014255167498218105
s(g1356
Ntp1392
F0.0013089005235602095
s(Ng1310
tp1393
F0.037303664921465966
s(Ng1361
tp1394
F0.007853403141361256
s(S'.2'
p1395
g1386
tp1396
F0.002617801047120419
s(S'Contingency.Condition.2'
p1397
Ntp1398
F0.001963350785340314
s(g1379
g1337
tp1399
F0.0006544502617801048
s(g1350
g1338
tp1400
F0.0006544502617801048
s(g1376
S'Comparison.Contrast.1'
p1401
tp1402
F0.0006544502617801048
s(S'EntRel'
p1403
g1371
tp1404
F0.024233784746970778
s(Ng1318
tp1405
F0.0541696364932288
s(g1312
g1350
tp1406
F0.0006544502617801048
s(g1388
g1341
tp1407
F0.011404133998574484
s(g1386
S'Comparison.Contrast.1'
p1408
tp1409
F0.002617801047120419
s(S'.2'
p1410
g1333
tp1411
F0.0013089005235602095
s(g1298
Ntp1412
F0.06086387434554974
s(Ng1364
tp1413
F0.002617801047120419
s(g1325
S'Comparison.Contrast.1'
p1414
tp1415
F0.0006544502617801048
s(Ng1397
tp1416
F0.001963350785340314
ssS'apwsE951009.0305-2-2-0.perm-13.txt.pipe'
p1417
(dp1418
(S'Explicit'
p1419
S'Explicit'
p1420
tp1421
F0.009523809523809525
s(S'Comparison.Contrast.2'
p1422
S'Expansion.Conjunction.2'
p1423
tp1424
F0.002304147465437788
s(S'Comparison.Contrast.2'
p1425
Ntp1426
F0.018433179723502304
s(S'Expansion.Conjunction.1'
p1427
Ntp1428
F0.03225806451612903
s(S'Comparison.Contrast.1'
p1429
S'Expansion.Conjunction.2'
p1430
tp1431
F0.002304147465437788
s(S'Expansion.Conjunction.2'
p1432
g1423
tp1433
F0.002304147465437788
s(NS'Comparison.Contrast.2'
p1434
tp1435
F0.03686635944700461
s(NNtp1436
F0.7690476190476191
s(NS'Expansion.Conjunction.2'
p1437
tp1438
F0.08755760368663594
s(S'Comparison.Contrast.1'
p1439
Ntp1440
F0.016129032258064516
s(g1430
S'Expansion.Conjunction.1'
p1441
tp1442
F0.002304147465437788
s(S'Temporal.Synchrony.1'
p1443
Ntp1444
F0.002304147465437788
s(S'Temporal.Synchrony.2'
p1445
S'Comparison.Contrast.1'
p1446
tp1447
F0.002304147465437788
s(S'Temporal.Synchrony.2'
p1448
Ntp1449
F0.0069124423963133645
s(NS'Explicit'
p1450
tp1451
F0.1523809523809524
s(NS'Comparison.Contrast.1'
p1452
tp1453
F0.0069124423963133645
s(S'Explicit'
p1454
Ntp1455
F0.06904761904761905
s(S'Expansion.Conjunction.2'
p1456
Ntp1457
F0.004608294930875576
s(NS'Expansion.Conjunction.1'
p1458
tp1459
F0.03225806451612903
ssS'apwsE951009.0278-2-2-0.perm-10.txt.pipe'
p1460
(dp1461
(S'Temporal.Synchrony.2'
p1462
Ntp1463
F0.008333333333333333
s(S'Temporal.Synchrony.2'
p1464
S'Expansion.Conjunction.2'
p1465
tp1466
F0.002777777777777778
s(NS'.2'
p1467
tp1468
F0.019444444444444445
s(S'Expansion.Conjunction.1'
p1469
Ntp1470
F0.041666666666666664
s(NS'Explicit'
p1471
tp1472
F0.11666666666666667
s(g1471
Ntp1473
F0.075
s(g1471
S'Explicit'
p1474
tp1475
F0.008333333333333333
s(NNtp1476
F0.7555555555555555
s(NS'Expansion.Conjunction.2'
p1477
tp1478
F0.06388888888888888
s(S'.1'
p1479
Ntp1480
F0.005555555555555556
s(S'Expansion.Conjunction.2'
p1481
Ntp1482
F0.022222222222222223
s(S'EntRel'
p1483
Ntp1484
F0.025
s(g1465
S'Expansion.Conjunction.1'
p1485
tp1486
F0.002777777777777778
s(Ng1483
tp1487
F0.019444444444444445
s(Ng1469
tp1488
F0.05277777777777778
s(g1467
Ntp1489
F0.019444444444444445
s(S'Temporal.Synchrony.1'
p1490
Ntp1491
F0.002777777777777778
s(S'Expansion.Conjunction.1'
p1492
S'Expansion.Conjunction.1'
p1493
tp1494
F0.002777777777777778
ssS'apwsE950928.0094-0-1.perm-13.txt.pipe'
p1495
(dp1496
sS'apwsE951018.0070-2-2-0.perm-10.txt.pipe'
p1497
(dp1498
sS'apwsE951201.0010-0-1.perm-13.txt.pipe'
p1499
(dp1500
(S'Comparison.Contrast.1'
p1501
Ntp1502
F0.17857142857142858
s(S'Comparison.Contrast.1'
p1503
S'Comparison.Contrast.1'
p1504
tp1505
F0.07142857142857142
s(S'Comparison.Contrast.2'
p1506
Ntp1507
F0.35714285714285715
s(NS'Explicit'
p1508
tp1509
F0.35714285714285715
s(NS'Comparison.Contrast.1'
p1510
tp1511
F0.14285714285714285
s(S'Comparison.Contrast.2'
p1512
S'Comparison.Contrast.1'
p1513
tp1514
F0.03571428571428571
s(S'Explicit'
p1515
g1508
tp1516
F0.10714285714285714
s(NS'Comparison.Contrast.2'
p1517
tp1518
F0.21428571428571427
s(g1515
Ntp1519
F0.5357142857142857
ssS'apwsE960104.0037-0-1.perm-1.txt.pipe'
p1520
(dp1521
sS'apwsE950919.0564-2-2-0.perm-11.txt.pipe'
p1522
(dp1523
(S'Contingency.Cause.1'
p1524
Ntp1525
F0.13333333333333333
s(S'Explicit'
p1526
S'Explicit'
p1527
tp1528
F0.03333333333333333
s(S'Contingency.Cause.1'
p1529
S'Expansion.Conjunction.1'
p1530
tp1531
F0.03333333333333333
s(S'Contingency.Cause.2'
p1532
Ntp1533
F0.16666666666666666
s(Ng1527
tp1534
F0.2
s(g1526
Ntp1535
F0.3
s(NS'Expansion.Conjunction.1'
p1536
tp1537
F0.06666666666666667
s(NNtp1538
F0.4666666666666667
s(NS'Expansion.Conjunction.2'
p1539
tp1540
F0.13333333333333333
ssS'apwsE951122.0012-0-1.perm-13.txt.pipe'
p1541
(dp1542
sS'apwsE951210.0356-2-2-0.perm-12.txt.pipe'
p1543
(dp1544
sS'apwsE951001.0242-2-2-0.perm-12.txt.pipe'
p1545
(dp1546
sS'apwsE960313.0026-2-2-0.perm-10.txt.pipe'
p1547
(dp1548
sS'apwsE951024.0005-2-2-0.perm-13.txt.pipe'
p1549
(dp1550
sS'apwsE951201.0010-0-1.perm-12.txt.pipe'
p1551
(dp1552
sS'apwsE960122.0410-0-1.perm-13.txt.pipe'
p1553
(dp1554
(S'Comparison.Contrast.1'
p1555
Ntp1556
F0.13793103448275862
s(S'Comparison.Contrast.1'
p1557
S'Comparison.Contrast.1'
p1558
tp1559
F0.06896551724137931
s(S'Comparison.Contrast.2'
p1560
Ntp1561
F0.20689655172413793
s(S'Comparison.Contrast.1'
p1562
S'Comparison.Contrast.2'
p1563
tp1564
F0.034482758620689655
s(NS'Comparison.Contrast.1'
p1565
tp1566
F0.1724137931034483
s(NS'Explicit'
p1567
tp1568
F0.5517241379310345
s(S'Explicit'
p1569
g1567
tp1570
F0.10344827586206896
s(NS'Comparison.Contrast.2'
p1571
tp1572
F0.3793103448275862
s(g1569
Ntp1573
F0.3448275862068966
ssS'apwsE950914.0074-0-1.perm-1.txt.pipe'
p1574
(dp1575
sS'apwsE950119.0186-0-1.perm-12.txt.pipe'
p1576
(dp1577
sS'apwsE951020.0432-2-2-0.perm-1.txt.pipe'
p1578
(dp1579
(S'Explicit'
p1580
S'Explicit'
p1581
tp1582
F0.06153846153846154
s(S'Expansion.Conjunction.1'
p1583
Ntp1584
F0.1258741258741259
s(Ng1580
tp1585
F0.16923076923076924
s(NS'Comparison.Contrast.1'
p1586
tp1587
F0.03496503496503497
s(g1580
Ntp1588
F0.17692307692307693
s(NS'Expansion.Conjunction.1'
p1589
tp1590
F0.02097902097902098
s(NS'Comparison.Contrast.2'
p1591
tp1592
F0.027972027972027972
s(NNtp1593
F0.5923076923076923
s(NS'Expansion.Conjunction.2'
p1594
tp1595
F0.14685314685314685
s(S'Expansion.Conjunction.2'
p1596
Ntp1597
F0.04895104895104895
s(S'Expansion.Conjunction.1'
p1598
S'Comparison.Contrast.2'
p1599
tp1600
F0.006993006993006993
s(g1594
S'Expansion.Conjunction.2'
p1601
tp1602
F0.03496503496503497
s(S'Expansion.Conjunction.1'
p1603
S'Expansion.Conjunction.1'
p1604
tp1605
F0.013986013986013986
ssS'apwsE951024.0123-2-2-0.perm-1.txt.pipe'
p1606
(dp1607
(S'Comparison.Contrast.1'
p1608
S'Comparison.Contrast.1'
p1609
tp1610
F0.028846153846153848
s(S'Comparison.Contrast.2'
p1611
Ntp1612
F0.057692307692307696
s(S'Expansion.Conjunction.1'
p1613
Ntp1614
F0.019230769230769232
s(S'Comparison.Contrast.1'
p1615
S'Comparison.Contrast.2'
p1616
tp1617
F0.009615384615384616
s(NS'Comparison.Contrast.1'
p1618
tp1619
F0.10576923076923077
s(S'Explicit'
p1620
Ntp1621
F0.125
s(g1620
S'Explicit'
p1622
tp1623
F0.04807692307692308
s(NS'Comparison.Contrast.2'
p1624
tp1625
F0.09615384615384616
s(NNtp1626
F0.625
s(S'Expansion.Conjunction.2'
p1627
Ntp1628
F0.028846153846153848
s(S'Comparison.Contrast.1'
p1629
Ntp1630
F0.019230769230769232
s(S'Comparison.Contrast.2'
p1631
S'Comparison.Contrast.2'
p1632
tp1633
F0.009615384615384616
s(Ng1622
tp1634
F0.20192307692307693
ssS'apwsE951009.0305-2-2-0.perm-12.txt.pipe'
p1635
(dp1636
(S'Comparison.Contrast.2'
p1637
Ntp1638
F0.015486725663716814
s(S'Expansion.Conjunction.1'
p1639
Ntp1640
F0.030973451327433628
s(NS'Explicit'
p1641
tp1642
F0.11711711711711711
s(NS'Comparison.Contrast.1'
p1643
tp1644
F0.00663716814159292
s(S'Explicit'
p1645
Ntp1646
F0.09009009009009009
s(S'Explicit'
p1647
S'Explicit'
p1648
tp1649
F0.0045045045045045045
s(NS'Comparison.Contrast.2'
p1650
tp1651
F0.02654867256637168
s(NNtp1652
F0.7882882882882883
s(NS'Expansion.Conjunction.2'
p1653
tp1654
F0.07743362831858407
s(S'Expansion.Conjunction.2'
p1655
Ntp1656
F0.011061946902654867
s(S'Comparison.Contrast.1'
p1657
Ntp1658
F0.030973451327433628
s(S'Expansion.Conjunction.1'
p1659
S'Comparison.Contrast.2'
p1660
tp1661
F0.0022123893805309734
s(NS'Expansion.Conjunction.1'
p1662
tp1663
F0.022123893805309734
s(S'Expansion.Conjunction.1'
p1664
S'Comparison.Contrast.1'
p1665
tp1666
F0.0022123893805309734
ssS'apwsE951001.0302-2-2-0.perm-10.txt.pipe'
p1667
(dp1668
(S'Contingency.Cause.1'
p1669
Ntp1670
F0.006962025316455696
s(NS'NoRel.2'
p1671
tp1672
F0.004430379746835443
s(S'.2'
p1673
S'Contingency.Cause.2'
p1674
tp1675
F0.0012658227848101266
s(S'.2'
p1676
S'.2'
p1677
tp1678
F0.016455696202531647
s(NS'Temporal.Asynchronous.1'
p1679
tp1680
F0.005063291139240506
s(g1679
Ntp1681
F0.005063291139240506
s(S'Implicit'
p1682
S'EntRel'
p1683
tp1684
F0.005405405405405406
s(S'.1'
p1685
S'.1'
p1686
tp1687
F0.004430379746835443
s(NS'Expansion.Conjunction.2'
p1688
tp1689
F0.012025316455696202
s(S'.1'
p1690
Ntp1691
F0.04683544303797468
s(S'Expansion.Conjunction.2'
p1692
S'.2'
p1693
tp1694
F0.0031645569620253164
s(S'Implicit'
p1695
Ntp1696
F0.03175675675675676
s(S'Temporal.Asynchronous.2'
p1697
Ntp1698
F0.0031645569620253164
s(NS'EntRel'
p1699
tp1700
F0.07837837837837838
s(S'Contingency.Cause.2'
p1701
Ntp1702
F0.006329113924050633
s(S'.1'
p1703
S'Contingency.Cause.1'
p1704
tp1705
F0.0006329113924050633
s(g1699
g1695
tp1706
F0.002027027027027027
s(Ng1690
tp1707
F0.04746835443037975
s(g1699
Ntp1708
F0.0722972972972973
s(S'Temporal.Asynchronous.2'
p1709
g1693
tp1710
F0.0031645569620253164
s(Ng1695
tp1711
F0.03175675675675676
s(Ng1697
tp1712
F0.006329113924050633
s(NS'.2'
p1713
tp1714
F0.05759493670886076
s(Ng1701
tp1715
F0.006962025316455696
s(g1674
S'.2'
p1716
tp1717
F0.0018987341772151898
s(S'Explicit'
p1718
Ntp1719
F0.008783783783783784
s(S'Expansion.Conjunction.1'
p1720
Ntp1721
F0.0006329113924050633
s(g1688
Ntp1722
F0.008860759493670886
s(S'EntRel'
p1723
S'EntRel'
p1724
tp1725
F0.0222972972972973
s(S'NoRel.1'
p1726
Ntp1727
F0.006962025316455696
s(S'.2'
p1728
g1686
tp1729
F0.0006329113924050633
s(g1713
Ntp1730
F0.05189873417721519
s(g1718
g1683
tp1731
F0.0033783783783783786
s(Ng1718
tp1732
F0.012162162162162163
s(Ng1669
tp1733
F0.006329113924050633
s(NNtp1734
F0.7317567567567568
ssS'apwsE950620.0596-0-1.perm-11.txt.pipe'
p1735
(dp1736
sS'apwsE960109.0103-2-2-0.perm-13.txt.pipe'
p1737
(dp1738
sS'apwsE951210.0051-2-2-0.perm-13.txt.pipe'
p1739
(dp1740
sS'apwsE950112.0297-0-1.perm-13.txt.pipe'
p1741
(dp1742
sS'apwsE960104.0037-0-1.perm-12.txt.pipe'
p1743
(dp1744
sS'apwsE951024.0020-2-2-0.perm-11.txt.pipe'
p1745
(dp1746
(S'Comparison.Contrast.2'
p1747
Ntp1748
F0.07142857142857142
s(S'Expansion.Conjunction.1'
p1749
Ntp1750
F0.02857142857142857
s(S'Comparison.Contrast.2'
p1751
S'Expansion.Conjunction.1'
p1752
tp1753
F0.02857142857142857
s(NS'Comparison.Contrast.1'
p1754
tp1755
F0.05714285714285714
s(S'Comparison.Contrast.1'
p1756
S'Expansion.Conjunction.2'
p1757
tp1758
F0.014285714285714285
s(S'Explicit'
p1759
S'Explicit'
p1760
tp1761
F0.07142857142857142
s(Ng1747
tp1762
F0.1
s(NNtp1763
F0.44285714285714284
s(NS'Expansion.Conjunction.2'
p1764
tp1765
F0.02857142857142857
s(S'Expansion.Conjunction.2'
p1766
Ntp1767
F0.05714285714285714
s(g1754
Ntp1768
F0.04285714285714286
s(S'Comparison.Contrast.1'
p1769
S'Expansion.Conjunction.1'
p1770
tp1771
F0.014285714285714285
s(Ng1760
tp1772
F0.2857142857142857
s(NS'Expansion.Conjunction.1'
p1773
tp1774
F0.1
s(S'Expansion.Conjunction.2'
p1775
g1756
tp1776
F0.014285714285714285
s(S'Explicit'
p1777
Ntp1778
F0.2
ssS'apwsE960216.0269-2-2-0.perm-11.txt.pipe'
p1779
(dp1780
(NS'Temporal.Asynchronous.2'
p1781
tp1782
F0.2982456140350877
s(S'Explicit'
p1783
Ntp1784
F0.1
s(NS'Explicit'
p1785
tp1786
F0.45
s(NS'Comparison.Contrast.1'
p1787
tp1788
F0.21052631578947367
s(S'Temporal.Asynchronous.1'
p1789
Ntp1790
F0.07017543859649122
s(g1783
g1785
tp1791
F0.025
s(NS'Comparison.Contrast.2'
p1792
tp1793
F0.10526315789473684
s(NNtp1794
F0.425
s(S'Temporal.Asynchronous.1'
p1795
S'Comparison.Contrast.2'
p1796
tp1797
F0.017543859649122806
ssS'apwsE950331.0603-0-1.perm-1.txt.pipe'
p1798
(dp1799
sS'apwsE951106.0072-2-2-0.perm-11.txt.pipe'
p1800
(dp1801
sS'apwsE951221.0056-2-2-0.perm-1.txt.pipe'
p1802
(dp1803
sS'apwsE960508.0041-2-2-0.perm-10.txt.pipe'
p1804
(dp1805
sS'apwsE951203.0078-2-2-0.perm-1.txt.pipe'
p1806
(dp1807
sS'apwsE951024.0072-2-2-0.perm-12.txt.pipe'
p1808
(dp1809
(S'Expansion.Conjunction.1'
p1810
Ntp1811
F0.08333333333333333
s(NS'Explicit'
p1812
tp1813
F0.2708333333333333
s(NS'Comparison.Contrast.1'
p1814
tp1815
F0.125
s(S'Explicit'
p1816
Ntp1817
F0.14583333333333334
s(NS'Comparison.Contrast.2'
p1818
tp1819
F0.14583333333333334
s(NNtp1820
F0.5833333333333334
s(S'Expansion.Conjunction.2'
p1821
Ntp1822
F0.0625
ssS'apwsE950331.0603-0-1.perm-10.txt.pipe'
p1823
(dp1824
sS'apwsE951009.0294-2-2-0.perm-13.txt.pipe'
p1825
(dp1826
sS'apwsE960313.0061-2-2-0.perm-1.txt.pipe'
p1827
(dp1828
sS'apwsE951006.0493-2-2-0.perm-11.txt.pipe'
p1829
(dp1830
(S'Contingency.Cause.1'
p1831
Ntp1832
F0.0057692307692307696
s(S'Contingency.Cause.2'
p1833
S'Comparison.Contrast.2'
p1834
tp1835
F0.009615384615384616
s(S'Explicit'
p1836
Ntp1837
F0.11739130434782609
s(S'Temporal.Asynchronous.2'
p1838
S'Comparison.Contrast.2'
p1839
tp1840
F0.007692307692307693
s(S'Comparison.Contrast.2'
p1841
Ntp1842
F0.023076923076923078
s(S'Expansion.Conjunction.1'
p1843
Ntp1844
F0.013461538461538462
s(S'Temporal.Asynchronous.1'
p1845
Ntp1846
F0.013461538461538462
s(S'Explicit'
p1847
g1836
tp1848
F0.03260869565217391
s(NS'Comparison.Contrast.2'
p1849
tp1850
F0.05576923076923077
s(NNtp1851
F0.7195652173913043
s(NS'Expansion.Conjunction.2'
p1852
tp1853
F0.03076923076923077
s(S'Comparison.Contrast.1'
p1854
Ntp1855
F0.07884615384615384
s(g1849
g1831
tp1856
F0.0019230769230769232
s(S'Contingency.Cause.2'
p1857
Ntp1858
F0.019230769230769232
s(S'Temporal.Asynchronous.1'
p1859
S'Expansion.Conjunction.2'
p1860
tp1861
F0.0019230769230769232
s(Ng1833
tp1862
F0.026923076923076925
s(Ng1847
tp1863
F0.13043478260869565
s(NS'Comparison.Contrast.1'
p1864
tp1865
F0.026923076923076925
s(g1849
g1854
tp1866
F0.0019230769230769232
s(S'Expansion.Conjunction.2'
p1867
Ntp1868
F0.011538461538461539
s(S'Comparison.Contrast.1'
p1869
S'Expansion.Conjunction.1'
p1870
tp1871
F0.0019230769230769232
s(S'Temporal.Asynchronous.1'
p1872
g1870
tp1873
F0.0019230769230769232
s(S'Temporal.Asynchronous.2'
p1874
S'Expansion.Conjunction.2'
p1875
tp1876
F0.0019230769230769232
s(NS'Expansion.Conjunction.1'
p1877
tp1878
F0.0038461538461538464
s(S'Comparison.Contrast.2'
p1879
S'Contingency.Cause.2'
p1880
tp1881
F0.0019230769230769232
s(S'Comparison.Contrast.1'
p1882
S'Expansion.Conjunction.2'
p1883
tp1884
F0.0057692307692307696
s(NS'Contingency.Cause.1'
p1885
tp1886
F0.0038461538461538464
s(S'Temporal.Asynchronous.2'
p1887
Ntp1888
F0.013461538461538462
ssS'apwsE951216.0211-2-2-0.perm-13.txt.pipe'
p1889
(dp1890
sS'apwsE960106.0047-2-2-0.perm-13.txt.pipe'
p1891
(dp1892
sS'apwsE951218.0398-0-1.perm-1.txt.pipe'
p1893
(dp1894
sS'apwsE950919.0580-2-2-0.perm-12.txt.pipe'
p1895
(dp1896
sS'apwsE951024.0072-2-2-0.perm-13.txt.pipe'
p1897
(dp1898
(S'Expansion.Conjunction.1'
p1899
Ntp1900
F0.0625
s(NS'Explicit'
p1901
tp1902
F0.22916666666666666
s(NS'Comparison.Contrast.1'
p1903
tp1904
F0.10416666666666667
s(S'Explicit'
p1905
Ntp1906
F0.14583333333333334
s(g1905
g1901
tp1907
F0.041666666666666664
s(NS'Comparison.Contrast.2'
p1908
tp1909
F0.125
s(NNtp1910
F0.5833333333333334
s(S'Expansion.Conjunction.2'
p1911
S'Comparison.Contrast.1'
p1912
tp1913
F0.020833333333333332
s(S'Expansion.Conjunction.2'
p1914
Ntp1915
F0.08333333333333333
s(S'Expansion.Conjunction.1'
p1916
S'Comparison.Contrast.2'
p1917
tp1918
F0.020833333333333332
ssS'apwsE960207.0018-2-2-0.perm-1.txt.pipe'
p1919
(dp1920
(S'Explicit'
p1921
S'Explicit'
p1922
tp1923
F0.03333333333333333
s(S'Expansion.Conjunction.1'
p1924
Ntp1925
F0.4411764705882353
s(Ng1922
tp1926
F0.16666666666666666
s(NS'Comparison.Contrast.1'
p1927
tp1928
F0.11764705882352941
s(g1921
Ntp1929
F0.5
s(S'Expansion.Conjunction.1'
p1930
S'Comparison.Contrast.1'
p1931
tp1932
F0.029411764705882353
s(NS'Comparison.Contrast.2'
p1933
tp1934
F0.029411764705882353
s(NNtp1935
F0.3
s(NS'Expansion.Conjunction.2'
p1936
tp1937
F0.11764705882352941
ssS'apwsE951221.0001-0-1.perm-10.txt.pipe'
p1938
(dp1939
sS'apwsE951001.0302-2-2-0.perm-1.txt.pipe'
p1940
(dp1941
(S'.1'
p1942
Ntp1943
F0.048431480462300495
s(S'Implicit'
p1944
Ntp1945
F0.006622516556291391
s(S'Expansion.Conjunction.1'
p1946
Ntp1947
F0.006053935057787562
s(S'EntRel'
p1948
Ntp1949
F0.07344972907886815
s(g1944
S'Implicit'
p1950
tp1951
F0.0006020469596628537
s(S'Temporal.Asynchronous.1'
p1952
Ntp1953
F0.003302146395156852
s(S'Expansion.Conjunction.2'
p1954
S'Expansion.Conjunction.2'
p1955
tp1956
F0.000550357732526142
s(S'Temporal.Asynchronous.1'
p1957
S'.1'
p1958
tp1959
F0.001100715465052284
s(S'.1'
p1960
S'.1'
p1961
tp1962
F0.01100715465052284
s(NS'Expansion.Conjunction.2'
p1963
tp1964
F0.009906439185470555
s(NNtp1965
F0.7989163154726069
s(S'Temporal.Asynchronous.2'
p1966
Ntp1967
F0.00275178866263071
s(Ng1948
tp1968
F0.06321493076459964
s(S'EntRel'
p1969
g1944
tp1970
F0.0012040939193257074
s(Ng1942
tp1971
F0.04072647220693451
s(S'.2'
p1972
g1961
tp1973
F0.00550357732526142
s(S'.2'
p1974
g1954
tp1975
F0.000550357732526142
s(Ng1944
tp1976
F0.013847080072245636
s(S'.1'
p1977
S'Expansion.Conjunction.1'
p1978
tp1979
F0.000550357732526142
s(NS'.2'
p1980
tp1981
F0.056686846450192625
s(S'EntRel'
p1982
S'EntRel'
p1983
tp1984
F0.031306441902468396
s(S'Explicit'
p1985
Ntp1986
F0.006622516556291391
s(S'.2'
p1987
S'.2'
p1988
tp1989
F0.017611447440836543
s(S'Expansion.Conjunction.2'
p1990
Ntp1991
F0.00275178866263071
s(S'Temporal.Asynchronous.2'
p1992
S'.2'
p1993
tp1994
F0.00275178866263071
s(Ng1946
tp1995
F0.00550357732526142
s(g1980
Ntp1996
F0.05393505778756191
s(g1985
g1982
tp1997
F0.004214328717639976
ssS'apwsE960102.0206-0-1.perm-10.txt.pipe'
p1998
(dp1999
sS'apwsE960313.0024-2-2-0.perm-10.txt.pipe'
p2000
(dp2001
sS'apwsE951201.0003-2-2-0.perm-10.txt.pipe'
p2002
(dp2003
sS'apwsE951222.0206-2-2-0.perm-13.txt.pipe'
p2004
(dp2005
(S'.1'
p2006
Ntp2007
F0.10451977401129943
s(NS'.2'
p2008
tp2009
F0.1807909604519774
s(S'.2'
p2010
S'.2'
p2011
tp2012
F0.05367231638418079
s(S'EntRel'
p2013
Ntp2014
F0.15862068965517243
s(S'EntRel'
p2015
S'EntRel'
p2016
tp2017
F0.07586206896551724
s(S'.1'
p2018
S'.1'
p2019
tp2020
F0.00847457627118644
s(NNtp2021
F0.5413793103448276
s(Ng2013
tp2022
F0.22413793103448276
s(g2008
Ntp2023
F0.11016949152542373
s(NS'.1'
p2024
tp2025
F0.09322033898305085
s(S'.2'
p2026
g2019
tp2027
F0.005649717514124294
ssS'apwsE950827.0035-2-2-0.perm-12.txt.pipe'
p2028
(dp2029
sS'apwsE950827.0022-2-2-0.perm-13.txt.pipe'
p2030
(dp2031
(S'Contingency.Cause.1'
p2032
Ntp2033
F0.05555555555555555
s(S'Explicit'
p2034
S'Explicit'
p2035
tp2036
F0.07692307692307693
s(NS'Temporal.Asynchronous.2'
p2037
tp2038
F0.16666666666666666
s(NS'Temporal.Asynchronous.1'
p2039
tp2040
F0.08333333333333333
s(NS'Comparison.Contrast.1'
p2041
tp2042
F0.16666666666666666
s(g2034
Ntp2043
F0.46153846153846156
s(S'Contingency.Cause.2'
p2044
S'Comparison.Contrast.1'
p2045
tp2046
F0.027777777777777776
s(NS'Comparison.Contrast.2'
p2047
tp2048
F0.16666666666666666
s(g2044
S'Temporal.Asynchronous.2'
p2049
tp2050
F0.027777777777777776
s(NS'Explicit'
p2051
tp2052
F0.46153846153846156
s(S'Contingency.Cause.2'
p2053
Ntp2054
F0.2777777777777778
s(S'Contingency.Cause.1'
p2055
S'Comparison.Contrast.2'
p2056
tp2057
F0.027777777777777776
ssS'apwsE951009.0226-2-2-0.perm-12.txt.pipe'
p2058
(dp2059
sS'apwsE951201.0010-0-1.perm-1.txt.pipe'
p2060
(dp2061
sS'apwsE950905.0546-2-2-0.perm-10.txt.pipe'
p2062
(dp2063
sS'apwsE951201.0003-2-2-0.perm-12.txt.pipe'
p2064
(dp2065
sS'apwsE951218.0398-0-1.perm-10.txt.pipe'
p2066
(dp2067
sS'apwsE951201.0003-2-2-0.perm-1.txt.pipe'
p2068
(dp2069
sS'apwsE951023.0362-2-2-0.perm-12.txt.pipe'
p2070
(dp2071
sS'apwsE951215.0060-2-2-0.perm-11.txt.pipe'
p2072
(dp2073
sS'apwsE951101.0026-0-1.perm-13.txt.pipe'
p2074
(dp2075
sS'apwsE951009.0226-2-2-0.perm-11.txt.pipe'
p2076
(dp2077
sS'apwsE951122.0004-0-1.perm-1.txt.pipe'
p2078
(dp2079
sS'apwsE951009.0244-2-2-0.perm-10.txt.pipe'
p2080
(dp2081
(S'Contingency.Cause.1'
p2082
Ntp2083
F0.011711125569290826
s(S'Implicit'
p2084
Ntp2085
F0.010901162790697675
s(S'Comparison.Contrast.2'
p2086
Ntp2087
F0.007807417046193884
s(S'.2'
p2088
S'.2'
p2089
tp2090
F0.01236174365647365
s(Ng2086
tp2091
F0.011060507482108002
s(S'.1'
p2092
S'.1'
p2093
tp2094
F0.0032530904359141183
s(NS'Expansion.Conjunction.2'
p2095
tp2096
F0.011711125569290826
s(S'.1'
p2097
Ntp2098
F0.04163955757970072
s(S'Comparison.Contrast.2'
p2099
S'.1'
p2100
tp2101
F0.0013012361743656475
s(S'Comparison.Contrast.1'
p2102
Ntp2103
F0.009108653220559532
s(g2084
S'Explicit'
p2104
tp2105
F0.0007267441860465116
s(S'Contingency.Cause.2'
p2106
Ntp2107
F0.009108653220559532
s(S'EntRel'
p2108
S'Implicit'
p2109
tp2110
F0.0007267441860465116
s(g2084
g2109
tp2111
F0.0014534883720930232
s(NS'.2'
p2112
tp2113
F0.057905009759271306
s(NS'Contingency.Cause.2'
p2114
tp2115
F0.02277163305139883
s(S'Contingency.Cause.2'
p2116
S'.2'
p2117
tp2118
F0.001951854261548471
s(Ng2102
tp2119
F0.0071567989590110605
s(S'Explicit'
p2120
Ntp2121
F0.02180232558139535
s(S'Comparison.Contrast.2'
p2122
S'.2'
p2123
tp2124
F0.004554326610279766
s(S'Expansion.Conjunction.2'
p2125
Ntp2126
F0.002602472348731295
s(NS'Expansion.Conjunction.1'
p2127
tp2128
F0.00520494469746259
s(g2104
g2109
tp2129
F0.0007267441860465116
s(S'Contingency.Cause.1'
p2130
S'Expansion.Conjunction.1'
p2131
tp2132
F0.0006506180871828237
s(S'Contingency.Cause.2'
p2133
S'Contingency.Cause.2'
p2134
tp2135
F0.0006506180871828237
s(S'.2'
p2136
g2116
tp2137
F0.0013012361743656475
s(S'Expansion.Conjunction.1'
p2138
Ntp2139
F0.0032530904359141183
s(S'EntRel'
p2140
Ntp2141
F0.057412790697674417
s(S'Implicit'
p2142
S'EntRel'
p2143
tp2144
F0.0007267441860465116
s(g2092
g2099
tp2145
F0.0006506180871828237
s(g2130
S'Contingency.Cause.1'
p2146
tp2147
F0.0006506180871828237
s(NNtp2148
F0.7521802325581395
s(Ng2097
tp2149
F0.03643461288223813
s(Ng2140
tp2150
F0.06613372093023256
s(S'.1'
p2151
S'Contingency.Cause.1'
p2152
tp2153
F0.0006506180871828237
s(Ng2109
tp2154
F0.024709302325581394
s(S'.2'
p2155
S'.1'
p2156
tp2157
F0.001951854261548471
s(g2136
S'Comparison.Contrast.2'
p2158
tp2159
F0.0013012361743656475
s(g2143
S'EntRel'
p2160
tp2161
F0.01744186046511628
s(Ng2120
tp2162
F0.036337209302325583
s(S'EntRel'
p2163
S'Explicit'
p2164
tp2165
F0.003633720930232558
s(S'.2'
p2166
g2146
tp2167
F0.0006506180871828237
s(g2151
S'Comparison.Contrast.1'
p2168
tp2169
F0.0006506180871828237
s(g2095
g2134
tp2170
F0.0006506180871828237
s(g2166
g2131
tp2171
F0.0006506180871828237
s(g2112
Ntp2172
F0.04424202992843201
s(g2164
S'EntRel'
p2173
tp2174
F0.005087209302325582
s(Ng2082
tp2175
F0.011060507482108002
ssS'apwsE960108.0238-2-2-0.perm-12.txt.pipe'
p2176
(dp2177
(NS'Implicit'
p2178
tp2179
F0.10576923076923077
s(g2178
Ntp2180
F0.17307692307692307
s(S'.1'
p2181
S'Expansion.Conjunction.1'
p2182
tp2183
F0.038461538461538464
s(NS'.2'
p2184
tp2185
F0.11538461538461539
s(S'Expansion.Conjunction.1'
p2186
Ntp2187
F0.08653846153846154
s(S'EntRel'
p2188
Ntp2189
F0.17307692307692307
s(g2178
S'EntRel'
p2190
tp2191
F0.009615384615384616
s(NNtp2192
F0.2980769230769231
s(NS'Expansion.Conjunction.2'
p2193
tp2194
F0.057692307692307696
s(S'.1'
p2195
Ntp2196
F0.11538461538461539
s(S'Expansion.Conjunction.2'
p2197
Ntp2198
F0.08653846153846154
s(S'Expansion.Conjunction.2'
p2199
S'.2'
p2200
tp2201
F0.009615384615384616
s(Ng2188
tp2202
F0.16346153846153846
s(Ng2186
tp2203
F0.04807692307692308
s(g2184
Ntp2204
F0.057692307692307696
s(g2188
g2178
tp2205
F0.07692307692307693
s(NS'.1'
p2206
tp2207
F0.04807692307692308
s(S'.2'
p2208
g2197
tp2209
F0.038461538461538464
ssS'apwsE951010.0087-2-2-0.perm-10.txt.pipe'
p2210
(dp2211
(S'Temporal.Asynchronous.2'
p2212
S'Comparison.Contrast.2'
p2213
tp2214
F0.004893964110929853
s(S'Comparison.Contrast.2'
p2215
Ntp2216
F0.03425774877650897
s(NS'Temporal.Asynchronous.1'
p2217
tp2218
F0.008156606851549755
s(S'Temporal.Asynchronous.1'
p2219
Ntp2220
F0.008156606851549755
s(S'Explicit'
p2221
S'Explicit'
p2222
tp2223
F0.02413793103448276
s(NS'Comparison.Contrast.2'
p2224
tp2225
F0.03588907014681892
s(NNtp2226
F0.7344827586206897
s(S'Comparison.Contrast.1'
p2227
Ntp2228
F0.053833605220228384
s(NS'Temporal.Synchrony.1'
p2229
tp2230
F0.013050570962479609
s(S'Temporal.Asynchronous.2'
p2231
Ntp2232
F0.01631321370309951
s(S'Temporal.Synchrony.1'
p2233
Ntp2234
F0.013050570962479609
s(S'Temporal.Synchrony.1'
p2235
S'Comparison.Contrast.1'
p2236
tp2237
F0.0016313213703099511
s(S'Temporal.Synchrony.2'
p2238
Ntp2239
F0.022838499184339316
s(NS'Temporal.Asynchronous.2'
p2240
tp2241
F0.021207177814029365
s(Ng2222
tp2242
F0.12241379310344827
s(Ng2227
tp2243
F0.011419249592169658
s(g2222
Ntp2244
F0.11896551724137931
s(S'Comparison.Contrast.2'
p2245
S'Temporal.Asynchronous.2'
p2246
tp2247
F0.0016313213703099511
s(S'Temporal.Synchrony.2'
p2248
S'Comparison.Contrast.2'
p2249
tp2250
F0.01468189233278956
s(Ng2238
tp2251
F0.04404567699836868
ssS'apwsE951001.0242-2-2-0.perm-13.txt.pipe'
p2252
(dp2253
sS'apwsE950425.0109-0-1.perm-10.txt.pipe'
p2254
(dp2255
sS'apwsE950213.0175-0-1.perm-1.txt.pipe'
p2256
(dp2257
sS'apwsE960102.0206-0-1.perm-13.txt.pipe'
p2258
(dp2259
sS'apwsE951001.0257-2-2-0.perm-1.txt.pipe'
p2260
(dp2261
(S'.1'
p2262
Ntp2263
F0.07205452775073028
s(S'Implicit'
p2264
Ntp2265
F0.006600660066006601
s(NS'EntRel'
p2266
tp2267
F0.09130913091309131
s(S'.2'
p2268
S'.2'
p2269
tp2270
F0.019474196689386564
s(g2266
Ntp2271
F0.11001100110011001
s(S'Temporal.Asynchronous.1'
p2272
Ntp2273
F0.005842259006815969
s(S'Temporal.Asynchronous.1'
p2274
S'.1'
p2275
tp2276
F0.0019474196689386564
s(S'.1'
p2277
S'.1'
p2278
tp2279
F0.013631937682570594
s(NS'Expansion.Conjunction.2'
p2280
tp2281
F0.013631937682570594
s(NNtp2282
F0.693069306930693
s(S'Explicit'
p2283
g2264
tp2284
F0.0011001100110011
s(S'Temporal.Asynchronous.2'
p2285
Ntp2286
F0.004868549172346641
s(Ng2262
tp2287
F0.05939629990262902
s(S'EntRel'
p2288
g2264
tp2289
F0.0022002200220022
s(S'Expansion.Conjunction.2'
p2290
g2269
tp2291
F0.0038948393378773127
s(S'.2'
p2292
g2278
tp2293
F0.004868549172346641
s(S'.2'
p2294
S'Expansion.Conjunction.2'
p2295
tp2296
F0.0009737098344693282
s(Ng2264
tp2297
F0.011001100110011002
s(S'.1'
p2298
S'Expansion.Conjunction.1'
p2299
tp2300
F0.0029211295034079843
s(NS'.2'
p2301
tp2302
F0.07887049659201557
s(S'EntRel'
p2303
g2288
tp2304
F0.0374037403740374
s(Ng2283
tp2305
F0.0121012101210121
s(S'Explicit'
p2306
Ntp2307
F0.020902090209020903
s(S'Expansion.Conjunction.1'
p2308
Ntp2309
F0.008763388510223954
s(g2303
g2283
tp2310
F0.0022002200220022
s(S'Expansion.Conjunction.2'
p2311
Ntp2312
F0.004868549172346641
s(S'Temporal.Asynchronous.2'
p2313
S'.2'
p2314
tp2315
F0.004868549172346641
s(Ng2308
tp2316
F0.006815968841285297
s(g2301
Ntp2317
F0.07789678675754626
s(g2283
g2288
tp2318
F0.0121012101210121
s(g2299
S'Expansion.Conjunction.1'
p2319
tp2320
F0.0009737098344693282
ssS'apwsE950620.0596-0-1.perm-1.txt.pipe'
p2321
(dp2322
sS'apwsE960508.0041-2-2-0.perm-1.txt.pipe'
p2323
(dp2324
sS'apwsE951024.0123-2-2-0.perm-11.txt.pipe'
p2325
(dp2326
(S'Comparison.Contrast.2'
p2327
Ntp2328
F0.03205128205128205
s(S'Expansion.Conjunction.1'
p2329
S'Comparison.Concession.2'
p2330
tp2331
F0.00641025641025641
s(S'Expansion.Conjunction.1'
p2332
Ntp2333
F0.03205128205128205
s(NS'Explicit'
p2334
tp2335
F0.21153846153846154
s(NS'Comparison.Contrast.1'
p2336
tp2337
F0.038461538461538464
s(S'Explicit'
p2338
Ntp2339
F0.14743589743589744
s(S'Explicit'
p2340
S'Explicit'
p2341
tp2342
F0.01282051282051282
s(NS'Comparison.Contrast.2'
p2343
tp2344
F0.04487179487179487
s(NNtp2345
F0.6282051282051282
s(NS'Expansion.Conjunction.2'
p2346
tp2347
F0.019230769230769232
s(g2346
Ntp2348
F0.03205128205128205
s(S'Comparison.Contrast.1'
p2349
Ntp2350
F0.05128205128205128
s(NS'Comparison.Concession.1'
p2351
tp2352
F0.04487179487179487
s(NS'Expansion.Conjunction.1'
p2353
tp2354
F0.01282051282051282
s(NS'Comparison.Concession.2'
p2355
tp2356
F0.05128205128205128
s(S'Expansion.Conjunction.2'
p2357
S'Comparison.Concession.1'
p2358
tp2359
F0.00641025641025641
ssS'apwsE950919.0202-2-2-0.perm-1.txt.pipe'
p2360
(dp2361
sS'apwsE960313.0036-2-2-0.perm-11.txt.pipe'
p2362
(dp2363
sS'apwsE950914.0074-0-1.perm-12.txt.pipe'
p2364
(dp2365
sS'apwsE951020.0430-2-2-0.perm-12.txt.pipe'
p2366
(dp2367
(S'Comparison.Contrast.2'
p2368
S'Expansion.Conjunction.2'
p2369
tp2370
F0.009950248756218905
s(S'Comparison.Contrast.2'
p2371
Ntp2372
F0.06467661691542288
s(S'Expansion.Conjunction.1'
p2373
Ntp2374
F0.08955223880597014
s(NS'Explicit'
p2375
tp2376
F0.1638418079096045
s(NS'Comparison.Contrast.1'
p2377
tp2378
F0.03980099502487562
s(S'Explicit'
p2379
Ntp2380
F0.1751412429378531
s(g2379
S'Explicit'
p2381
tp2382
F0.01694915254237288
s(NS'Comparison.Contrast.2'
p2383
tp2384
F0.024875621890547265
s(NNtp2385
F0.6440677966101694
s(NS'Expansion.Conjunction.2'
p2386
tp2387
F0.10945273631840796
s(S'Comparison.Contrast.1'
p2388
Ntp2389
F0.05970149253731343
s(NS'Contingency.Condition.2'
p2390
tp2391
F0.014925373134328358
s(NS'Contingency.Condition.1'
p2392
tp2393
F0.014925373134328358
s(S'Comparison.Contrast.2'
p2394
S'Contingency.Condition.2'
p2395
tp2396
F0.004975124378109453
ssS'apwsE951003.0004-2-2-0.perm-13.txt.pipe'
p2397
(dp2398
(S'.1'
p2399
Ntp2400
F0.06736526946107785
s(NS'EntRel'
p2401
tp2402
F0.11147540983606558
s(S'Expansion.Conjunction.1'
p2403
Ntp2404
F0.010479041916167664
s(g2401
Ntp2405
F0.10819672131147541
s(NNtp2406
F0.6770491803278689
s(NS'Expansion.Conjunction.2'
p2407
tp2408
F0.02694610778443114
s(S'.1'
p2409
S'.1'
p2410
tp2411
F0.005988023952095809
s(S'Expansion.Conjunction.1'
p2412
S'.1'
p2413
tp2414
F0.0014970059880239522
s(Ng2399
tp2415
F0.058383233532934134
s(g2407
S'.2'
p2416
tp2417
F0.005988023952095809
s(S'.2'
p2418
S'.1'
p2419
tp2420
F0.005988023952095809
s(S'.1'
p2421
S'Expansion.Conjunction.1'
p2422
tp2423
F0.0014970059880239522
s(NS'.2'
p2424
tp2425
F0.08682634730538923
s(S'EntRel'
p2426
S'EntRel'
p2427
tp2428
F0.03114754098360656
s(NS'Explicit'
p2429
tp2430
F0.036065573770491806
s(g2429
Ntp2431
F0.02459016393442623
s(S'.2'
p2432
S'.2'
p2433
tp2434
F0.020958083832335328
s(S'EntRel'
p2435
g2429
tp2436
F0.001639344262295082
s(S'Expansion.Conjunction.2'
p2437
Ntp2438
F0.011976047904191617
s(S'Expansion.Conjunction.2'
p2439
g2410
tp2440
F0.0014970059880239522
s(NS'Expansion.Conjunction.1'
p2441
tp2442
F0.005988023952095809
s(g2424
Ntp2443
F0.07035928143712575
s(g2429
g2401
tp2444
F0.009836065573770493
ssS'apwsE950925.0091-0-1.perm-12.txt.pipe'
p2445
(dp2446
(NS'Explicit'
p2447
tp2448
F0.875
s(g2447
Ntp2449
F0.125
s(NS'Expansion.Conjunction.2'
p2450
tp2451
F0.875
s(S'Expansion.Conjunction.1'
p2452
Ntp2453
F0.125
ssS'apwsE951024.0123-2-2-0.perm-12.txt.pipe'
p2454
(dp2455
(S'Comparison.Contrast.2'
p2456
Ntp2457
F0.03205128205128205
s(S'Expansion.Conjunction.1'
p2458
S'Comparison.Concession.2'
p2459
tp2460
F0.00641025641025641
s(S'Expansion.Conjunction.1'
p2461
Ntp2462
F0.03205128205128205
s(NS'Explicit'
p2463
tp2464
F0.23076923076923078
s(NS'Comparison.Contrast.1'
p2465
tp2466
F0.038461538461538464
s(S'Comparison.Contrast.1'
p2467
S'Expansion.Conjunction.2'
p2468
tp2469
F0.00641025641025641
s(S'Explicit'
p2470
S'Explicit'
p2471
tp2472
F0.019230769230769232
s(NS'Comparison.Contrast.2'
p2473
tp2474
F0.04487179487179487
s(NNtp2475
F0.6089743589743589
s(NS'Expansion.Conjunction.2'
p2476
tp2477
F0.02564102564102564
s(S'Expansion.Conjunction.2'
p2478
Ntp2479
F0.03205128205128205
s(S'Comparison.Contrast.1'
p2480
Ntp2481
F0.04487179487179487
s(NS'Comparison.Concession.1'
p2482
tp2483
F0.04487179487179487
s(NS'Expansion.Conjunction.1'
p2484
tp2485
F0.02564102564102564
s(NS'Comparison.Concession.2'
p2486
tp2487
F0.05128205128205128
s(S'Explicit'
p2488
Ntp2489
F0.14102564102564102
s(S'Expansion.Conjunction.2'
p2490
S'Comparison.Concession.1'
p2491
tp2492
F0.00641025641025641
ssS'apwsE960303.0090-2-2-0.perm-11.txt.pipe'
p2493
(dp2494
sS'apwsE950112.0297-0-1.perm-10.txt.pipe'
p2495
(dp2496
sS'apwsE951001.0328-2-2-0.perm-11.txt.pipe'
p2497
(dp2498
sS'apwsE951001.0328-2-2-0.perm-1.txt.pipe'
p2499
(dp2500
(NS'EntRel'
p2501
tp2502
F0.375
s(NS'.2'
p2503
tp2504
F0.375
s(g2501
Ntp2505
F0.2
s(NNtp2506
F0.425
s(S'.1'
p2507
Ntp2508
F0.2
ssS'apwsE950424.0128-0-1.perm-11.txt.pipe'
p2509
(dp2510
sS'apwsE951108.0165-2-2-0.perm-12.txt.pipe'
p2511
(dp2512
(S'Expansion.Conjunction.2'
p2513
Ntp2514
F0.03888888888888889
s(S'Comparison.Contrast.1'
p2515
Ntp2516
F0.03888888888888889
s(S'Expansion.Conjunction.1'
p2517
Ntp2518
F0.07222222222222222
s(NS'Explicit'
p2519
tp2520
F0.18888888888888888
s(Ng2515
tp2521
F0.03888888888888889
s(S'Explicit'
p2522
Ntp2523
F0.15
s(NS'Comparison.Contrast.2'
p2524
tp2525
F0.08333333333333333
s(NNtp2526
F0.6611111111111111
s(NS'Expansion.Conjunction.2'
p2527
tp2528
F0.06666666666666667
ssS'apwsE951221.0056-2-2-0.perm-13.txt.pipe'
p2529
(dp2530
sS'apwsE951221.0049-2-2-0.perm-10.txt.pipe'
p2531
(dp2532
sS'apwsE960303.0090-2-2-0.perm-10.txt.pipe'
p2533
(dp2534
sS'apwsE950919.0580-2-2-0.perm-13.txt.pipe'
p2535
(dp2536
sS'apwsE951221.0049-2-2-0.perm-12.txt.pipe'
p2537
(dp2538
sS'apwsE960221.0036-0-1.perm-12.txt.pipe'
p2539
(dp2540
sS'apwsE960303.0079-2-2-0.perm-11.txt.pipe'
p2541
(dp2542
sS'apwsE951221.0001-0-1.perm-1.txt.pipe'
p2543
(dp2544
sS'apwsE951009.0244-2-2-0.perm-1.txt.pipe'
p2545
(dp2546
(S'Contingency.Cause.1'
p2547
Ntp2548
F0.005707762557077625
s(NS'Expansion.Instantiation.2'
p2549
tp2550
F0.005707762557077625
s(S'Expansion.Instantiation.2'
p2551
S'.1'
p2552
tp2553
F0.000380517503805175
s(S'Comparison.Contrast.2'
p2554
Ntp2555
F0.00380517503805175
s(S'.2'
p2556
S'.2'
p2557
tp2558
F0.01598173515981735
s(S'.1'
p2559
S'Expansion.Conjunction.2'
p2560
tp2561
F0.000380517503805175
s(Ng2554
tp2562
F0.004946727549467275
s(S'.1'
p2563
S'.1'
p2564
tp2565
F0.003424657534246575
s(NS'Expansion.Conjunction.2'
p2566
tp2567
F0.011035007610350075
s(S'.1'
p2568
Ntp2569
F0.03614916286149163
s(S'Comparison.Contrast.1'
p2570
Ntp2571
F0.0045662100456621
s(S'Implicit'
p2572
S'Explicit'
p2573
tp2574
F0.00040666937779585197
s(S'Implicit'
p2575
Ntp2576
F0.02074013826758845
s(S'Contingency.Cause.2'
p2577
Ntp2578
F0.00228310502283105
s(g2549
Ntp2579
F0.003424657534246575
s(S'EntRel'
p2580
S'Implicit'
p2581
tp2582
F0.0016266775111834079
s(Ng2575
tp2583
F0.019926799511996746
s(Ng2556
tp2584
F0.04908675799086758
s(Ng2577
tp2585
F0.0045662100456621
s(Ng2570
tp2586
F0.004185692541856925
s(S'Explicit'
p2587
Ntp2588
F0.014233428222854819
s(S'Comparison.Contrast.2'
p2589
S'.2'
p2590
tp2591
F0.001141552511415525
s(S'Expansion.Conjunction.2'
p2592
Ntp2593
F0.007229832572298325
s(NS'Expansion.Conjunction.1'
p2594
tp2595
F0.003424657534246575
s(S'Comparison.Contrast.2'
p2596
S'Contingency.Cause.2'
p2597
tp2598
F0.001141552511415525
s(S'Contingency.Cause.2'
p2599
g2597
tp2600
F0.001141552511415525
s(S'.2'
p2601
S'Comparison.Contrast.1'
p2602
tp2603
F0.000380517503805175
s(S'.2'
p2604
g2599
tp2605
F0.001902587519025875
s(g2594
Ntp2606
F0.007229832572298325
s(g2580
Ntp2607
F0.06222041480276535
s(g2575
S'EntRel'
p2608
tp2609
F0.0036600244001626678
s(S'.1'
p2610
S'Comparison.Contrast.2'
p2611
tp2612
F0.000380517503805175
s(S'Expansion.Conjunction.2'
p2613
S'Expansion.Conjunction.2'
p2614
tp2615
F0.000380517503805175
s(NNtp2616
F0.76372509150061
s(Ng2568
tp2617
F0.03614916286149163
s(S'Explicit'
p2618
g2581
tp2619
F0.0012200081333875558
s(NS'Temporal.Synchrony.1'
p2620
tp2621
F0.000380517503805175
s(S'Expansion.Conjunction.1'
p2622
g2564
tp2623
F0.001902587519025875
s(NS'EntRel'
p2624
tp2625
F0.06059373729158194
s(S'.1'
p2626
S'Contingency.Cause.1'
p2627
tp2628
F0.000380517503805175
s(S'Expansion.Instantiation.2'
p2629
S'.2'
p2630
tp2631
F0.001902587519025875
s(g2566
S'.2'
p2632
tp2633
F0.0045662100456621
s(S'.2'
p2634
g2564
tp2635
F0.0015220700152207
s(g2604
g2596
tp2636
F0.00076103500761035
s(NS'Expansion.Instantiation.1'
p2637
tp2638
F0.00076103500761035
s(g2637
Ntp2639
F0.00076103500761035
s(g2624
g2580
tp2640
F0.02074013826758845
s(Ng2587
tp2641
F0.021960146400976006
s(S'EntRel'
p2642
S'Explicit'
p2643
tp2644
F0.0020333468889792597
s(g2601
g2627
tp2645
F0.000380517503805175
s(g2626
g2602
tp2646
F0.000380517503805175
s(g2557
Ntp2647
F0.0487062404870624
s(S'Explicit'
p2648
S'EntRel'
p2649
tp2650
F0.0069133794225294835
s(NS'Temporal.Synchrony.2'
p2651
tp2652
F0.0015220700152207
s(Ng2547
tp2653
F0.00532724505327245
ssS'apwsE951018.0182-2-2-0.perm-12.txt.pipe'
p2654
(dp2655
sS'apwsE951215.0060-2-2-0.perm-10.txt.pipe'
p2656
(dp2657
(S'Expansion.Conjunction.2'
p2658
Ntp2659
F0.4375
s(NS'Explicit'
p2660
tp2661
F0.375
s(NS'Contingency.Condition.2'
p2662
tp2663
F0.1875
s(S'Expansion.Conjunction.1'
p2664
Ntp2665
F0.1875
s(NS'Contingency.Condition.1'
p2666
tp2667
F0.1875
s(S'Explicit'
p2668
Ntp2669
F0.625
ssS'apwsE950119.0186-0-1.perm-13.txt.pipe'
p2670
(dp2671
sS'apwsE960207.0018-2-2-0.perm-11.txt.pipe'
p2672
(dp2673
(S'Comparison.Contrast.2'
p2674
Ntp2675
F0.07352941176470588
s(S'Expansion.Conjunction.1'
p2676
Ntp2677
F0.25
s(S'Comparison.Contrast.2'
p2678
S'Expansion.Conjunction.1'
p2679
tp2680
F0.014705882352941176
s(NS'Comparison.Contrast.1'
p2681
tp2682
F0.058823529411764705
s(S'Explicit'
p2683
Ntp2684
F0.421875
s(S'Explicit'
p2685
g2683
tp2686
F0.03125
s(NS'Comparison.Contrast.2'
p2687
tp2688
F0.014705882352941176
s(NNtp2689
F0.203125
s(NS'Expansion.Conjunction.2'
p2690
tp2691
F0.058823529411764705
s(S'Comparison.Contrast.1'
p2692
Ntp2693
F0.07352941176470588
s(NS'Explicit'
p2694
tp2695
F0.34375
s(Ng2676
tp2696
F0.25
s(g2679
S'Comparison.Contrast.1'
p2697
tp2698
F0.014705882352941176
ssS'apwsE951221.0056-2-2-0.perm-12.txt.pipe'
p2699
(dp2700
sS'apwsE951009.0278-2-2-0.perm-1.txt.pipe'
p2701
(dp2702
(S'Contingency.Cause.1'
p2703
Ntp2704
F0.056338028169014086
s(S'Explicit'
p2705
S'Explicit'
p2706
tp2707
F0.04918032786885246
s(S'Comparison.Contrast.2'
p2708
Ntp2709
F0.06338028169014084
s(S'Expansion.Conjunction.1'
p2710
Ntp2711
F0.06338028169014084
s(Ng2706
tp2712
F0.10655737704918032
s(g2705
Ntp2713
F0.22131147540983606
s(S'Expansion.Conjunction.2'
p2714
S'Expansion.Conjunction.2'
p2715
tp2716
F0.04225352112676056
s(NNtp2717
F0.6229508196721312
s(NS'Expansion.Conjunction.2'
p2718
tp2719
F0.056338028169014086
s(S'Expansion.Conjunction.2'
p2720
Ntp2721
F0.02112676056338028
s(S'Comparison.Contrast.1'
p2722
Ntp2723
F0.06338028169014084
s(NS'Temporal.Synchrony.1'
p2724
tp2725
F0.007042253521126761
s(S'Contingency.Cause.2'
p2726
Ntp2727
F0.06338028169014084
s(NS'Temporal.Synchrony.2'
p2728
tp2729
F0.028169014084507043
ssS'apwsE951010.0048-2-2-0.perm-1.txt.pipe'
p2730
(dp2731
(S'Temporal.Synchrony.2'
p2732
Ntp2733
F0.006462035541195477
s(S'Temporal.Asynchronous.2'
p2734
S'Comparison.Contrast.2'
p2735
tp2736
F0.0016155088852988692
s(S'Comparison.Contrast.2'
p2737
Ntp2738
F0.012924071082390954
s(S'Expansion.Conjunction.1'
p2739
Ntp2740
F0.011308562197092083
s(NS'Explicit'
p2741
tp2742
F0.09830508474576272
s(NS'Comparison.Contrast.1'
p2743
tp2744
F0.012924071082390954
s(S'Temporal.Asynchronous.1'
p2745
Ntp2746
F0.014539579967689823
s(S'Explicit'
p2747
S'Explicit'
p2748
tp2749
F0.001694915254237288
s(NS'Comparison.Contrast.2'
p2750
tp2751
F0.04038772213247173
s(NNtp2752
F0.8203389830508474
s(S'Expansion.Conjunction.2'
p2753
Ntp2754
F0.008077544426494346
s(S'Comparison.Contrast.1'
p2755
Ntp2756
F0.04038772213247173
s(NS'Temporal.Synchrony.1'
p2757
tp2758
F0.0032310177705977385
s(S'Temporal.Asynchronous.2'
p2759
Ntp2760
F0.011308562197092083
s(S'Expansion.Conjunction.2'
p2761
g2735
tp2762
F0.0016155088852988692
s(NS'Temporal.Synchrony.2'
p2763
tp2764
F0.03715670436187399
s(S'Temporal.Synchrony.1'
p2765
Ntp2766
F0.01615508885298869
s(S'Explicit'
p2767
Ntp2768
F0.07966101694915254
ssS'apwsE950827.0035-2-2-0.perm-11.txt.pipe'
p2769
(dp2770
sS'apwsE950119.0186-0-1.perm-11.txt.pipe'
p2771
(dp2772
sS'apwsE951222.0206-2-2-0.perm-11.txt.pipe'
p2773
(dp2774
(S'EntRel'
p2775
Ntp2776
F0.19594594594594594
s(S'EntRel'
p2777
g2775
tp2778
F0.04054054054054054
s(Ng2775
tp2779
F0.25675675675675674
s(NS'.2'
p2780
tp2781
F0.20652173913043478
s(S'.2'
p2782
S'.2'
p2783
tp2784
F0.03260869565217391
s(g2780
Ntp2785
F0.125
s(S'.1'
p2786
Ntp2787
F0.13043478260869565
s(NNtp2788
F0.5067567567567568
s(Ng2786
tp2789
F0.09782608695652174
ssS'apwsE960104.0037-0-1.perm-11.txt.pipe'
p2790
(dp2791
sS'apwsE951004.0060-2-2-0.perm-13.txt.pipe'
p2792
(dp2793
sS'apwsE960108.0238-2-2-0.perm-11.txt.pipe'
p2794
(dp2795
(NS'.2'
p2796
tp2797
F0.25
s(S'.2'
p2798
S'.2'
p2799
tp2800
F0.025
s(S'EntRel'
p2801
Ntp2802
F0.34375
s(g2801
S'EntRel'
p2803
tp2804
F0.0625
s(S'.1'
p2805
S'.1'
p2806
tp2807
F0.025
s(NS'.1'
p2808
tp2809
F0.1
s(Ng2801
tp2810
F0.3125
s(g2796
Ntp2811
F0.125
s(g2808
Ntp2812
F0.25
s(NNtp2813
F0.28125
ssS'apwsE960104.0037-0-1.perm-10.txt.pipe'
p2814
(dp2815
sS'apwsE950331.0603-0-1.perm-12.txt.pipe'
p2816
(dp2817
sS'apwsE960108.0194-2-2-0.perm-12.txt.pipe'
p2818
(dp2819
sS'apwsE951018.0170-2-2-0.perm-13.txt.pipe'
p2820
(dp2821
sS'apwsE951021.0001-2-2-0.perm-1.txt.pipe'
p2822
(dp2823
(S'Comparison.Contrast.2'
p2824
Ntp2825
F0.01984126984126984
s(S'Expansion.Conjunction.1'
p2826
Ntp2827
F0.04365079365079365
s(NS'Explicit'
p2828
tp2829
F0.12393162393162394
s(NS'Comparison.Contrast.1'
p2830
tp2831
F0.027777777777777776
s(S'Comparison.Contrast.2'
p2832
S'Comparison.Contrast.1'
p2833
tp2834
F0.003968253968253968
s(g2828
S'Explicit'
p2835
tp2836
F0.004273504273504274
s(Ng2824
tp2837
F0.051587301587301584
s(NNtp2838
F0.7649572649572649
s(NS'Expansion.Conjunction.2'
p2839
tp2840
F0.051587301587301584
s(g2839
Ntp2841
F0.047619047619047616
s(g2830
Ntp2842
F0.01984126984126984
s(Ng2826
tp2843
F0.01984126984126984
s(S'Expansion.Conjunction.2'
p2844
g2833
tp2845
F0.003968253968253968
s(g2828
Ntp2846
F0.10683760683760683
ssS'apwsE950822.0071-0-1.perm-10.txt.pipe'
p2847
(dp2848
sS'apwsE951024.0110-2-2-0.perm-1.txt.pipe'
p2849
(dp2850
(S'Comparison.Contrast.1'
p2851
S'Comparison.Contrast.1'
p2852
tp2853
F0.028846153846153848
s(S'Comparison.Contrast.2'
p2854
Ntp2855
F0.057692307692307696
s(S'Expansion.Conjunction.1'
p2856
Ntp2857
F0.019230769230769232
s(S'Comparison.Contrast.1'
p2858
S'Comparison.Contrast.2'
p2859
tp2860
F0.009615384615384616
s(NS'Comparison.Contrast.1'
p2861
tp2862
F0.10576923076923077
s(S'Explicit'
p2863
Ntp2864
F0.125
s(g2863
S'Explicit'
p2865
tp2866
F0.04807692307692308
s(NS'Comparison.Contrast.2'
p2867
tp2868
F0.09615384615384616
s(NNtp2869
F0.625
s(S'Expansion.Conjunction.2'
p2870
Ntp2871
F0.028846153846153848
s(S'Comparison.Contrast.1'
p2872
Ntp2873
F0.019230769230769232
s(S'Comparison.Contrast.2'
p2874
S'Comparison.Contrast.2'
p2875
tp2876
F0.009615384615384616
s(Ng2865
tp2877
F0.20192307692307693
ssS'apwsE960303.0079-2-2-0.perm-1.txt.pipe'
p2878
(dp2879
sS'apwsE951203.0078-2-2-0.perm-11.txt.pipe'
p2880
(dp2881
sS'apwsE950307.0067-0-1.perm-1.txt.pipe'
p2882
(dp2883
sS'apwsE950307.0067-0-1.perm-11.txt.pipe'
p2884
(dp2885
sS'apwsE951001.0328-2-2-0.perm-10.txt.pipe'
p2886
(dp2887
(S'Contingency.Cause.1'
p2888
Ntp2889
F0.125
s(S'Implicit'
p2890
Ntp2891
F0.125
s(NS'Contingency.Cause.2'
p2892
tp2893
F0.375
s(Ng2890
tp2894
F0.375
s(NNtp2895
F0.5
ssS'apwsE950919.0594-2-2-0.perm-11.txt.pipe'
p2896
(dp2897
sS'apwsE960216.0241-2-2-0.perm-11.txt.pipe'
p2898
(dp2899
sS'apwsE951203.0078-2-2-0.perm-12.txt.pipe'
p2900
(dp2901
(S'Comparison.Contrast.1'
p2902
Ntp2903
F0.3125
s(NS'Explicit'
p2904
tp2905
F0.375
s(S'Comparison.Contrast.2'
p2906
Ntp2907
F0.125
s(S'Comparison.Contrast.1'
p2908
S'Comparison.Contrast.2'
p2909
tp2910
F0.0625
s(NS'Comparison.Contrast.1'
p2911
tp2912
F0.0625
s(S'Comparison.Contrast.2'
p2913
S'Comparison.Contrast.1'
p2914
tp2915
F0.125
s(S'Explicit'
p2916
g2904
tp2917
F0.1875
s(NS'Comparison.Contrast.2'
p2918
tp2919
F0.3125
s(g2916
Ntp2920
F0.4375
ssS'apwsE950424.0128-0-1.perm-1.txt.pipe'
p2921
(dp2922
sS'apwsE951226.0004-2-2-0.perm-11.txt.pipe'
p2923
(dp2924
(NS'Explicit'
p2925
tp2926
F0.4827586206896552
s(g2925
Ntp2927
F0.5172413793103449
s(NS'Expansion.Conjunction.2'
p2928
tp2929
F0.4827586206896552
s(S'Expansion.Conjunction.1'
p2930
Ntp2931
F0.5172413793103449
ssS'apwsE950925.0091-0-1.perm-13.txt.pipe'
p2932
(dp2933
(NS'Explicit'
p2934
tp2935
F0.5909090909090909
s(g2934
Ntp2936
F0.4090909090909091
s(NS'Expansion.Conjunction.2'
p2937
tp2938
F0.5909090909090909
s(S'Expansion.Conjunction.1'
p2939
Ntp2940
F0.4090909090909091
ssS'apwsE951125.0054-2-2-0.perm-10.txt.pipe'
p2941
(dp2942
(S'Comparison.Contrast.1'
p2943
Ntp2944
F0.03571428571428571
s(NS'Explicit'
p2945
tp2946
F0.42857142857142855
s(g2945
Ntp2947
F0.03571428571428571
s(NS'Comparison.Contrast.2'
p2948
tp2949
F0.42857142857142855
s(NNtp2950
F0.5357142857142857
ssS'apwsE960102.0206-0-1.perm-11.txt.pipe'
p2951
(dp2952
(S'EntRel'
p2953
Ntp2954
F0.7
s(Ng2953
tp2955
F0.3
s(NS'.2'
p2956
tp2957
F0.3
s(S'.1'
p2958
Ntp2959
F0.7
ssS'apwsE951010.0087-2-2-0.perm-12.txt.pipe'
p2960
(dp2961
(S'Temporal.Synchrony.2'
p2962
Ntp2963
F0.00667779632721202
s(NS'Temporal.Asynchronous.2'
p2964
tp2965
F0.02003338898163606
s(NS'Temporal.Asynchronous.1'
p2966
tp2967
F0.005008347245409015
s(NS'Explicit'
p2968
tp2969
F0.10756302521008404
s(S'Temporal.Asynchronous.1'
p2970
Ntp2971
F0.008347245409015025
s(NS'Comparison.Contrast.2'
p2972
tp2973
F0.04006677796327212
s(NNtp2974
F0.8117647058823529
s(S'Comparison.Contrast.1'
p2975
Ntp2976
F0.021702838063439065
s(NS'Temporal.Synchrony.1'
p2977
tp2978
F0.01335559265442404
s(g2964
Ntp2979
F0.02337228714524207
s(NS'Temporal.Synchrony.2'
p2980
tp2981
F0.028380634390651086
s(S'Temporal.Synchrony.1'
p2982
Ntp2983
F0.02671118530884808
s(S'Explicit'
p2984
Ntp2985
F0.08067226890756303
ssS'apwsE951003.0485-2-2-0.perm-11.txt.pipe'
p2986
(dp2987
sS'apwsE950919.0202-2-2-0.perm-12.txt.pipe'
p2988
(dp2989
sS'apwsE951010.0048-2-2-0.perm-13.txt.pipe'
p2990
(dp2991
(S'Explicit'
p2992
S'Explicit'
p2993
tp2994
F0.00909090909090909
s(S'Comparison.Contrast.2'
p2995
Ntp2996
F0.016260162601626018
s(S'Expansion.Conjunction.1'
p2997
Ntp2998
F0.011382113821138212
s(NS'Temporal.Asynchronous.1'
p2999
tp3000
F0.00975609756097561
s(S'Temporal.Asynchronous.1'
p3001
Ntp3002
F0.016260162601626018
s(S'Temporal.Asynchronous.1'
p3003
S'Temporal.Asynchronous.1'
p3004
tp3005
F0.0016260162601626016
s(NS'Comparison.Contrast.2'
p3006
tp3007
F0.03739837398373984
s(NNtp3008
F0.7672727272727272
s(NS'Expansion.Conjunction.2'
p3009
tp3010
F0.008130081300813009
s(S'Temporal.Asynchronous.1'
p3011
S'Expansion.Conjunction.2'
p3012
tp3013
F0.0016260162601626016
s(NS'Temporal.Synchrony.1'
p3014
tp3015
F0.01951219512195122
s(S'Comparison.Contrast.2'
p3016
S'Comparison.Contrast.2'
p3017
tp3018
F0.0016260162601626016
s(g3003
S'Temporal.Synchrony.1'
p3019
tp3020
F0.0032520325203252032
s(S'Temporal.Synchrony.1'
p3021
Ntp3022
F0.03577235772357724
s(g3011
S'Temporal.Asynchronous.2'
p3023
tp3024
F0.0016260162601626016
s(S'Temporal.Synchrony.2'
p3025
Ntp3026
F0.004878048780487805
s(NS'Temporal.Asynchronous.2'
p3027
tp3028
F0.008130081300813009
s(S'Comparison.Contrast.1'
p3029
Ntp3030
F0.03577235772357724
s(NS'Explicit'
p3031
tp3032
F0.11636363636363636
s(NS'Comparison.Contrast.1'
p3033
tp3034
F0.013008130081300813
s(S'Explicit'
p3035
Ntp3036
F0.10727272727272727
s(S'Expansion.Conjunction.2'
p3037
S'Temporal.Synchrony.2'
p3038
tp3039
F0.0016260162601626016
s(g3009
Ntp3040
F0.008130081300813009
s(S'Temporal.Asynchronous.2'
p3041
g3038
tp3042
F0.0016260162601626016
s(g3003
S'Expansion.Conjunction.1'
p3043
tp3044
F0.0016260162601626016
s(S'Temporal.Synchrony.2'
p3045
g2995
tp3046
F0.0016260162601626016
s(Ng2997
tp3047
F0.00975609756097561
s(NS'Temporal.Synchrony.2'
p3048
tp3049
F0.032520325203252036
s(S'Temporal.Asynchronous.2'
p3050
Ntp3051
F0.030894308943089432
ssS'apwsE960203.0270-2-2-0.perm-12.txt.pipe'
p3052
(dp3053
sS'apwsE950827.0035-2-2-0.perm-1.txt.pipe'
p3054
(dp3055
(S'Temporal.Asynchronous.1'
p3056
S'Contingency.Cause.1'
p3057
tp3058
F0.02702702702702703
s(S'Comparison.Contrast.1'
p3059
S'Contingency.Cause.2'
p3060
tp3061
F0.02702702702702703
s(S'Comparison.Contrast.2'
p3062
Ntp3063
F0.16216216216216217
s(NS'Contingency.Cause.2'
p3064
tp3065
F0.2702702702702703
s(NS'Explicit'
p3066
tp3067
F0.4230769230769231
s(S'Temporal.Asynchronous.1'
p3068
Ntp3069
F0.08108108108108109
s(S'Explicit'
p3070
g3066
tp3071
F0.11538461538461539
s(S'Temporal.Asynchronous.2'
p3072
g3060
tp3073
F0.02702702702702703
s(S'Comparison.Contrast.1'
p3074
Ntp3075
F0.16216216216216217
s(S'Temporal.Asynchronous.2'
p3076
Ntp3077
F0.16216216216216217
s(S'Comparison.Contrast.1'
p3078
g3057
tp3079
F0.02702702702702703
s(g3070
Ntp3080
F0.46153846153846156
s(NS'Contingency.Cause.1'
p3081
tp3082
F0.02702702702702703
s(S'Comparison.Contrast.2'
p3083
S'Contingency.Cause.1'
p3084
tp3085
F0.02702702702702703
ssS'apwsE960216.0241-2-2-0.perm-12.txt.pipe'
p3086
(dp3087
sS'apwsE951106.0072-2-2-0.perm-13.txt.pipe'
p3088
(dp3089
sS'apwsE951009.0216-2-2-0.perm-13.txt.pipe'
p3090
(dp3091
sS'apwsE951020.0430-2-2-0.perm-13.txt.pipe'
p3092
(dp3093
(S'Explicit'
p3094
S'Explicit'
p3095
tp3096
F0.03888888888888889
s(S'Comparison.Contrast.2'
p3097
Ntp3098
F0.030303030303030304
s(S'Expansion.Conjunction.1'
p3099
Ntp3100
F0.06060606060606061
s(Ng3095
tp3101
F0.18333333333333332
s(NS'Comparison.Contrast.1'
p3102
tp3103
F0.04040404040404041
s(S'Explicit'
p3104
Ntp3105
F0.16111111111111112
s(Ng3099
tp3106
F0.06565656565656566
s(NS'Comparison.Contrast.2'
p3107
tp3108
F0.020202020202020204
s(NNtp3109
F0.6166666666666667
s(NS'Expansion.Conjunction.2'
p3110
tp3111
F0.11616161616161616
s(S'Expansion.Conjunction.2'
p3112
Ntp3113
F0.030303030303030304
s(S'Comparison.Contrast.1'
p3114
Ntp3115
F0.04040404040404041
s(S'Expansion.Conjunction.1'
p3116
S'Comparison.Contrast.2'
p3117
tp3118
F0.005050505050505051
s(S'Expansion.Conjunction.2'
p3119
S'Expansion.Conjunction.2'
p3120
tp3121
F0.025252525252525252
s(S'Expansion.Conjunction.1'
p3122
S'Expansion.Conjunction.1'
p3123
tp3124
F0.005050505050505051
ssS'apwsE951125.0054-2-2-0.perm-13.txt.pipe'
p3125
(dp3126
(S'Comparison.Contrast.1'
p3127
Ntp3128
F0.2647058823529412
s(NS'Explicit'
p3129
tp3130
F0.38235294117647056
s(g3129
Ntp3131
F0.2647058823529412
s(NS'Comparison.Contrast.2'
p3132
tp3133
F0.38235294117647056
s(NNtp3134
F0.35294117647058826
ssS'apwsE960109.0130-2-2-0.perm-13.txt.pipe'
p3135
(dp3136
(S'Contingency.Cause.1'
p3137
Ntp3138
F0.0007627765064836003
s(S'.2'
p3139
S'.2'
p3140
tp3141
F0.02212051868802441
s(S'EntRel'
p3142
Ntp3143
F0.10173913043478261
s(NS'Comparison.Contrast.2'
p3144
tp3145
F0.0038138825324180014
s(S'.1'
p3146
S'.1'
p3147
tp3148
F0.006102212051868803
s(S'.1'
p3149
Ntp3150
F0.07093821510297482
s(NS'EntRel'
p3151
tp3152
F0.10521739130434783
s(S'Contingency.Cause.2'
p3153
Ntp3154
F0.005339435545385202
s(g3146
g3137
tp3155
F0.0007627765064836003
s(NS'.1'
p3156
tp3157
F0.06102212051868802
s(S'.2'
p3158
g3147
tp3159
F0.0030511060259344014
s(Ng3139
tp3160
F0.09229595728451563
s(Ng3153
tp3161
F0.005339435545385202
s(NS'Explicit'
p3162
tp3163
F0.01652173913043478
s(NS'Comparison.Contrast.1'
p3164
tp3165
F0.005339435545385202
s(S'Explicit'
p3166
Ntp3167
F0.006956521739130435
s(g3151
S'EntRel'
p3168
tp3169
F0.03217391304347826
s(S'EntRel'
p3170
g3166
tp3171
F0.0008695652173913044
s(g3158
g3137
tp3172
F0.0007627765064836003
s(S'.2'
p3173
Ntp3174
F0.07627765064836003
s(NNtp3175
F0.7365217391304347
ssS'apwsE951122.0004-0-1.perm-11.txt.pipe'
p3176
(dp3177
sS'apwsE960122.0410-0-1.perm-12.txt.pipe'
p3178
(dp3179
sS'apwsE951121.0037-2-2-0.perm-1.txt.pipe'
p3180
(dp3181
(NS'Explicit'
p3182
tp3183
F0.5555555555555556
s(NS'Comparison.Contrast.2'
p3184
tp3185
F0.5555555555555556
s(NNtp3186
F0.4444444444444444
ssS'apwsE960313.0036-2-2-0.perm-13.txt.pipe'
p3187
(dp3188
sS'apwsE960122.0410-0-1.perm-11.txt.pipe'
p3189
(dp3190
(S'Comparison.Contrast.1'
p3191
Ntp3192
F0.08695652173913043
s(S'Comparison.Contrast.1'
p3193
S'Comparison.Contrast.1'
p3194
tp3195
F0.08695652173913043
s(S'Comparison.Contrast.2'
p3196
Ntp3197
F0.34782608695652173
s(NS'Explicit'
p3198
tp3199
F0.43478260869565216
s(NS'Comparison.Contrast.1'
p3200
tp3201
F0.17391304347826086
s(S'Comparison.Contrast.2'
p3202
S'Comparison.Contrast.1'
p3203
tp3204
F0.043478260869565216
s(S'Explicit'
p3205
g3198
tp3206
F0.13043478260869565
s(NS'Comparison.Contrast.2'
p3207
tp3208
F0.2608695652173913
s(g3205
Ntp3209
F0.43478260869565216
ssS'apwsE951222.0206-2-2-0.perm-1.txt.pipe'
p3210
(dp3211
sS'apwsE951021.0001-2-2-0.perm-11.txt.pipe'
p3212
(dp3213
(S'Contingency.Cause.1'
p3214
Ntp3215
F0.013377926421404682
s(S'Comparison.Contrast.2'
p3216
S'Expansion.Conjunction.2'
p3217
tp3218
F0.010033444816053512
s(S'Comparison.Contrast.2'
p3219
Ntp3220
F0.043478260869565216
s(S'Expansion.Conjunction.1'
p3221
Ntp3222
F0.023411371237458192
s(S'Expansion.Conjunction.2'
p3223
S'Comparison.Contrast.1'
p3224
tp3225
F0.0033444816053511705
s(S'Explicit'
p3226
S'Explicit'
p3227
tp3228
F0.03424657534246575
s(NS'Comparison.Contrast.2'
p3229
tp3230
F0.026755852842809364
s(NNtp3231
F0.6643835616438356
s(NS'Expansion.Conjunction.2'
p3232
tp3233
F0.033444816053511704
s(S'Comparison.Contrast.1'
p3234
Ntp3235
F0.05351170568561873
s(NS'Contingency.Condition.2'
p3236
tp3237
F0.010033444816053512
s(S'Contingency.Cause.2'
p3238
Ntp3239
F0.030100334448160536
s(g3229
S'Contingency.Condition.1'
p3240
tp3241
F0.0033444816053511705
s(NS'Explicit'
p3242
tp3243
F0.136986301369863
s(g3217
g3219
tp3244
F0.006688963210702341
s(g3242
Ntp3245
F0.1643835616438356
s(S'Contingency.Cause.2'
p3246
S'Expansion.Conjunction.1'
p3247
tp3248
F0.0033444816053511705
s(S'Expansion.Conjunction.2'
p3249
Ntp3250
F0.020066889632107024
s(NS'Expansion.Conjunction.1'
p3251
tp3252
F0.013377926421404682
s(NS'Contingency.Condition.1'
p3253
tp3254
F0.006688963210702341
s(S'Comparison.Contrast.1'
p3255
S'Contingency.Condition.2'
p3256
tp3257
F0.0033444816053511705
s(Ng3234
tp3258
F0.043478260869565216
s(S'Contingency.Cause.1'
p3259
S'Expansion.Conjunction.1'
p3260
tp3261
F0.0033444816053511705
ssS'apwsE951226.0004-2-2-0.perm-10.txt.pipe'
p3262
(dp3263
(NS'Explicit'
p3264
tp3265
F0.6470588235294118
s(g3264
Ntp3266
F0.35294117647058826
s(NS'Expansion.Conjunction.2'
p3267
tp3268
F0.6470588235294118
s(S'Expansion.Conjunction.1'
p3269
Ntp3270
F0.35294117647058826
ssS'apwsE950213.0175-0-1.perm-11.txt.pipe'
p3271
(dp3272
sS'apwsE951009.0245-2-2-0.perm-10.txt.pipe'
p3273
(dp3274
(S'Implicit'
p3275
Ntp3276
F0.023116438356164382
s(S'.2'
p3277
S'Expansion.Conjunction.1'
p3278
tp3279
F0.0016207455429497568
s(S'Comparison.Contrast.2'
p3280
Ntp3281
F0.008103727714748784
s(S'.2'
p3282
S'.2'
p3283
tp3284
F0.014586709886547812
s(S'EntRel'
p3285
Ntp3286
F0.04794520547945205
s(S'Implicit'
p3287
S'EntRel'
p3288
tp3289
F0.00684931506849315
s(Ng3280
tp3290
F0.0024311183144246355
s(S'.1'
p3291
S'.1'
p3292
tp3293
F0.004862236628849271
s(NS'Expansion.Conjunction.2'
p3294
tp3295
F0.025121555915721232
s(S'.1'
p3296
Ntp3297
F0.03241491085899514
s(S'Comparison.Contrast.1'
p3298
Ntp3299
F0.005672609400324149
s(NS'Temporal.Synchrony.1'
p3300
tp3301
F0.0008103727714748784
s(S'Expansion.Conjunction.1'
p3302
g3292
tp3303
F0.0016207455429497568
s(Ng3285
tp3304
F0.053082191780821915
s(g3294
g3283
tp3305
F0.012965964343598054
s(Ng3296
tp3306
F0.031604538087520256
s(g3300
Ntp3307
F0.0008103727714748784
s(S'.2'
p3308
g3292
tp3309
F0.0032414910858995136
s(Ng3275
tp3310
F0.017123287671232876
s(S'Temporal.Synchrony.2'
p3311
Ntp3312
F0.0032414910858995136
s(S'.1'
p3313
g3278
tp3314
F0.0016207455429497568
s(S'Expansion.Conjunction.2'
p3315
S'.1'
p3316
tp3317
F0.0016207455429497568
s(S'EntRel'
p3318
S'EntRel'
p3319
tp3320
F0.02054794520547945
s(NS'Explicit'
p3321
tp3322
F0.025684931506849314
s(Ng3298
tp3323
F0.0032414910858995136
s(S'Explicit'
p3324
Ntp3325
F0.025684931506849314
s(S'Expansion.Conjunction.1'
p3326
Ntp3327
F0.017828200972447326
s(g3285
g3321
tp3328
F0.0017123287671232876
s(S'Expansion.Conjunction.2'
p3329
Ntp3330
F0.01053484602917342
s(NS'.2'
p3331
tp3332
F0.04457050243111831
s(Ng3326
tp3333
F0.005672609400324149
s(g3331
Ntp3334
F0.03565640194489465
s(g3321
g3319
tp3335
F0.010273972602739725
s(Ng3311
tp3336
F0.0032414910858995136
s(NNtp3337
F0.7679794520547946
ssS'apwsE951021.0001-2-2-0.perm-10.txt.pipe'
p3338
(dp3339
(S'Comparison.Contrast.2'
p3340
S'Expansion.Conjunction.2'
p3341
tp3342
F0.018518518518518517
s(S'Comparison.Contrast.2'
p3343
Ntp3344
F0.024691358024691357
s(S'Expansion.Conjunction.1'
p3345
Ntp3346
F0.043209876543209874
s(NS'Explicit'
p3347
tp3348
F0.11643835616438356
s(NS'Comparison.Contrast.1'
p3349
tp3350
F0.030864197530864196
s(S'Explicit'
p3351
Ntp3352
F0.1095890410958904
s(S'Explicit'
p3353
g3351
tp3354
F0.02054794520547945
s(NS'Comparison.Contrast.2'
p3355
tp3356
F0.037037037037037035
s(NNtp3357
F0.7534246575342466
s(NS'Expansion.Conjunction.2'
p3358
tp3359
F0.06172839506172839
s(g3341
Ntp3360
F0.05555555555555555
s(S'Comparison.Contrast.1'
p3361
Ntp3362
F0.018518518518518517
s(NS'Expansion.Conjunction.1'
p3363
tp3364
F0.030864197530864196
ssS'apwsE951021.0001-2-2-0.perm-13.txt.pipe'
p3365
(dp3366
(S'Contingency.Cause.1'
p3367
Ntp3368
F0.01702127659574468
s(S'Contingency.Cause.2'
p3369
S'Comparison.Contrast.2'
p3370
tp3371
F0.00851063829787234
s(S'Explicit'
p3372
S'Explicit'
p3373
tp3374
F0.0502283105022831
s(S'Comparison.Contrast.2'
p3375
S'Expansion.Conjunction.2'
p3376
tp3377
F0.02553191489361702
s(S'Comparison.Contrast.2'
p3378
Ntp3379
F0.04680851063829787
s(S'Expansion.Conjunction.1'
p3380
Ntp3381
F0.029787234042553193
s(NS'Explicit'
p3382
tp3383
F0.1506849315068493
s(NS'Comparison.Contrast.1'
p3384
tp3385
F0.06808510638297872
s(g3382
Ntp3386
F0.1735159817351598
s(S'Contingency.Cause.2'
p3387
S'Comparison.Contrast.1'
p3388
tp3389
F0.00851063829787234
s(NS'Comparison.Contrast.2'
p3390
tp3391
F0.04680851063829787
s(NNtp3392
F0.6255707762557078
s(NS'Expansion.Conjunction.2'
p3393
tp3394
F0.029787234042553193
s(g3384
Ntp3395
F0.07234042553191489
s(S'Comparison.Contrast.2'
p3396
S'Comparison.Contrast.2'
p3397
tp3398
F0.01276595744680851
s(S'Contingency.Cause.2'
p3399
Ntp3400
F0.02553191489361702
s(S'Contingency.Cause.1'
p3401
S'Comparison.Contrast.1'
p3402
tp3403
F0.00425531914893617
s(NS'Expansion.Conjunction.1'
p3404
tp3405
F0.02127659574468085
ssS'apwsE960214.0448-2-2-0.perm-11.txt.pipe'
p3406
(dp3407
sS'apwsE951122.0004-0-1.perm-10.txt.pipe'
p3408
(dp3409
sS'apwsE960214.0448-2-2-0.perm-1.txt.pipe'
p3410
(dp3411
sS'apwsE951023.0357-2-2-0.perm-12.txt.pipe'
p3412
(dp3413
sS'apwsE951023.0362-2-2-0.perm-13.txt.pipe'
p3414
(dp3415
sS'apwsE951018.0182-2-2-0.perm-10.txt.pipe'
p3416
(dp3417
sS'apwsE951108.0165-2-2-0.perm-13.txt.pipe'
p3418
(dp3419
(S'Expansion.Conjunction.1'
p3420
Ntp3421
F0.07936507936507936
s(NS'Explicit'
p3422
tp3423
F0.164021164021164
s(NS'Comparison.Contrast.1'
p3424
tp3425
F0.031746031746031744
s(S'Explicit'
p3426
Ntp3427
F0.15343915343915343
s(g3426
S'Explicit'
p3428
tp3429
F0.005291005291005291
s(NS'Comparison.Contrast.2'
p3430
tp3431
F0.07936507936507936
s(NNtp3432
F0.6772486772486772
s(NS'Expansion.Conjunction.2'
p3433
tp3434
F0.05291005291005291
s(S'Expansion.Conjunction.2'
p3435
Ntp3436
F0.037037037037037035
s(g3424
Ntp3437
F0.037037037037037035
s(S'Expansion.Conjunction.1'
p3438
S'Comparison.Contrast.1'
p3439
tp3440
F0.005291005291005291
ssS'apwsE951023.0357-2-2-0.perm-1.txt.pipe'
p3441
(dp3442
sS'apwsE951226.0004-2-2-0.perm-12.txt.pipe'
p3443
(dp3444
(NS'Explicit'
p3445
tp3446
F0.9130434782608695
s(g3445
Ntp3447
F0.08695652173913043
s(NS'Expansion.Conjunction.2'
p3448
tp3449
F0.9130434782608695
s(S'Expansion.Conjunction.1'
p3450
Ntp3451
F0.08695652173913043
ssS'apwsE951210.0356-2-2-0.perm-13.txt.pipe'
p3452
(dp3453
sS'apwsE951009.0245-2-2-0.perm-11.txt.pipe'
p3454
(dp3455
(S'Contingency.Cause.1'
p3456
Ntp3457
F0.004741833508956797
s(S'Implicit'
p3458
Ntp3459
F0.016467915956842702
s(S'Comparison.Contrast.2'
p3460
Ntp3461
F0.00684931506849315
s(S'.2'
p3462
S'.2'
p3463
tp3464
F0.010010537407797681
s(S'Explicit'
p3465
S'Explicit'
p3466
tp3467
F0.0005678591709256105
s(Ng3460
tp3468
F0.007903055848261328
s(S'.1'
p3469
S'.1'
p3470
tp3471
F0.003161222339304531
s(NS'Expansion.Conjunction.2'
p3472
tp3473
F0.0026343519494204425
s(S'.1'
p3474
Ntp3475
F0.040042149631190724
s(S'Expansion.Conjunction.1'
p3476
S'Contingency.Cause.1'
p3477
tp3478
F0.0005268703898840885
s(S'Comparison.Contrast.1'
p3479
Ntp3480
F0.009483667017913594
s(g3476
S'Comparison.Contrast.2'
p3481
tp3482
F0.0005268703898840885
s(S'Contingency.Cause.2'
p3483
Ntp3484
F0.008956796628029505
s(Ng3458
tp3485
F0.014764338444065871
s(g3469
S'Expansion.Conjunction.1'
p3486
tp3487
F0.001053740779768177
s(NS'.2'
p3488
tp3489
F0.05426765015806112
s(Ng3483
tp3490
F0.01053740779768177
s(S'Contingency.Cause.2'
p3491
S'.2'
p3492
tp3493
F0.0005268703898840885
s(Ng3479
tp3494
F0.008956796628029505
s(S'Explicit'
p3495
Ntp3496
F0.02555366269165247
s(S'Comparison.Contrast.2'
p3497
S'.2'
p3498
tp3499
F0.0015806111696522655
s(S'Expansion.Conjunction.2'
p3500
Ntp3501
F0.008956796628029505
s(NS'Expansion.Conjunction.1'
p3502
tp3503
F0.0015806111696522655
s(S'Comparison.Contrast.2'
p3504
g3491
tp3505
F0.0005268703898840885
s(g3476
S'Comparison.Contrast.1'
p3506
tp3507
F0.0005268703898840885
s(S'Contingency.Cause.2'
p3508
S'Comparison.Contrast.2'
p3509
tp3510
F0.0015806111696522655
s(S'Expansion.Conjunction.1'
p3511
Ntp3512
F0.003161222339304531
s(S'EntRel'
p3513
Ntp3514
F0.05224304372515616
s(S'Implicit'
p3515
S'EntRel'
p3516
tp3517
F0.0005678591709256105
s(S'.1'
p3518
S'Comparison.Contrast.2'
p3519
tp3520
F0.0005268703898840885
s(NNtp3521
F0.7808063600227144
s(g3472
g3463
tp3522
F0.0005268703898840885
s(g3465
g3458
tp3523
F0.002271436683702442
s(NS'Temporal.Synchrony.1'
p3524
tp3525
F0.0005268703898840885
s(S'Comparison.Contrast.2'
p3526
g3509
tp3527
F0.0015806111696522655
s(S'Expansion.Conjunction.1'
p3528
S'.1'
p3529
tp3530
F0.001053740779768177
s(NS'EntRel'
p3531
tp3532
F0.06473594548551959
s(Ng3474
tp3533
F0.03582718651211802
s(S'.2'
p3534
g3470
tp3535
F0.0026343519494204425
s(g3458
g3515
tp3536
F0.0005678591709256105
s(S'Comparison.Contrast.2'
p3537
S'.1'
p3538
tp3539
F0.0005268703898840885
s(S'EntRel'
p3540
S'EntRel'
p3541
tp3542
F0.014196479273140262
s(Ng3495
tp3543
F0.022146507666098807
s(S'EntRel'
p3544
S'Explicit'
p3545
tp3546
F0.0017035775127768314
s(g3534
g3486
tp3547
F0.001053740779768177
s(S'.2'
p3548
Ntp3549
F0.0368809272918862
s(g3545
g3541
tp3550
F0.0034071550255536627
s(NS'Temporal.Synchrony.2'
p3551
tp3552
F0.002107481559536354
s(Ng3456
tp3553
F0.004214963119072708
ssS'apwsE951018.0170-2-2-0.perm-11.txt.pipe'
p3554
(dp3555
sS'apwsE951108.0165-2-2-0.perm-11.txt.pipe'
p3556
(dp3557
(S'Expansion.Conjunction.1'
p3558
Ntp3559
F0.0603448275862069
s(NS'Explicit'
p3560
tp3561
F0.19827586206896552
s(g3560
Ntp3562
F0.06896551724137931
s(NS'Comparison.Contrast.2'
p3563
tp3564
F0.11206896551724138
s(NNtp3565
F0.7327586206896551
s(NS'Expansion.Conjunction.2'
p3566
tp3567
F0.08620689655172414
s(S'Comparison.Contrast.1'
p3568
Ntp3569
F0.008620689655172414
ssS'apwsE951001.0279-2-2-0.perm-11.txt.pipe'
p3570
(dp3571
(NS'EntRel'
p3572
tp3573
F0.4418604651162791
s(NS'.2'
p3574
tp3575
F0.4418604651162791
s(g3572
Ntp3576
F0.18604651162790697
s(NNtp3577
F0.37209302325581395
s(S'.1'
p3578
Ntp3579
F0.18604651162790697
ssS'apwsE951024.0005-2-2-0.perm-12.txt.pipe'
p3580
(dp3581
(S'Comparison.Contrast.1'
p3582
Ntp3583
F0.17391304347826086
s(S'Explicit'
p3584
Ntp3585
F0.43478260869565216
s(S'Comparison.Contrast.2'
p3586
Ntp3587
F0.2608695652173913
s(NS'Expansion.Conjunction.1'
p3588
tp3589
F0.08695652173913043
s(NS'Explicit'
p3590
tp3591
F0.2608695652173913
s(S'Comparison.Contrast.1'
p3592
S'Expansion.Conjunction.2'
p3593
tp3594
F0.043478260869565216
s(g3584
g3590
tp3595
F0.043478260869565216
s(NNtp3596
F0.2608695652173913
s(NS'Expansion.Conjunction.2'
p3597
tp3598
F0.17391304347826086
ssS'apwsE951004.0060-2-2-0.perm-11.txt.pipe'
p3599
(dp3600
(S'Comparison.Contrast.2'
p3601
Ntp3602
F0.34210526315789475
s(S'Comparison.Contrast.2'
p3603
S'Comparison.Concession.2'
p3604
tp3605
F0.07894736842105263
s(NS'Explicit'
p3606
tp3607
F0.4473684210526316
s(S'Explicit'
p3608
Ntp3609
F0.47368421052631576
s(g3608
g3606
tp3610
F0.07894736842105263
s(S'Comparison.Contrast.1'
p3611
Ntp3612
F0.13157894736842105
s(NS'Comparison.Concession.1'
p3613
tp3614
F0.3157894736842105
s(NS'Comparison.Concession.2'
p3615
tp3616
F0.13157894736842105
ssS'apwsE951009.0226-2-2-0.perm-1.txt.pipe'
p3617
(dp3618
sS'apwsE960303.0090-2-2-0.perm-12.txt.pipe'
p3619
(dp3620
(S'Expansion.Conjunction.2'
p3621
Ntp3622
F0.2571428571428571
s(S'Expansion.Conjunction.1'
p3623
Ntp3624
F0.08571428571428572
s(NS'Explicit'
p3625
tp3626
F0.6571428571428571
s(NS'Comparison.Contrast.1'
p3627
tp3628
F0.4
s(S'Explicit'
p3629
Ntp3630
F0.34285714285714286
s(NS'Comparison.Contrast.2'
p3631
tp3632
F0.2571428571428571
ssS'apwsE960216.0269-2-2-0.perm-12.txt.pipe'
p3633
(dp3634
(S'Explicit'
p3635
S'Explicit'
p3636
tp3637
F0.024096385542168676
s(S'Comparison.Contrast.2'
p3638
Ntp3639
F0.013289036544850499
s(S'.2'
p3640
S'.2'
p3641
tp3642
F0.029900332225913623
s(NS'Temporal.Asynchronous.1'
p3643
tp3644
F0.053156146179401995
s(S'Temporal.Asynchronous.1'
p3645
S'.1'
p3646
tp3647
F0.016611295681063124
s(S'Temporal.Asynchronous.1'
p3648
Ntp3649
F0.013289036544850499
s(S'Comparison.Contrast.1'
p3650
S'.1'
p3651
tp3652
F0.0033222591362126247
s(NS'Comparison.Contrast.2'
p3653
tp3654
F0.013289036544850499
s(S'.1'
p3655
S'.1'
p3656
tp3657
F0.009966777408637873
s(S'.1'
p3658
S'Temporal.Asynchronous.1'
p3659
tp3660
F0.006644518272425249
s(g3656
Ntp3661
F0.08305647840531562
s(S'Comparison.Contrast.1'
p3662
Ntp3663
F0.036544850498338874
s(S'Temporal.Asynchronous.2'
p3664
Ntp3665
F0.06312292358803986
s(NS'EntRel'
p3666
tp3667
F0.18875502008032127
s(Ng3655
tp3668
F0.06976744186046512
s(g3666
S'Explicit'
p3669
tp3670
F0.012048192771084338
s(S'Temporal.Asynchronous.2'
p3671
S'.2'
p3672
tp3673
F0.009966777408637873
s(g3645
S'Comparison.Contrast.1'
p3674
tp3675
F0.009966777408637873
s(S'.2'
p3676
S'Temporal.Asynchronous.2'
p3677
tp3678
F0.0033222591362126247
s(S'Temporal.Asynchronous.1'
p3679
g3638
tp3680
F0.009966777408637873
s(Ng3664
tp3681
F0.10963455149501661
s(NS'.2'
p3682
tp3683
F0.10963455149501661
s(S'EntRel'
p3684
g3666
tp3685
F0.04819277108433735
s(Ng3669
tp3686
F0.1646586345381526
s(Ng3662
tp3687
F0.029900332225913623
s(g3635
Ntp3688
F0.11244979919678715
s(S'Temporal.Asynchronous.2'
p3689
S'.1'
p3690
tp3691
F0.0033222591362126247
s(g3653
g3672
tp3692
F0.009966777408637873
s(g3666
Ntp3693
F0.10843373493975904
s(g3658
S'Temporal.Asynchronous.2'
p3694
tp3695
F0.006644518272425249
s(S'.2'
p3696
Ntp3697
F0.029900332225913623
s(g3635
g3684
tp3698
F0.040160642570281124
s(g3676
S'Temporal.Asynchronous.1'
p3699
tp3700
F0.006644518272425249
s(NNtp3701
F0.30120481927710846
ssS'apwsE951018.0182-2-2-0.perm-1.txt.pipe'
p3702
(dp3703
sS'apwsE951024.0110-2-2-0.perm-11.txt.pipe'
p3704
(dp3705
(S'Comparison.Contrast.2'
p3706
Ntp3707
F0.11538461538461539
s(S'Comparison.Contrast.2'
p3708
S'Expansion.Conjunction.1'
p3709
tp3710
F0.019230769230769232
s(S'Comparison.Contrast.1'
p3711
S'Expansion.Conjunction.2'
p3712
tp3713
F0.019230769230769232
s(S'Explicit'
p3714
S'Explicit'
p3715
tp3716
F0.038461538461538464
s(NNtp3717
F0.6153846153846154
s(NS'Expansion.Conjunction.2'
p3718
tp3719
F0.07692307692307693
s(S'Comparison.Contrast.1'
p3720
Ntp3721
F0.09615384615384616
s(Ng3715
tp3722
F0.1346153846153846
s(NS'Expansion.Conjunction.1'
p3723
tp3724
F0.057692307692307696
s(g3714
Ntp3725
F0.21153846153846154
ssS'apwsE951009.0228-2-2-0.perm-10.txt.pipe'
p3726
(dp3727
(S'Contingency.Cause.1'
p3728
Ntp3729
F0.019867549668874173
s(S'Implicit'
p3730
Ntp3731
F0.13448275862068965
s(S'Comparison.Contrast.2'
p3732
Ntp3733
F0.033112582781456956
s(S'EntRel'
p3734
Ntp3735
F0.06551724137931035
s(S'Implicit'
p3736
g3734
tp3737
F0.017241379310344827
s(NS'Comparison.Contrast.2'
p3738
tp3739
F0.029801324503311258
s(NNtp3740
F0.593103448275862
s(NS'.1'
p3741
tp3742
F0.023178807947019868
s(S'Comparison.Contrast.1'
p3743
Ntp3744
F0.076158940397351
s(Ng3734
tp3745
F0.05862068965517241
s(S'Contingency.Cause.2'
p3746
Ntp3747
F0.019867549668874173
s(g3734
g3730
tp3748
F0.010344827586206896
s(g3741
Ntp3749
F0.019867549668874173
s(S'.2'
p3750
g3732
tp3751
F0.006622516556291391
s(Ng3730
tp3752
F0.11724137931034483
s(S'Implicit'
p3753
g3736
tp3754
F0.0034482758620689655
s(NS'.2'
p3755
tp3756
F0.033112582781456956
s(NS'Contingency.Cause.2'
p3757
tp3758
F0.052980132450331126
s(S'Contingency.Cause.2'
p3759
g3750
tp3760
F0.016556291390728478
s(Ng3743
tp3761
F0.029801324503311258
s(S'.1'
p3762
S'Comparison.Contrast.1'
p3763
tp3764
F0.0033112582781456954
s(g3755
Ntp3765
F0.04304635761589404
s(Ng3728
tp3766
F0.019867549668874173
s(g3738
g3759
tp3767
F0.0033112582781456954
ssS'apwsE950827.0035-2-2-0.perm-13.txt.pipe'
p3768
(dp3769
sS'apwsE950919.0580-2-2-0.perm-11.txt.pipe'
p3770
(dp3771
sS'apwsE951010.0087-2-2-0.perm-11.txt.pipe'
p3772
(dp3773
(S'Temporal.Synchrony.2'
p3774
Ntp3775
F0.03
s(S'Comparison.Contrast.1'
p3776
S'Comparison.Contrast.1'
p3777
tp3778
F0.0025
s(S'Comparison.Contrast.2'
p3779
Ntp3780
F0.0475
s(NS'Explicit'
p3781
tp3782
F0.11748633879781421
s(NS'Comparison.Contrast.1'
p3783
tp3784
F0.0475
s(S'Explicit'
p3785
Ntp3786
F0.13934426229508196
s(g3781
g3785
tp3787
F0.03825136612021858
s(NS'Comparison.Contrast.2'
p3788
tp3789
F0.0475
s(NNtp3790
F0.7049180327868853
s(g3783
Ntp3791
F0.0475
s(S'Comparison.Contrast.2'
p3792
S'Comparison.Contrast.2'
p3793
tp3794
F0.0075
s(S'Temporal.Synchrony.2'
p3795
g3779
tp3796
F0.025
s(Ng3795
tp3797
F0.055
s(S'Temporal.Synchrony.1'
p3798
Ntp3799
F0.045
ssS'apwsE951121.0032-2-2-0.perm-11.txt.pipe'
p3800
(dp3801
sS'apwsE951009.0216-2-2-0.perm-12.txt.pipe'
p3802
(dp3803
sS'apwsE960109.0412-0-1.perm-12.txt.pipe'
p3804
(dp3805
sS'apwsE951218.0398-0-1.perm-12.txt.pipe'
p3806
(dp3807
(S'Comparison.Contrast.1'
p3808
Ntp3809
F0.08695652173913043
s(S'Comparison.Contrast.1'
p3810
S'Comparison.Contrast.1'
p3811
tp3812
F0.08695652173913043
s(S'Comparison.Contrast.2'
p3813
Ntp3814
F0.34782608695652173
s(NS'Explicit'
p3815
tp3816
F0.43478260869565216
s(NS'Comparison.Contrast.1'
p3817
tp3818
F0.17391304347826086
s(S'Comparison.Contrast.2'
p3819
S'Comparison.Contrast.1'
p3820
tp3821
F0.043478260869565216
s(S'Explicit'
p3822
g3815
tp3823
F0.13043478260869565
s(NS'Comparison.Contrast.2'
p3824
tp3825
F0.2608695652173913
s(g3822
Ntp3826
F0.43478260869565216
ssS'apwsE951009.0278-2-2-0.perm-13.txt.pipe'
p3827
(dp3828
(S'Comparison.Contrast.2'
p3829
Ntp3830
F0.024752475247524754
s(S'Expansion.Conjunction.1'
p3831
Ntp3832
F0.03217821782178218
s(S'EntRel'
p3833
Ntp3834
F0.03333333333333333
s(S'Explicit'
p3835
S'Explicit'
p3836
tp3837
F0.002564102564102564
s(NS'Comparison.Contrast.2'
p3838
tp3839
F0.0049504950495049506
s(NNtp3840
F0.7871794871794872
s(NS'Expansion.Conjunction.2'
p3841
tp3842
F0.024752475247524754
s(S'.1'
p3843
Ntp3844
F0.017326732673267328
s(S'Comparison.Contrast.1'
p3845
Ntp3846
F0.017326732673267328
s(NS'Temporal.Synchrony.1'
p3847
tp3848
F0.0049504950495049506
s(Ng3833
tp3849
F0.03333333333333333
s(Ng3843
tp3850
F0.017326732673267328
s(g3847
Ntp3851
F0.0049504950495049506
s(S'Temporal.Synchrony.2'
p3852
S'Expansion.Conjunction.1'
p3853
tp3854
F0.0024752475247524753
s(S'Temporal.Synchrony.2'
p3855
Ntp3856
F0.007425742574257425
s(NS'.2'
p3857
tp3858
F0.01485148514851485
s(Ng3836
tp3859
F0.07179487179487179
s(NS'Comparison.Contrast.1'
p3860
tp3861
F0.009900990099009901
s(S'Explicit'
p3862
Ntp3863
F0.07179487179487179
s(g3852
S'Comparison.Contrast.2'
p3864
tp3865
F0.0024752475247524753
s(Ng3831
tp3866
F0.0297029702970297
s(g3857
Ntp3867
F0.01485148514851485
s(Ng3855
tp3868
F0.009900990099009901
ssS'apwsE960109.0130-2-2-0.perm-12.txt.pipe'
p3869
(dp3870
(NS'EntRel'
p3871
tp3872
F0.13741496598639455
s(S'.2'
p3873
S'.2'
p3874
tp3875
F0.027554535017221583
s(S'EntRel'
p3876
Ntp3877
F0.12789115646258503
s(NNtp3878
F0.6625850340136055
s(S'.1'
p3879
Ntp3880
F0.08725602755453502
s(S'Expansion.Conjunction.2'
p3881
S'.2'
p3882
tp3883
F0.001148105625717566
s(S'Contingency.Cause.1'
p3884
S'.1'
p3885
tp3886
F0.001148105625717566
s(S'Contingency.Cause.2'
p3887
Ntp3888
F0.008036739380022962
s(NS'.1'
p3889
tp3890
F0.07921928817451206
s(S'.2'
p3891
g3885
tp3892
F0.003444316877152698
s(S'.1'
p3893
g3885
tp3894
F0.0057405281285878304
s(NS'.2'
p3895
tp3896
F0.1148105625717566
s(Ng3887
tp3897
F0.008036739380022962
s(NS'Explicit'
p3898
tp3899
F0.010884353741496598
s(S'Explicit'
p3900
Ntp3901
F0.01904761904761905
s(S'Expansion.Conjunction.1'
p3902
Ntp3903
F0.003444316877152698
s(S'Expansion.Conjunction.2'
p3904
Ntp3905
F0.004592422502870264
s(S'EntRel'
p3906
S'EntRel'
p3907
tp3908
F0.03945578231292517
s(g3895
Ntp3909
F0.09529276693455797
s(g3898
g3907
tp3910
F0.0027210884353741495
s(Ng3884
tp3911
F0.001148105625717566
ssS'apwsE951001.0257-2-2-0.perm-11.txt.pipe'
p3912
(dp3913
(S'Implicit'
p3914
Ntp3915
F0.02680965147453083
s(NS'EntRel'
p3916
tp3917
F0.11126005361930295
s(S'.2'
p3918
S'.2'
p3919
tp3920
F0.012422360248447204
s(NS'Temporal.Asynchronous.1'
p3921
tp3922
F0.009937888198757764
s(g3921
Ntp3923
F0.009937888198757764
s(g3914
S'EntRel'
p3924
tp3925
F0.006702412868632708
s(S'.1'
p3926
S'.1'
p3927
tp3928
F0.0037267080745341614
s(NS'Expansion.Conjunction.2'
p3929
tp3930
F0.03229813664596273
s(S'.1'
p3931
Ntp3932
F0.07204968944099378
s(g3914
S'Explicit'
p3933
tp3934
F0.0013404825737265416
s(S'Temporal.Asynchronous.2'
p3935
Ntp3936
F0.006211180124223602
s(Ng3931
tp3937
F0.0546583850931677
s(S'Explicit'
p3938
S'EntRel'
p3939
tp3940
F0.013404825737265416
s(S'EntRel'
p3941
g3914
tp3942
F0.004021447721179625
s(S'Expansion.Conjunction.2'
p3943
g3919
tp3944
F0.009937888198757764
s(S'Temporal.Asynchronous.2'
p3945
S'.2'
p3946
tp3947
F0.006211180124223602
s(S'.2'
p3948
S'Expansion.Conjunction.2'
p3949
tp3950
F0.002484472049689441
s(Ng3914
tp3951
F0.030831099195710455
s(g3926
S'Expansion.Conjunction.1'
p3952
tp3953
F0.0037267080745341614
s(NS'.2'
p3954
tp3955
F0.084472049689441
s(S'EntRel'
p3956
g3939
tp3957
F0.01876675603217158
s(Ng3938
tp3958
F0.03753351206434316
s(g3938
Ntp3959
F0.028150134048257374
s(g3952
Ntp3960
F0.011180124223602485
s(g3956
g3938
tp3961
F0.002680965147453083
s(g3929
Ntp3962
F0.02360248447204969
s(S'EntRel'
p3963
Ntp3964
F0.09517426273458444
s(S'Expansion.Conjunction.2'
p3965
S'.1'
p3966
tp3967
F0.0012422360248447205
s(S'.2'
p3968
g3966
tp3969
F0.0037267080745341614
s(S'.2'
p3970
S'Expansion.Conjunction.1'
p3971
tp3972
F0.002484472049689441
s(NS'Expansion.Conjunction.1'
p3973
tp3974
F0.009937888198757764
s(S'.2'
p3975
Ntp3976
F0.0484472049689441
s(NS'Temporal.Asynchronous.2'
p3977
tp3978
F0.011180124223602485
s(g3971
g3945
tp3979
F0.0012422360248447205
s(NNtp3980
F0.6233243967828418
s(S'Expansion.Conjunction.1'
p3981
S'.1'
p3982
tp3983
F0.0012422360248447205
ssS'apwsE960207.0124-2-2-0.perm-11.txt.pipe'
p3984
(dp3985
sS'apwsE960109.0412-0-1.perm-13.txt.pipe'
p3986
(dp3987
sS'apwsE951218.0398-0-1.perm-11.txt.pipe'
p3988
(dp3989
sS'apwsE951003.0004-2-2-0.perm-10.txt.pipe'
p3990
(dp3991
(NS'.2'
p3992
tp3993
F0.08482142857142858
s(S'.2'
p3994
S'.2'
p3995
tp3996
F0.022321428571428572
s(S'EntRel'
p3997
Ntp3998
F0.05092592592592592
s(S'Explicit'
p3999
Ntp4000
F0.05555555555555555
s(S'Expansion.Conjunction.1'
p4001
Ntp4002
F0.05357142857142857
s(S'.1'
p4003
S'.1'
p4004
tp4005
F0.008928571428571428
s(NS'Expansion.Conjunction.2'
p4006
tp4007
F0.10267857142857142
s(g4004
Ntp4008
F0.044642857142857144
s(S'EntRel'
p4009
g3997
tp4010
F0.032407407407407406
s(NS'Explicit'
p4011
tp4012
F0.10648148148148148
s(Ng3997
tp4013
F0.08796296296296297
s(S'.2'
p4014
Ntp4015
F0.022321428571428572
s(NS'.1'
p4016
tp4017
F0.017857142857142856
s(NNtp4018
F0.6666666666666666
ssS'apwsE950928.0080-0-1.perm-10.txt.pipe'
p4019
(dp4020
sS'apwsE950914.0071-0-1.perm-10.txt.pipe'
p4021
(dp4022
sS'apwsE951106.0072-2-2-0.perm-12.txt.pipe'
p4023
(dp4024
sS'apwsE951122.0012-0-1.perm-10.txt.pipe'
p4025
(dp4026
(S'Expansion.Conjunction.2'
p4027
Ntp4028
F0.20833333333333334
s(S'Expansion.Conjunction.1'
p4029
Ntp4030
F0.125
s(NS'Explicit'
p4031
tp4032
F0.34210526315789475
s(NS'Comparison.Contrast.1'
p4033
tp4034
F0.16666666666666666
s(S'Explicit'
p4035
Ntp4036
F0.42105263157894735
s(NS'Expansion.Conjunction.1'
p4037
tp4038
F0.08333333333333333
s(NS'Comparison.Contrast.2'
p4039
tp4040
F0.10416666666666667
s(NNtp4041
F0.23684210526315788
s(NS'Expansion.Conjunction.2'
p4042
tp4043
F0.125
ssS'apwsE951020.0432-2-2-0.perm-10.txt.pipe'
p4044
(dp4045
(S'Explicit'
p4046
S'Explicit'
p4047
tp4048
F0.02109704641350211
s(S'Comparison.Contrast.2'
p4049
S'Expansion.Conjunction.2'
p4050
tp4051
F0.0036900369003690036
s(S'Comparison.Contrast.2'
p4052
Ntp4053
F0.007380073800738007
s(S'.2'
p4054
S'.2'
p4055
tp4056
F0.01845018450184502
s(S'EntRel'
p4057
Ntp4058
F0.06751054852320675
s(S'Expansion.Conjunction.2'
p4059
S'Expansion.Conjunction.2'
p4060
tp4061
F0.00922509225092251
s(NS'Comparison.Contrast.2'
p4062
tp4063
F0.007380073800738007
s(S'.1'
p4064
S'.1'
p4065
tp4066
F0.0036900369003690036
s(Ng4059
tp4067
F0.02952029520295203
s(S'.1'
p4068
Ntp4069
F0.04797047970479705
s(S'Comparison.Contrast.1'
p4070
Ntp4071
F0.00922509225092251
s(S'Expansion.Conjunction.1'
p4072
S'Comparison.Contrast.2'
p4073
tp4074
F0.0018450184501845018
s(Ng4057
tp4075
F0.09282700421940929
s(Ng4068
tp4076
F0.04059040590405904
s(S'.2'
p4077
g4065
tp4078
F0.0018450184501845018
s(NS'.2'
p4079
tp4080
F0.08118081180811808
s(S'EntRel'
p4081
g4057
tp4082
F0.02531645569620253
s(Ng4046
tp4083
F0.035864978902953586
s(NS'Comparison.Contrast.1'
p4084
tp4085
F0.00922509225092251
s(g4046
Ntp4086
F0.03164556962025317
s(S'Expansion.Conjunction.1'
p4087
Ntp4088
F0.023985239852398525
s(g4050
Ntp4089
F0.007380073800738007
s(S'Comparison.Contrast.1'
p4090
S'Expansion.Conjunction.1'
p4091
tp4092
F0.0036900369003690036
s(Ng4072
tp4093
F0.005535055350553505
s(g4079
Ntp4094
F0.04981549815498155
s(S'Expansion.Conjunction.1'
p4095
g4091
tp4096
F0.0036900369003690036
s(NNtp4097
F0.7257383966244726
ssS'apwsE950928.0080-0-1.perm-1.txt.pipe'
p4098
(dp4099
sS'apwsE960313.0061-2-2-0.perm-12.txt.pipe'
p4100
(dp4101
(NS'Temporal.Asynchronous.2'
p4102
tp4103
F0.2857142857142857
s(S'Comparison.Contrast.2'
p4104
Ntp4105
F0.12244897959183673
s(NS'Temporal.Asynchronous.1'
p4106
tp4107
F0.12244897959183673
s(S'Comparison.Contrast.1'
p4108
S'Temporal.Asynchronous.2'
p4109
tp4110
F0.04081632653061224
s(S'Explicit'
p4111
Ntp4112
F0.30612244897959184
s(g4111
S'Explicit'
p4113
tp4114
F0.08163265306122448
s(NNtp4115
F0.20408163265306123
s(S'Comparison.Contrast.2'
p4116
S'Temporal.Asynchronous.2'
p4117
tp4118
F0.04081632653061224
s(S'Comparison.Contrast.1'
p4119
Ntp4120
F0.1836734693877551
s(Ng4113
tp4121
F0.40816326530612246
ssS'apwsE950822.0071-0-1.perm-11.txt.pipe'
p4122
(dp4123
sS'apwsE951122.0004-0-1.perm-12.txt.pipe'
p4124
(dp4125
sS'apwsE951023.0357-2-2-0.perm-10.txt.pipe'
p4126
(dp4127
sS'apwsE951122.0012-0-1.perm-1.txt.pipe'
p4128
(dp4129
sS'apwsE950919.0564-2-2-0.perm-1.txt.pipe'
p4130
(dp4131
sS'apwsE951001.0257-2-2-0.perm-10.txt.pipe'
p4132
(dp4133
sS'apwsE951009.0228-2-2-0.perm-1.txt.pipe'
p4134
(dp4135
(S'Contingency.Cause.1'
p4136
Ntp4137
F0.02795425667090216
s(S'Contingency.Cause.2'
p4138
S'Comparison.Contrast.2'
p4139
tp4140
F0.0012706480304955528
s(S'Implicit'
p4141
Ntp4142
F0.06105834464043419
s(S'.2'
p4143
S'Contingency.Cause.2'
p4144
tp4145
F0.005082592121982211
s(S'.2'
p4146
S'.2'
p4147
tp4148
F0.010165184243964422
s(S'EntRel'
p4149
Ntp4150
F0.0814111261872456
s(NS'Comparison.Contrast.2'
p4151
tp4152
F0.011435832274459974
s(S'.1'
p4153
S'.1'
p4154
tp4155
F0.0025412960609911056
s(S'.1'
p4156
Ntp4157
F0.043202033036848796
s(S'Comparison.Contrast.1'
p4158
Ntp4159
F0.008894536213468869
s(g4151
g4139
tp4160
F0.0012706480304955528
s(NS'EntRel'
p4161
tp4162
F0.10176390773405698
s(g4144
Ntp4163
F0.021601016518424398
s(S'.1'
p4164
S'Contingency.Cause.1'
p4165
tp4166
F0.0012706480304955528
s(g4161
g4141
tp4167
F0.0067842605156037995
s(Ng4156
tp4168
F0.043202033036848796
s(S'.2'
p4169
g4154
tp4170
F0.0012706480304955528
s(S'Implicit'
p4171
S'Implicit'
p4172
tp4173
F0.0013568521031207597
s(Ng4141
tp4174
F0.054274084124830396
s(g4139
Ntp4175
F0.011435832274459974
s(Ng4143
tp4176
F0.08005082592121983
s(NS'Contingency.Cause.2'
p4177
tp4178
F0.017789072426937738
s(NS'Explicit'
p4179
tp4180
F0.010854816824966078
s(Ng4158
tp4181
F0.008894536213468869
s(g4179
Ntp4182
F0.009497964721845319
s(g4149
S'EntRel'
p4183
tp4184
F0.013568521031207599
s(Ng4136
tp4185
F0.026683608640406607
s(S'.2'
p4186
Ntp4187
F0.05972045743329098
s(g4179
g4172
tp4188
F0.0013568521031207597
s(NNtp4189
F0.6580732700135685
ssS'apwsE951009.0226-2-2-0.perm-13.txt.pipe'
p4190
(dp4191
sS'apwsE960313.0061-2-2-0.perm-13.txt.pipe'
p4192
(dp4193
(S'Comparison.Contrast.1'
p4194
Ntp4195
F0.23404255319148937
s(S'Comparison.Contrast.2'
p4196
S'Contingency.Cause.1'
p4197
tp4198
F0.02127659574468085
s(S'Comparison.Contrast.2'
p4199
Ntp4200
F0.14893617021276595
s(NS'Contingency.Cause.2'
p4201
tp4202
F0.2127659574468085
s(NS'Explicit'
p4203
tp4204
F0.23404255319148937
s(S'Explicit'
p4205
Ntp4206
F0.3829787234042553
s(g4205
g4203
tp4207
F0.02127659574468085
s(NNtp4208
F0.3617021276595745
s(NS'Contingency.Cause.1'
p4209
tp4210
F0.02127659574468085
ssS'apwsE950822.0071-0-1.perm-13.txt.pipe'
p4211
(dp4212
sS'apwsE960313.0250-0-1.perm-1.txt.pipe'
p4213
(dp4214
sS'apwsE951001.0242-2-2-0.perm-11.txt.pipe'
p4215
(dp4216
sS'apwsE950919.0594-2-2-0.perm-10.txt.pipe'
p4217
(dp4218
sS'apwsE960221.0036-0-1.perm-10.txt.pipe'
p4219
(dp4220
sS'apwsE960313.0026-2-2-0.perm-11.txt.pipe'
p4221
(dp4222
sS'apwsE960214.0448-2-2-0.perm-12.txt.pipe'
p4223
(dp4224
sS'apwsE951020.0432-2-2-0.perm-13.txt.pipe'
p4225
(dp4226
(S'Implicit'
p4227
Ntp4228
F0.023255813953488372
s(S'Comparison.Contrast.2'
p4229
S'Expansion.Conjunction.2'
p4230
tp4231
F0.003616636528028933
s(S'Comparison.Contrast.2'
p4232
Ntp4233
F0.012658227848101266
s(S'Expansion.Conjunction.1'
p4234
Ntp4235
F0.04159132007233273
s(S'EntRel'
p4236
Ntp4237
F0.07170542635658915
s(Ng4232
tp4238
F0.05605786618444846
s(S'Explicit'
p4239
S'Explicit'
p4240
tp4241
F0.005813953488372093
s(S'Expansion.Conjunction.2'
p4242
S'Comparison.Contrast.1'
p4243
tp4244
F0.0018083182640144665
s(NNtp4245
F0.6046511627906976
s(NS'Expansion.Conjunction.2'
p4246
tp4247
F0.05244122965641953
s(S'.1'
p4248
Ntp4249
F0.028933092224231464
s(S'Comparison.Contrast.1'
p4250
Ntp4251
F0.0216998191681736
s(S'Expansion.Conjunction.2'
p4252
S'.2'
p4253
tp4254
F0.003616636528028933
s(NS'Contingency.Condition.2'
p4255
tp4256
F0.0054249547920434
s(g4227
g4236
tp4257
F0.005813953488372093
s(Ng4236
tp4258
F0.05813953488372093
s(S'EntRel'
p4259
g4227
tp4260
F0.005813953488372093
s(NS'.1'
p4261
tp4262
F0.012658227848101266
s(g4236
g4240
tp4263
F0.003875968992248062
s(S'.2'
p4264
g4230
tp4265
F0.007233273056057866
s(Ng4227
tp4266
F0.023255813953488372
s(S'.1'
p4267
S'Expansion.Conjunction.1'
p4268
tp4269
F0.0018083182640144665
s(NS'.2'
p4270
tp4271
F0.04159132007233273
s(Ng4239
tp4272
F0.1182170542635659
s(NS'Comparison.Contrast.1'
p4273
tp4274
F0.034358047016274866
s(g4239
Ntp4275
F0.07364341085271318
s(S'Comparison.Contrast.2'
p4276
g4253
tp4277
F0.003616636528028933
s(g4246
Ntp4278
F0.034358047016274866
s(g4227
S'Explicit'
p4279
tp4280
F0.001937984496124031
s(g4270
Ntp4281
F0.0379746835443038
s(Ng4234
tp4282
F0.02531645569620253
s(NS'Contingency.Condition.1'
p4283
tp4284
F0.0054249547920434
s(g4279
g4236
tp4285
F0.003875968992248062
s(g4268
S'Comparison.Contrast.1'
p4286
tp4287
F0.0018083182640144665
s(g4268
S'.1'
p4288
tp4289
F0.0018083182640144665
ssS'apwsE950331.0603-0-1.perm-11.txt.pipe'
p4290
(dp4291
sS'apwsE951210.0051-2-2-0.perm-1.txt.pipe'
p4292
(dp4293
sS'apwsE951221.0049-2-2-0.perm-1.txt.pipe'
p4294
(dp4295
sS'apwsE960207.0018-2-2-0.perm-12.txt.pipe'
p4296
(dp4297
(S'Comparison.Contrast.2'
p4298
S'Expansion.Conjunction.2'
p4299
tp4300
F0.06060606060606061
s(S'Comparison.Contrast.2'
p4301
Ntp4302
F0.06060606060606061
s(S'Expansion.Conjunction.1'
p4303
Ntp4304
F0.3333333333333333
s(NS'Explicit'
p4305
tp4306
F0.2857142857142857
s(NS'Comparison.Contrast.1'
p4307
tp4308
F0.09090909090909091
s(S'Comparison.Contrast.2'
p4309
S'Comparison.Contrast.1'
p4310
tp4311
F0.06060606060606061
s(g4305
S'Explicit'
p4312
tp4313
F0.19047619047619047
s(NS'Comparison.Contrast.2'
p4314
tp4315
F0.030303030303030304
s(NS'Expansion.Conjunction.2'
p4316
tp4317
F0.15151515151515152
s(S'Comparison.Contrast.1'
p4318
Ntp4319
F0.15151515151515152
s(S'Expansion.Conjunction.1'
p4320
g4310
tp4321
F0.06060606060606061
s(g4305
Ntp4322
F0.5238095238095238
ssS'apwsE950112.0297-0-1.perm-11.txt.pipe'
p4323
(dp4324
sS'apwsE960221.0036-0-1.perm-11.txt.pipe'
p4325
(dp4326
sS'apwsE951009.0278-2-2-0.perm-12.txt.pipe'
p4327
(dp4328
(S'Expansion.Conjunction.1'
p4329
Ntp4330
F0.04779411764705882
s(S'EntRel'
p4331
Ntp4332
F0.014705882352941176
s(S'Explicit'
p4333
S'Explicit'
p4334
tp4335
F0.003676470588235294
s(NNtp4336
F0.7536764705882353
s(NS'Expansion.Conjunction.2'
p4337
tp4338
F0.04411764705882353
s(S'.1'
p4339
Ntp4340
F0.014705882352941176
s(NS'Temporal.Synchrony.1'
p4341
tp4342
F0.003676470588235294
s(Ng4331
tp4343
F0.025735294117647058
s(Ng4339
tp4344
F0.011029411764705883
s(g4341
Ntp4345
F0.003676470588235294
s(S'Temporal.Synchrony.2'
p4346
Ntp4347
F0.011029411764705883
s(S'Expansion.Conjunction.2'
p4348
S'.1'
p4349
tp4350
F0.003676470588235294
s(NS'.2'
p4351
tp4352
F0.014705882352941176
s(NS'Explicit'
p4353
tp4354
F0.07720588235294118
s(S'Temporal.Synchrony.2'
p4355
S'.2'
p4356
tp4357
F0.003676470588235294
s(g4333
Ntp4358
F0.11764705882352941
s(g4348
S'Temporal.Synchrony.2'
p4359
tp4360
F0.003676470588235294
s(g4337
Ntp4361
F0.05514705882352941
s(NS'Expansion.Conjunction.1'
p4362
tp4363
F0.01838235294117647
s(g4333
g4331
tp4364
F0.007352941176470588
s(Ng4346
tp4365
F0.011029411764705883
ssS'apwsE950119.0186-0-1.perm-10.txt.pipe'
p4366
(dp4367
sS'apwsE950112.0297-0-1.perm-12.txt.pipe'
p4368
(dp4369
sS'apwsE951001.0242-2-2-0.perm-1.txt.pipe'
p4370
(dp4371
sS'apwsE950928.0094-0-1.perm-12.txt.pipe'
p4372
(dp4373
sS'apwsE951024.0123-2-2-0.perm-10.txt.pipe'
p4374
(dp4375
(S'Comparison.Contrast.2'
p4376
Ntp4377
F0.09615384615384616
s(NS'Explicit'
p4378
tp4379
F0.1346153846153846
s(S'Explicit'
p4380
Ntp4381
F0.25
s(NNtp4382
F0.6153846153846154
s(NS'Expansion.Conjunction.2'
p4383
tp4384
F0.057692307692307696
s(S'Comparison.Contrast.1'
p4385
Ntp4386
F0.15384615384615385
s(NS'Expansion.Conjunction.1'
p4387
tp4388
F0.07692307692307693
ssS'apwsE951018.0070-2-2-0.perm-13.txt.pipe'
p4389
(dp4390
sS'apwsE951020.0430-2-2-0.perm-11.txt.pipe'
p4391
(dp4392
(S'Comparison.Contrast.2'
p4393
S'Expansion.Conjunction.2'
p4394
tp4395
F0.014285714285714285
s(S'Comparison.Contrast.2'
p4396
Ntp4397
F0.02857142857142857
s(S'Expansion.Conjunction.1'
p4398
Ntp4399
F0.11428571428571428
s(NS'Explicit'
p4400
tp4401
F0.20689655172413793
s(NS'Comparison.Contrast.1'
p4402
tp4403
F0.05714285714285714
s(S'Explicit'
p4404
Ntp4405
F0.13793103448275862
s(S'Explicit'
p4406
g4404
tp4407
F0.017241379310344827
s(NS'Comparison.Contrast.2'
p4408
tp4409
F0.03571428571428571
s(NNtp4410
F0.6379310344827587
s(NS'Expansion.Conjunction.2'
p4411
tp4412
F0.16428571428571428
s(S'Comparison.Contrast.1'
p4413
Ntp4414
F0.05714285714285714
ssS'apwsE951122.0012-0-1.perm-12.txt.pipe'
p4415
(dp4416
sS'apwsE960313.0024-2-2-0.perm-12.txt.pipe'
p4417
(dp4418
sS'apwsE960207.0124-2-2-0.perm-10.txt.pipe'
p4419
(dp4420
sS'apwsE960203.0270-2-2-0.perm-13.txt.pipe'
p4421
(dp4422
(S'Expansion.Conjunction.1'
p4423
S'Expansion.Conjunction.2'
p4424
tp4425
F0.027777777777777776
s(S'Expansion.Conjunction.2'
p4426
Ntp4427
F0.16666666666666666
s(S'Explicit'
p4428
S'Explicit'
p4429
tp4430
F0.027777777777777776
s(S'Expansion.Conjunction.1'
p4431
Ntp4432
F0.1388888888888889
s(Ng4429
tp4433
F0.2777777777777778
s(g4428
Ntp4434
F0.3055555555555556
s(NS'Expansion.Conjunction.1'
p4435
tp4436
F0.1388888888888889
s(NNtp4437
F0.3888888888888889
s(NS'Expansion.Conjunction.2'
p4438
tp4439
F0.1388888888888889
ssS'apwsE951024.0020-2-2-0.perm-12.txt.pipe'
p4440
(dp4441
(S'Expansion.Conjunction.2'
p4442
Ntp4443
F0.05714285714285714
s(S'Expansion.Conjunction.1'
p4444
Ntp4445
F0.11428571428571428
s(NS'Explicit'
p4446
tp4447
F0.3142857142857143
s(NS'Comparison.Contrast.1'
p4448
tp4449
F0.11428571428571428
s(S'Explicit'
p4450
Ntp4451
F0.17142857142857143
s(g4450
g4446
tp4452
F0.02857142857142857
s(NS'Comparison.Contrast.2'
p4453
tp4454
F0.2
s(NNtp4455
F0.4857142857142857
s(S'Expansion.Conjunction.2'
p4456
S'Comparison.Contrast.1'
p4457
tp4458
F0.02857142857142857
ssS'apwsE960313.0061-2-2-0.perm-10.txt.pipe'
p4459
(dp4460
sS'apwsE960206.0441-2-2-0.perm-13.txt.pipe'
p4461
(dp4462
sS'apwsE951018.0182-2-2-0.perm-11.txt.pipe'
p4463
(dp4464
sS'apwsE960206.0441-2-2-0.perm-11.txt.pipe'
p4465
(dp4466
sS'apwsE950905.0546-2-2-0.perm-13.txt.pipe'
p4467
(dp4468
sS'apwsE960106.0047-2-2-0.perm-11.txt.pipe'
p4469
(dp4470
sS'apwsE950620.0596-0-1.perm-3.txt.pipe'
p4471
(dp4472
sS'apwsE951226.0004-2-2-0.perm-1.txt.pipe'
p4473
(dp4474
(NS'Explicit'
p4475
tp4476
F0.6
s(g4475
Ntp4477
F0.4
s(NS'Expansion.Conjunction.2'
p4478
tp4479
F0.6
s(S'Expansion.Conjunction.1'
p4480
Ntp4481
F0.4
ssS'apwsE951106.0072-2-2-0.perm-1.txt.pipe'
p4482
(dp4483
sS'apwsE950914.0071-0-1.perm-1.txt.pipe'
p4484
(dp4485
sS'apwsE951009.0244-2-2-0.perm-11.txt.pipe'
p4486
(dp4487
(S'Contingency.Cause.1'
p4488
Ntp4489
F0.01545253863134658
s(S'Expansion.Restatement.1'
p4490
Ntp4491
F0.002207505518763797
s(S'Implicit'
p4492
Ntp4493
F0.0380952380952381
s(S'Comparison.Contrast.2'
p4494
Ntp4495
F0.026490066225165563
s(S'.2'
p4496
S'.2'
p4497
tp4498
F0.006622516556291391
s(S'EntRel'
p4499
Ntp4500
F0.04523809523809524
s(S'Implicit'
p4501
g4499
tp4502
F0.004761904761904762
s(S'Explicit'
p4503
S'Explicit'
p4504
tp4505
F0.002380952380952381
s(NS'Comparison.Contrast.2'
p4506
tp4507
F0.008830022075055188
s(NNtp4508
F0.7095238095238096
s(NS'Expansion.Conjunction.2'
p4509
tp4510
F0.02869757174392936
s(S'.1'
p4511
Ntp4512
F0.037527593818984545
s(S'Comparison.Contrast.1'
p4513
Ntp4514
F0.024282560706401765
s(Ng4499
tp4515
F0.0761904761904762
s(S'Contingency.Cause.2'
p4516
Ntp4517
F0.019867549668874173
s(Ng4511
tp4518
F0.037527593818984545
s(NS'Expansion.Restatement.2'
p4519
tp4520
F0.026490066225165563
s(Ng4492
tp4521
F0.0380952380952381
s(NS'.2'
p4522
tp4523
F0.04856512141280353
s(g4499
S'EntRel'
p4524
tp4525
F0.007142857142857143
s(S'Comparison.Contrast.2'
p4526
S'Expansion.Conjunction.1'
p4527
tp4528
F0.002207505518763797
s(g4503
Ntp4529
F0.04047619047619048
s(Ng4504
tp4530
F0.0380952380952381
s(g4519
Ntp4531
F0.02207505518763797
s(NS'Expansion.Conjunction.1'
p4532
tp4533
F0.006622516556291391
s(g4522
Ntp4534
F0.019867549668874173
s(Ng4490
tp4535
F0.002207505518763797
s(S'Expansion.Restatement.2'
p4536
S'.2'
p4537
tp4538
F0.004415011037527594
s(S'Contingency.Cause.1'
p4539
g4527
tp4540
F0.002207505518763797
ssS'apwsE951003.0485-2-2-0.perm-12.txt.pipe'
p4541
(dp4542
sS'apwsE960108.0238-2-2-0.perm-10.txt.pipe'
p4543
(dp4544
(S'Contingency.Cause.1'
p4545
Ntp4546
F0.016611295681063124
s(S'Implicit'
p4547
Ntp4548
F0.07279693486590039
s(NS'EntRel'
p4549
tp4550
F0.1724137931034483
s(S'.2'
p4551
S'Contingency.Cause.2'
p4552
tp4553
F0.006644518272425249
s(S'.2'
p4554
g4551
tp4555
F0.019933554817275746
s(g4549
Ntp4556
F0.17624521072796934
s(g4547
S'EntRel'
p4557
tp4558
F0.019157088122605363
s(NNtp4559
F0.44061302681992337
s(S'.1'
p4560
Ntp4561
F0.12624584717607973
s(S'Contingency.Cause.1'
p4562
S'.1'
p4563
tp4564
F0.0033222591362126247
s(S'Contingency.Cause.2'
p4565
Ntp4566
F0.046511627906976744
s(S'.1'
p4567
g4562
tp4568
F0.0033222591362126247
s(S'EntRel'
p4569
g4547
tp4570
F0.011494252873563218
s(Ng4560
tp4571
F0.10631229235880399
s(S'.2'
p4572
S'.1'
p4573
tp4574
F0.0033222591362126247
s(Ng4547
tp4575
F0.08045977011494253
s(NS'.2'
p4576
tp4577
F0.10963455149501661
s(Ng4565
tp4578
F0.053156146179401995
s(S'Contingency.Cause.2'
p4579
S'.2'
p4580
tp4581
F0.013289036544850499
s(g4549
g4569
tp4582
F0.02681992337164751
s(S'.2'
p4583
g4562
tp4584
F0.0033222591362126247
s(g4576
Ntp4585
F0.08970099667774087
s(Ng4545
tp4586
F0.016611295681063124
ssS'apwsE951024.0110-2-2-0.perm-10.txt.pipe'
p4587
(dp4588
(S'Comparison.Concession.1'
p4589
Ntp4590
F0.0673076923076923
s(S'Expansion.Conjunction.1'
p4591
Ntp4592
F0.038461538461538464
s(NS'Explicit'
p4593
tp4594
F0.19230769230769232
s(NS'Comparison.Contrast.1'
p4595
tp4596
F0.0673076923076923
s(S'Explicit'
p4597
Ntp4598
F0.23076923076923078
s(S'Explicit'
p4599
g4597
tp4600
F0.019230769230769232
s(NS'Comparison.Contrast.2'
p4601
tp4602
F0.04807692307692308
s(NNtp4603
F0.5576923076923077
s(NS'Expansion.Conjunction.2'
p4604
tp4605
F0.04807692307692308
s(S'Comparison.Concession.1'
p4606
S'Expansion.Conjunction.1'
p4607
tp4608
F0.009615384615384616
s(g4604
Ntp4609
F0.038461538461538464
s(Ng4591
tp4610
F0.028846153846153848
s(S'Expansion.Conjunction.2'
p4611
S'Comparison.Contrast.1'
p4612
tp4613
F0.009615384615384616
s(S'Comparison.Concession.2'
p4614
Ntp4615
F0.08653846153846154
ssS'apwsE960221.0036-0-1.perm-1.txt.pipe'
p4616
(dp4617
sS'apwsE960108.0238-2-2-0.perm-13.txt.pipe'
p4618
(dp4619
(NS'EntRel'
p4620
tp4621
F0.1412037037037037
s(NS'.2'
p4622
tp4623
F0.11776061776061776
s(S'.2'
p4624
S'.2'
p4625
tp4626
F0.03474903474903475
s(g4620
Ntp4627
F0.14814814814814814
s(S'EntRel'
p4628
S'EntRel'
p4629
tp4630
F0.05787037037037037
s(S'.1'
p4631
S'.1'
p4632
tp4633
F0.013513513513513514
s(NNtp4634
F0.6527777777777778
s(NS'.1'
p4635
tp4636
F0.08301158301158301
s(g4622
Ntp4637
F0.0945945945945946
s(g4635
Ntp4638
F0.10424710424710425
s(S'.2'
p4639
g4632
tp4640
F0.007722007722007722
ssS'apwsE951121.0037-2-2-0.perm-11.txt.pipe'
p4641
(dp4642
(S'Comparison.Contrast.2'
p4643
Ntp4644
F0.1566265060240964
s(NS'.2'
p4645
tp4646
F0.08433734939759036
s(NS'Explicit'
p4647
tp4648
F0.11320754716981132
s(g4647
Ntp4649
F0.20754716981132076
s(S'Explicit'
p4650
g4647
tp4651
F0.025157232704402517
s(Ng4643
tp4652
F0.10843373493975904
s(NNtp4653
F0.41509433962264153
s(NS'.1'
p4654
tp4655
F0.05421686746987952
s(S'Comparison.Contrast.2'
p4656
S'.1'
p4657
tp4658
F0.018072289156626505
s(S'Comparison.Contrast.1'
p4659
Ntp4660
F0.08433734939759036
s(S'Comparison.Contrast.2'
p4661
S'Comparison.Contrast.2'
p4662
tp4663
F0.024096385542168676
s(NS'EntRel'
p4664
tp4665
F0.14465408805031446
s(g4647
g4664
tp4666
F0.018867924528301886
s(g4654
Ntp4667
F0.07228915662650602
s(g4664
Ntp4668
F0.07547169811320754
ssS'apwsE950919.0564-2-2-0.perm-12.txt.pipe'
p4669
(dp4670
(S'Expansion.Conjunction.2'
p4671
Ntp4672
F0.2391304347826087
s(S'Expansion.Conjunction.1'
p4673
S'Contingency.Cause.1'
p4674
tp4675
F0.021739130434782608
s(S'Explicit'
p4676
S'Explicit'
p4677
tp4678
F0.021739130434782608
s(NS'Contingency.Cause.2'
p4679
tp4680
F0.10869565217391304
s(Ng4677
tp4681
F0.1956521739130435
s(g4676
Ntp4682
F0.2826086956521739
s(S'Expansion.Conjunction.1'
p4683
Ntp4684
F0.043478260869565216
s(NNtp4685
F0.5
s(NS'Contingency.Cause.1'
p4686
tp4687
F0.08695652173913043
ssS'apwsE951024.0072-2-2-0.perm-1.txt.pipe'
p4688
(dp4689
(S'Comparison.Concession.1'
p4690
Ntp4691
F0.08333333333333333
s(S'Comparison.Contrast.2'
p4692
Ntp4693
F0.0625
s(S'Comparison.Contrast.1'
p4694
S'Comparison.Contrast.2'
p4695
tp4696
F0.010416666666666666
s(NS'Comparison.Contrast.1'
p4697
tp4698
F0.10416666666666667
s(S'Explicit'
p4699
Ntp4700
F0.25
s(g4699
S'Explicit'
p4701
tp4702
F0.0625
s(Ng4692
tp4703
F0.10416666666666667
s(NNtp4704
F0.4791666666666667
s(S'Comparison.Contrast.1'
p4705
Ntp4706
F0.020833333333333332
s(S'Comparison.Contrast.2'
p4707
S'Comparison.Contrast.2'
p4708
tp4709
F0.010416666666666666
s(Ng4701
tp4710
F0.20833333333333334
s(S'Comparison.Concession.2'
p4711
S'Comparison.Contrast.1'
p4712
tp4713
F0.010416666666666666
s(S'Comparison.Concession.2'
p4714
Ntp4715
F0.08333333333333333
s(S'Comparison.Contrast.1'
p4716
S'Comparison.Contrast.1'
p4717
tp4718
F0.03125
ssS'apwsE951001.0302-2-2-0.perm-13.txt.pipe'
p4719
(dp4720
(S'Implicit'
p4721
Ntp4722
F0.005494505494505495
s(NS'.2'
p4723
tp4724
F0.08791208791208792
s(S'Expansion.Conjunction.1'
p4725
Ntp4726
F0.005494505494505495
s(S'EntRel'
p4727
Ntp4728
F0.1043956043956044
s(NNtp4729
F0.7142857142857143
s(NS'Expansion.Conjunction.2'
p4730
tp4731
F0.07692307692307693
s(S'.1'
p4732
Ntp4733
F0.09340659340659341
s(Ng4727
tp4734
F0.08791208791208792
s(Ng4725
tp4735
F0.005494505494505495
s(S'.2'
p4736
Ntp4737
F0.01098901098901099
s(S'EntRel'
p4738
g4721
tp4739
F0.005494505494505495
s(Ng4721
tp4740
F0.08241758241758242
s(S'.2'
p4741
S'Expansion.Conjunction.2'
p4742
tp4743
F0.005494505494505495
ssS'apwsE960108.0194-2-2-0.perm-13.txt.pipe'
p4744
(dp4745
sS'apwsE950424.0128-0-1.perm-13.txt.pipe'
p4746
(dp4747
sS'apwsE951121.0037-2-2-0.perm-13.txt.pipe'
p4748
(dp4749
(S'Comparison.Contrast.2'
p4750
Ntp4751
F0.1746987951807229
s(NS'.2'
p4752
tp4753
F0.12048192771084337
s(NS'Explicit'
p4754
tp4755
F0.11320754716981132
s(g4754
Ntp4756
F0.22641509433962265
s(S'Explicit'
p4757
g4754
tp4758
F0.025157232704402517
s(Ng4750
tp4759
F0.10843373493975904
s(NNtp4760
F0.4339622641509434
s(NS'.1'
p4761
tp4762
F0.03614457831325301
s(S'Comparison.Contrast.1'
p4763
Ntp4764
F0.08433734939759036
s(S'Comparison.Contrast.2'
p4765
S'Comparison.Contrast.2'
p4766
tp4767
F0.024096385542168676
s(NS'EntRel'
p4768
tp4769
F0.16352201257861634
s(g4761
Ntp4770
F0.03614457831325301
s(g4768
Ntp4771
F0.03773584905660377
ssS'apwsE960313.0250-0-1.perm-10.txt.pipe'
p4772
(dp4773
sS'apwsE960108.0194-2-2-0.perm-10.txt.pipe'
p4774
(dp4775
sS'apwsE951216.0211-2-2-0.perm-12.txt.pipe'
p4776
(dp4777
sS'apwsE960206.0441-2-2-0.perm-12.txt.pipe'
p4778
(dp4779
sS'apwsE950928.0080-0-1.perm-12.txt.pipe'
p4780
(dp4781
sS'apwsE960207.0018-2-2-0.perm-10.txt.pipe'
p4782
(dp4783
(S'Expansion.Conjunction.1'
p4784
Ntp4785
F0.2894736842105263
s(NS'Explicit'
p4786
tp4787
F0.42424242424242425
s(NS'Comparison.Contrast.1'
p4788
tp4789
F0.13157894736842105
s(g4786
Ntp4790
F0.3333333333333333
s(NS'Comparison.Contrast.2'
p4791
tp4792
F0.02631578947368421
s(NNtp4793
F0.24242424242424243
s(NS'Expansion.Conjunction.2'
p4794
tp4795
F0.34210526315789475
ssS'apwsE951215.0060-2-2-0.perm-1.txt.pipe'
p4796
(dp4797
sS'apwsE951203.0078-2-2-0.perm-10.txt.pipe'
p4798
(dp4799
sS'apwsE950925.0091-0-1.perm-11.txt.pipe'
p4800
(dp4801
(NS'Explicit'
p4802
tp4803
F0.5909090909090909
s(g4802
Ntp4804
F0.4090909090909091
s(NS'Expansion.Conjunction.2'
p4805
tp4806
F0.5909090909090909
s(S'Expansion.Conjunction.1'
p4807
Ntp4808
F0.4090909090909091
ssS'apwsE951101.0026-0-1.perm-1.txt.pipe'
p4809
(dp4810
sS'apwsE960203.0270-2-2-0.perm-10.txt.pipe'
p4811
(dp4812
sS'apwsE960207.0488-2-2-0.perm-12.txt.pipe'
p4813
(dp4814
(S'Explicit'
p4815
S'Explicit'
p4816
tp4817
F0.1
s(S'Expansion.Conjunction.1'
p4818
Ntp4819
F0.16129032258064516
s(Ng4815
tp4820
F0.65
s(g4815
Ntp4821
F0.25
s(S'Expansion.Conjunction.1'
p4822
S'Expansion.Alternative.2'
p4823
tp4824
F0.06451612903225806
s(NS'Expansion.Conjunction.2'
p4825
tp4826
F0.3870967741935484
s(NS'Expansion.Alternative.2'
p4827
tp4828
F0.22580645161290322
s(NS'Expansion.Alternative.1'
p4829
tp4830
F0.16129032258064516
ssS'apwsE951009.0305-2-2-0.perm-10.txt.pipe'
p4831
(dp4832
(S'Contingency.Cause.1'
p4833
Ntp4834
F0.018912529550827423
s(S'Explicit'
p4835
S'Explicit'
p4836
tp4837
F0.010416666666666666
s(S'Comparison.Contrast.2'
p4838
S'Expansion.Conjunction.2'
p4839
tp4840
F0.002364066193853428
s(S'Comparison.Contrast.2'
p4841
Ntp4842
F0.037825059101654845
s(S'Expansion.Conjunction.1'
p4843
Ntp4844
F0.0425531914893617
s(S'Comparison.Contrast.1'
p4845
S'Expansion.Conjunction.2'
p4846
tp4847
F0.002364066193853428
s(S'Expansion.Conjunction.2'
p4848
g4839
tp4849
F0.002364066193853428
s(NS'Comparison.Contrast.2'
p4850
tp4851
F0.016548463356973995
s(NNtp4852
F0.7265625
s(NS'Expansion.Conjunction.2'
p4853
tp4854
F0.08983451536643026
s(S'Comparison.Contrast.1'
p4855
Ntp4856
F0.030732860520094562
s(NS'Temporal.Synchrony.1'
p4857
tp4858
F0.002364066193853428
s(g4846
S'Expansion.Conjunction.1'
p4859
tp4860
F0.002364066193853428
s(S'Contingency.Cause.2'
p4861
Ntp4862
F0.02127659574468085
s(g4857
Ntp4863
F0.002364066193853428
s(S'Temporal.Synchrony.2'
p4864
Ntp4865
F0.0070921985815602835
s(NS'Explicit'
p4866
tp4867
F0.15104166666666666
s(NS'Comparison.Contrast.1'
p4868
tp4869
F0.01182033096926714
s(S'Explicit'
p4870
Ntp4871
F0.11197916666666667
s(S'Expansion.Conjunction.2'
p4872
Ntp4873
F0.004728132387706856
s(S'Temporal.Synchrony.2'
p4874
S'Comparison.Contrast.2'
p4875
tp4876
F0.002364066193853428
s(NS'Expansion.Conjunction.1'
p4877
tp4878
F0.03309692671394799
s(Ng4864
tp4879
F0.009456264775413711
ssS'apwsE950914.0071-0-1.perm-13.txt.pipe'
p4880
(dp4881
sS'apwsE951210.0051-2-2-0.perm-10.txt.pipe'
p4882
(dp4883
sS'apwsE960303.0079-2-2-0.perm-10.txt.pipe'
p4884
(dp4885
sS'apwsE950827.0035-2-2-0.perm-10.txt.pipe'
p4886
(dp4887
(S'Contingency.Cause.1'
p4888
Ntp4889
F0.02702702702702703
s(S'Explicit'
p4890
S'Explicit'
p4891
tp4892
F0.11538461538461539
s(NS'Temporal.Asynchronous.2'
p4893
tp4894
F0.16216216216216217
s(NS'Temporal.Asynchronous.1'
p4895
tp4896
F0.08108108108108109
s(NS'Comparison.Contrast.1'
p4897
tp4898
F0.16216216216216217
s(g4890
Ntp4899
F0.4230769230769231
s(S'Contingency.Cause.2'
p4900
S'Comparison.Contrast.1'
p4901
tp4902
F0.02702702702702703
s(NS'Comparison.Contrast.2'
p4903
tp4904
F0.16216216216216217
s(g4900
S'Temporal.Asynchronous.2'
p4905
tp4906
F0.02702702702702703
s(NS'Explicit'
p4907
tp4908
F0.46153846153846156
s(S'Contingency.Cause.1'
p4909
S'Temporal.Asynchronous.1'
p4910
tp4911
F0.02702702702702703
s(S'Contingency.Cause.2'
p4912
Ntp4913
F0.2702702702702703
s(S'Contingency.Cause.1'
p4914
S'Comparison.Contrast.2'
p4915
tp4916
F0.02702702702702703
s(g4909
S'Comparison.Contrast.1'
p4917
tp4918
F0.02702702702702703
ssS'apwsE951221.0001-0-1.perm-13.txt.pipe'
p4919
(dp4920
(S'Comparison.Contrast.1'
p4921
Ntp4922
F0.08695652173913043
s(S'Comparison.Contrast.1'
p4923
S'Comparison.Contrast.1'
p4924
tp4925
F0.08695652173913043
s(S'Comparison.Contrast.2'
p4926
Ntp4927
F0.34782608695652173
s(NS'Explicit'
p4928
tp4929
F0.43478260869565216
s(NS'Comparison.Contrast.1'
p4930
tp4931
F0.17391304347826086
s(S'Comparison.Contrast.2'
p4932
S'Comparison.Contrast.1'
p4933
tp4934
F0.043478260869565216
s(S'Explicit'
p4935
g4928
tp4936
F0.13043478260869565
s(NS'Comparison.Contrast.2'
p4937
tp4938
F0.2608695652173913
s(g4935
Ntp4939
F0.43478260869565216
ssS'apwsE951018.0170-2-2-0.perm-10.txt.pipe'
p4940
(dp4941
sS'apwsE960216.0241-2-2-0.perm-10.txt.pipe'
p4942
(dp4943
sS'apwsE951108.0165-2-2-0.perm-10.txt.pipe'
p4944
(dp4945
(S'Expansion.Conjunction.1'
p4946
Ntp4947
F0.1440677966101695
s(NS'Explicit'
p4948
tp4949
F0.20175438596491227
s(S'Explicit'
p4950
Ntp4951
F0.15789473684210525
s(S'Explicit'
p4952
g4950
tp4953
F0.02631578947368421
s(NS'Comparison.Contrast.2'
p4954
tp4955
F0.11016949152542373
s(NNtp4956
F0.6140350877192983
s(NS'Expansion.Conjunction.2'
p4957
tp4958
F0.0847457627118644
s(S'Expansion.Conjunction.2'
p4959
Ntp4960
F0.03389830508474576
s(S'Comparison.Contrast.1'
p4961
Ntp4962
F0.00847457627118644
s(S'Expansion.Conjunction.2'
p4963
S'Expansion.Conjunction.2'
p4964
tp4965
F0.025423728813559324
ssS'apwsE951023.0362-2-2-0.perm-1.txt.pipe'
p4966
(dp4967
sS'apwsE950213.0175-0-1.perm-13.txt.pipe'
p4968
(dp4969
sS'apwsE960313.0061-2-2-0.perm-11.txt.pipe'
p4970
(dp4971
sS'apwsE960313.0024-2-2-0.perm-11.txt.pipe'
p4972
(dp4973
sS'apwsE960106.0047-2-2-0.perm-12.txt.pipe'
p4974
(dp4975
sS'apwsE950213.0175-0-1.perm-10.txt.pipe'
p4976
(dp4977
sS'apwsE951001.0302-2-2-0.perm-12.txt.pipe'
p4978
(dp4979
(S'Expansion.Restatement.1'
p4980
Ntp4981
F0.013205282112845138
s(S'Implicit'
p4982
Ntp4983
F0.02564102564102564
s(S'.2'
p4984
S'.2'
p4985
tp4986
F0.021608643457382955
s(NS'Temporal.Asynchronous.1'
p4987
tp4988
F0.007202881152460984
s(g4982
S'EntRel'
p4989
tp4990
F0.0038461538461538464
s(S'Temporal.Asynchronous.1'
p4991
Ntp4992
F0.003601440576230492
s(g4987
S'.1'
p4993
tp4994
F0.006002400960384154
s(S'.1'
p4995
g4993
tp4996
F0.010804321728691477
s(S'.1'
p4997
S'Temporal.Asynchronous.1'
p4998
tp4999
F0.0024009603841536613
s(g4993
Ntp5000
F0.060024009603841535
s(S'.2'
p5001
S'Expansion.Restatement.2'
p5002
tp5003
F0.0012004801920768306
s(g4982
S'Explicit'
p5004
tp5005
F0.002564102564102564
s(S'Temporal.Asynchronous.2'
p5006
Ntp5007
F0.006002400960384154
s(NS'EntRel'
p5008
tp5009
F0.1076923076923077
s(g5004
S'EntRel'
p5010
tp5011
F0.01282051282051282
s(g5008
g4982
tp5012
F0.0038461538461538464
s(Ng4995
tp5013
F0.04321728691476591
s(NS'Expansion.Restatement.2'
p5014
tp5015
F0.013205282112845138
s(S'Temporal.Asynchronous.2'
p5016
S'.2'
p5017
tp5018
F0.006002400960384154
s(S'Expansion.Restatement.2'
p5019
S'.1'
p5020
tp5021
F0.0024009603841536613
s(S'Temporal.Asynchronous.2'
p5022
S'.1'
p5023
tp5024
F0.0012004801920768306
s(Ng4982
tp5025
F0.02564102564102564
s(S'.1'
p5026
S'Expansion.Restatement.1'
p5027
tp5028
F0.0024009603841536613
s(Ng5006
tp5029
F0.012004801920768308
s(NS'.2'
p5030
tp5031
F0.08763505402160865
s(g4989
g5010
tp5032
F0.03461538461538462
s(Ng5004
tp5033
F0.020512820512820513
s(g5004
Ntp5034
F0.010256410256410256
s(g5019
g4998
tp5035
F0.0024009603841536613
s(g4989
g5004
tp5036
F0.002564102564102564
s(g5008
Ntp5037
F0.08846153846153847
s(S'.2'
p5038
g4993
tp5039
F0.007202881152460984
s(g5014
Ntp5040
F0.010804321728691477
s(g5030
Ntp5041
F0.04801920768307323
s(Ng4980
tp5042
F0.010804321728691477
s(S'Expansion.Restatement.2'
p5043
S'.2'
p5044
tp5045
F0.0012004801920768306
s(NNtp5046
F0.6615384615384615
ssS'apwsE960109.0103-2-2-0.perm-12.txt.pipe'
p5047
(dp5048
sS'apwsE951010.0087-2-2-0.perm-1.txt.pipe'
p5049
(dp5050
(S'Temporal.Synchrony.2'
p5051
Ntp5052
F0.006568144499178982
s(S'Temporal.Asynchronous.2'
p5053
S'Comparison.Contrast.2'
p5054
tp5055
F0.0016420361247947454
s(S'Comparison.Contrast.2'
p5056
Ntp5057
F0.013136288998357963
s(S'Expansion.Conjunction.1'
p5058
Ntp5059
F0.011494252873563218
s(NS'Explicit'
p5060
tp5061
F0.09655172413793103
s(NS'Comparison.Contrast.1'
p5062
tp5063
F0.013136288998357963
s(S'Temporal.Asynchronous.1'
p5064
Ntp5065
F0.014778325123152709
s(S'Explicit'
p5066
S'Explicit'
p5067
tp5068
F0.0017241379310344827
s(NS'Comparison.Contrast.2'
p5069
tp5070
F0.04433497536945813
s(NNtp5071
F0.8206896551724138
s(S'Expansion.Conjunction.2'
p5072
Ntp5073
F0.008210180623973728
s(S'Comparison.Contrast.1'
p5074
Ntp5075
F0.041050903119868636
s(NS'Temporal.Synchrony.1'
p5076
tp5077
F0.003284072249589491
s(S'Temporal.Asynchronous.2'
p5078
Ntp5079
F0.011494252873563218
s(S'Expansion.Conjunction.2'
p5080
g5054
tp5081
F0.0016420361247947454
s(NS'Temporal.Synchrony.2'
p5082
tp5083
F0.031198686371100164
s(S'Temporal.Synchrony.1'
p5084
Ntp5085
F0.016420361247947456
s(S'Explicit'
p5086
Ntp5087
F0.08103448275862069
ssS'apwsE950914.0074-0-1.perm-13.txt.pipe'
p5088
(dp5089
sS'apwsE951024.0020-2-2-0.perm-10.txt.pipe'
p5090
(dp5091
(S'Expansion.Conjunction.1'
p5092
S'Expansion.Conjunction.2'
p5093
tp5094
F0.014285714285714285
s(S'Explicit'
p5095
S'Explicit'
p5096
tp5097
F0.04285714285714286
s(S'Comparison.Contrast.2'
p5098
Ntp5099
F0.1
s(S'Expansion.Conjunction.1'
p5100
Ntp5101
F0.12857142857142856
s(Ng5096
tp5102
F0.15714285714285714
s(S'Comparison.Contrast.1'
p5103
S'Expansion.Conjunction.2'
p5104
tp5105
F0.014285714285714285
s(S'Expansion.Conjunction.2'
p5106
S'Expansion.Conjunction.2'
p5107
tp5108
F0.014285714285714285
s(NNtp5109
F0.4857142857142857
s(NS'Expansion.Conjunction.2'
p5110
tp5111
F0.07142857142857142
s(S'Expansion.Conjunction.2'
p5112
Ntp5113
F0.02857142857142857
s(S'Comparison.Contrast.1'
p5114
Ntp5115
F0.05714285714285714
s(NS'Expansion.Conjunction.1'
p5116
tp5117
F0.08571428571428572
s(S'Explicit'
p5118
Ntp5119
F0.3142857142857143
ssS'apwsE951020.0430-2-2-0.perm-1.txt.pipe'
p5120
(dp5121
(S'Explicit'
p5122
S'Explicit'
p5123
tp5124
F0.0625
s(S'Expansion.Conjunction.1'
p5125
Ntp5126
F0.125
s(Ng5122
tp5127
F0.1953125
s(NS'Comparison.Contrast.1'
p5128
tp5129
F0.05555555555555555
s(g5122
Ntp5130
F0.1796875
s(NS'Expansion.Conjunction.1'
p5131
tp5132
F0.020833333333333332
s(NS'Comparison.Contrast.2'
p5133
tp5134
F0.027777777777777776
s(NNtp5135
F0.5625
s(NS'Expansion.Conjunction.2'
p5136
tp5137
F0.16666666666666666
s(S'Expansion.Conjunction.2'
p5138
Ntp5139
F0.04861111111111111
s(g5131
S'Comparison.Contrast.2'
p5140
tp5141
F0.006944444444444444
s(g5136
S'Expansion.Conjunction.2'
p5142
tp5143
F0.034722222222222224
s(S'Expansion.Conjunction.1'
p5144
S'Expansion.Conjunction.1'
p5145
tp5146
F0.013888888888888888
ssS'apwsE951210.0356-2-2-0.perm-1.txt.pipe'
p5147
(dp5148
sS'apwsE951201.0003-2-2-0.perm-13.txt.pipe'
p5149
(dp5150
sS'apwsE951021.0001-2-2-0.perm-12.txt.pipe'
p5151
(dp5152
(S'Comparison.Contrast.2'
p5153
Ntp5154
F0.04328018223234624
s(S'Expansion.Conjunction.1'
p5155
Ntp5156
F0.05694760820045558
s(NS'Temporal.Asynchronous.1'
p5157
tp5158
F0.01366742596810934
s(S'Explicit'
p5159
S'Explicit'
p5160
tp5161
F0.01627906976744186
s(NS'Comparison.Contrast.2'
p5162
tp5163
F0.015945330296127564
s(NNtp5164
F0.6953488372093023
s(NS'Expansion.Conjunction.2'
p5165
tp5166
F0.025056947608200455
s(S'Expansion.Conjunction.1'
p5167
S'Contingency.Cause.1'
p5168
tp5169
F0.002277904328018223
s(S'Comparison.Contrast.1'
p5170
Ntp5171
F0.04783599088838269
s(S'Comparison.Contrast.2'
p5172
g5153
tp5173
F0.00683371298405467
s(NS'Contingency.Condition.2'
p5174
tp5175
F0.00683371298405467
s(NS'Temporal.Asynchronous.2'
p5176
tp5177
F0.009111617312072893
s(NS'Contingency.Cause.2'
p5178
tp5179
F0.02050113895216401
s(NS'Explicit'
p5180
tp5181
F0.13953488372093023
s(Ng5170
tp5182
F0.03189066059225513
s(g5160
Ntp5183
F0.14883720930232558
s(S'Comparison.Contrast.2'
p5184
S'Contingency.Condition.1'
p5185
tp5186
F0.002277904328018223
s(S'Expansion.Conjunction.1'
p5187
S'Contingency.Cause.2'
p5188
tp5189
F0.002277904328018223
s(S'Expansion.Conjunction.2'
p5190
Ntp5191
F0.011389521640091117
s(S'Expansion.Conjunction.2'
p5192
g5153
tp5193
F0.00683371298405467
s(NS'Contingency.Condition.1'
p5194
tp5195
F0.004555808656036446
s(S'Comparison.Contrast.1'
p5196
S'Contingency.Condition.2'
p5197
tp5198
F0.002277904328018223
s(NS'Contingency.Cause.1'
p5199
tp5200
F0.009111617312072893
ssS'apwsE951024.0110-2-2-0.perm-13.txt.pipe'
p5201
(dp5202
(S'Expansion.Conjunction.1'
p5203
Ntp5204
F0.0673076923076923
s(NS'Explicit'
p5205
tp5206
F0.27884615384615385
s(NS'Comparison.Contrast.1'
p5207
tp5208
F0.07692307692307693
s(S'Explicit'
p5209
Ntp5210
F0.14423076923076922
s(g5209
S'Explicit'
p5211
tp5212
F0.009615384615384616
s(NS'Comparison.Contrast.2'
p5213
tp5214
F0.04807692307692308
s(NNtp5215
F0.5673076923076923
s(S'Expansion.Conjunction.1'
p5216
S'Comparison.Concession.1'
p5217
tp5218
F0.009615384615384616
s(S'Expansion.Conjunction.2'
p5219
Ntp5220
F0.07692307692307693
s(NS'Comparison.Concession.1'
p5221
tp5222
F0.0673076923076923
s(NS'Comparison.Concession.2'
p5223
tp5224
F0.08653846153846154
ssS'apwsE951003.0485-2-2-0.perm-10.txt.pipe'
p5225
(dp5226
sS'apwsE951108.0165-2-2-0.perm-1.txt.pipe'
p5227
(dp5228
(S'Comparison.Contrast.2'
p5229
Ntp5230
F0.06451612903225806
s(S'Expansion.Conjunction.1'
p5231
Ntp5232
F0.07373271889400922
s(S'Comparison.Contrast.2'
p5233
S'Expansion.Conjunction.1'
p5234
tp5235
F0.004608294930875576
s(S'Explicit'
p5236
Ntp5237
F0.17391304347826086
s(S'Explicit'
p5238
S'Explicit'
p5239
tp5240
F0.004830917874396135
s(NS'Comparison.Contrast.2'
p5241
tp5242
F0.06912442396313365
s(NNtp5243
F0.6135265700483091
s(NS'Expansion.Conjunction.2'
p5244
tp5245
F0.09216589861751152
s(S'Expansion.Conjunction.2'
p5246
Ntp5247
F0.02304147465437788
s(S'Comparison.Contrast.1'
p5248
Ntp5249
F0.05069124423963134
s(Ng5239
tp5250
F0.20772946859903382
s(NS'Expansion.Conjunction.1'
p5251
tp5252
F0.03686635944700461
ssS'apwsE950919.0594-2-2-0.perm-1.txt.pipe'
p5253
(dp5254
sS'apwsE951009.0305-2-2-0.perm-1.txt.pipe'
p5255
(dp5256
(S'Contingency.Cause.1'
p5257
Ntp5258
F0.01616161616161616
s(S'Explicit'
p5259
S'Explicit'
p5260
tp5261
F0.022727272727272728
s(S'Comparison.Contrast.2'
p5262
Ntp5263
F0.03838383838383838
s(S'Expansion.Conjunction.1'
p5264
Ntp5265
F0.030303030303030304
s(NS'Expansion.Conjunction.1'
p5266
tp5267
F0.028282828282828285
s(NS'Comparison.Contrast.2'
p5268
tp5269
F0.026262626262626262
s(NNtp5270
F0.6977272727272728
s(NS'Expansion.Conjunction.2'
p5271
tp5272
F0.06868686868686869
s(S'Comparison.Contrast.1'
p5273
Ntp5274
F0.048484848484848485
s(NS'Temporal.Synchrony.1'
p5275
tp5276
F0.00202020202020202
s(S'Comparison.Contrast.2'
p5277
S'Comparison.Contrast.2'
p5278
tp5279
F0.00202020202020202
s(S'Expansion.Conjunction.2'
p5280
S'Expansion.Conjunction.1'
p5281
tp5282
F0.00202020202020202
s(S'Contingency.Cause.2'
p5283
Ntp5284
F0.01818181818181818
s(S'Expansion.Conjunction.2'
p5285
S'Comparison.Contrast.2'
p5286
tp5287
F0.010101010101010102
s(NS'Temporal.Synchrony.2'
p5288
tp5289
F0.00808080808080808
s(NS'Explicit'
p5290
tp5291
F0.14545454545454545
s(NS'Comparison.Contrast.1'
p5292
tp5293
F0.03434343434343434
s(S'Explicit'
p5294
Ntp5295
F0.1340909090909091
s(S'Expansion.Conjunction.2'
p5296
Ntp5297
F0.03636363636363636
s(S'Comparison.Contrast.1'
p5298
g5281
tp5299
F0.00202020202020202
s(S'Expansion.Conjunction.2'
p5300
S'Expansion.Conjunction.2'
p5301
tp5302
F0.00202020202020202
s(S'Expansion.Conjunction.1'
p5303
S'Comparison.Contrast.1'
p5304
tp5305
F0.006060606060606061
ssS'apwsE960221.0036-0-1.perm-13.txt.pipe'
p5306
(dp5307
sS'apwsE951024.0110-2-2-0.perm-12.txt.pipe'
p5308
(dp5309
(S'Comparison.Contrast.2'
p5310
Ntp5311
F0.04807692307692308
s(S'Expansion.Conjunction.1'
p5312
Ntp5313
F0.019230769230769232
s(NS'Explicit'
p5314
tp5315
F0.17307692307692307
s(NS'Comparison.Contrast.1'
p5316
tp5317
F0.057692307692307696
s(S'Explicit'
p5318
Ntp5319
F0.17307692307692307
s(NS'Comparison.Contrast.2'
p5320
tp5321
F0.0673076923076923
s(NNtp5322
F0.6538461538461539
s(NS'Expansion.Conjunction.2'
p5323
tp5324
F0.028846153846153848
s(g5323
Ntp5325
F0.028846153846153848
s(S'Comparison.Contrast.1'
p5326
Ntp5327
F0.07692307692307693
s(Ng5312
tp5328
F0.019230769230769232
ssS'apwsE951018.0070-2-2-0.perm-1.txt.pipe'
p5329
(dp5330
sS'apwsE960108.0194-2-2-0.perm-11.txt.pipe'
p5331
(dp5332
sS'apwsE950620.0596-0-1.perm-10.txt.pipe'
p5333
(dp5334
sS'apwsE950822.0071-0-1.perm-12.txt.pipe'
p5335
(dp5336
sS'apwsE950905.0546-2-2-0.perm-1.txt.pipe'
p5337
(dp5338
sS'apwsE951024.0020-2-2-0.perm-1.txt.pipe'
p5339
(dp5340
(S'Expansion.Conjunction.1'
p5341
S'Expansion.Conjunction.2'
p5342
tp5343
F0.02857142857142857
s(S'Explicit'
p5344
S'Explicit'
p5345
tp5346
F0.05714285714285714
s(S'Expansion.Conjunction.1'
p5347
Ntp5348
F0.12380952380952381
s(Ng5345
tp5349
F0.23809523809523808
s(NS'Comparison.Contrast.1'
p5350
tp5351
F0.0380952380952381
s(S'Explicit'
p5352
Ntp5353
F0.2
s(S'Expansion.Conjunction.2'
p5354
S'Expansion.Conjunction.2'
p5355
tp5356
F0.009523809523809525
s(NS'Comparison.Contrast.2'
p5357
tp5358
F0.06666666666666667
s(NNtp5359
F0.5047619047619047
s(NS'Expansion.Conjunction.2'
p5360
tp5361
F0.06666666666666667
s(S'Expansion.Conjunction.2'
p5362
Ntp5363
F0.0761904761904762
s(S'Expansion.Conjunction.2'
p5364
S'Expansion.Conjunction.1'
p5365
tp5366
F0.009523809523809525
s(NS'Expansion.Conjunction.1'
p5367
tp5368
F0.06666666666666667
s(g5355
S'Comparison.Contrast.1'
p5369
tp5370
F0.009523809523809525
ssS'apwsE950928.0080-0-1.perm-11.txt.pipe'
p5371
(dp5372
sS'apwsE951009.0294-2-2-0.perm-1.txt.pipe'
p5373
(dp5374
sS'apwsE950919.0202-2-2-0.perm-10.txt.pipe'
p5375
(dp5376
sS'apwsE951004.0060-2-2-0.perm-1.txt.pipe'
p5377
(dp5378
sS'apwsE950424.0128-0-1.perm-10.txt.pipe'
p5379
(dp5380
sS'apwsE951009.0216-2-2-0.perm-10.txt.pipe'
p5381
(dp5382
sS'apwsE960109.0130-2-2-0.perm-1.txt.pipe'
p5383
(dp5384
sS'apwsE951122.0004-0-1.perm-13.txt.pipe'
p5385
(dp5386
sS'apwsE950919.0594-2-2-0.perm-13.txt.pipe'
p5387
(dp5388
sS'apwsE951101.0026-0-1.perm-12.txt.pipe'
p5389
(dp5390
(S'Comparison.Contrast.1'
p5391
Ntp5392
F0.08695652173913043
s(S'Comparison.Contrast.1'
p5393
S'Comparison.Contrast.1'
p5394
tp5395
F0.08695652173913043
s(S'Comparison.Contrast.2'
p5396
Ntp5397
F0.34782608695652173
s(NS'Explicit'
p5398
tp5399
F0.43478260869565216
s(NS'Comparison.Contrast.1'
p5400
tp5401
F0.17391304347826086
s(S'Comparison.Contrast.2'
p5402
S'Comparison.Contrast.1'
p5403
tp5404
F0.043478260869565216
s(S'Explicit'
p5405
g5398
tp5406
F0.13043478260869565
s(NS'Comparison.Contrast.2'
p5407
tp5408
F0.2608695652173913
s(g5405
Ntp5409
F0.43478260869565216
ssS'apwsE950425.0109-0-1.perm-1.txt.pipe'
p5410
(dp5411
sS'apwsE951020.0430-2-2-0.perm-10.txt.pipe'
p5412
(dp5413
(S'Comparison.Contrast.1'
p5414
S'Comparison.Contrast.1'
p5415
tp5416
F0.0035714285714285713
s(S'Comparison.Contrast.2'
p5417
Ntp5418
F0.03571428571428571
s(S'Expansion.Conjunction.1'
p5419
Ntp5420
F0.039285714285714285
s(NS'Explicit'
p5421
tp5422
F0.1828358208955224
s(NS'Comparison.Contrast.1'
p5423
tp5424
F0.05357142857142857
s(S'Explicit'
p5425
Ntp5426
F0.11940298507462686
s(S'Explicit'
p5427
g5421
tp5428
F0.0037313432835820895
s(NS'Comparison.Contrast.2'
p5429
tp5430
F0.039285714285714285
s(NNtp5431
F0.6940298507462687
s(NS'Expansion.Conjunction.2'
p5432
tp5433
F0.1
s(g5432
Ntp5434
F0.02857142857142857
s(S'Comparison.Contrast.1'
p5435
Ntp5436
F0.010714285714285714
s(Ng5419
tp5437
F0.025
ssS'apwsE951121.0032-2-2-0.perm-13.txt.pipe'
p5438
(dp5439
sS'apwsE950919.0580-2-2-0.perm-1.txt.pipe'
p5440
(dp5441
sS'apwsE951009.0278-2-2-0.perm-11.txt.pipe'
p5442
(dp5443
(NS'.2'
p5444
tp5445
F0.021367521367521368
s(S'Comparison.Contrast.2'
p5446
Ntp5447
F0.029914529914529916
s(S'Expansion.Conjunction.1'
p5448
Ntp5449
F0.038461538461538464
s(S'EntRel'
p5450
Ntp5451
F0.04700854700854701
s(S'Explicit'
p5452
Ntp5453
F0.0811965811965812
s(NNtp5454
F0.7692307692307693
s(NS'Expansion.Conjunction.2'
p5455
tp5456
F0.03418803418803419
s(S'.1'
p5457
Ntp5458
F0.04700854700854701
s(S'Comparison.Contrast.1'
p5459
Ntp5460
F0.01282051282051282
s(NS'Explicit'
p5461
tp5462
F0.03418803418803419
s(Ng5450
tp5463
F0.06837606837606838
s(Ng5457
tp5464
F0.04700854700854701
ssS'apwsE950914.0071-0-1.perm-11.txt.pipe'
p5465
(dp5466
sS'apwsE960109.0412-0-1.perm-11.txt.pipe'
p5467
(dp5468
sS'apwsE951221.0049-2-2-0.perm-13.txt.pipe'
p5469
(dp5470
sS'apwsE950919.0202-2-2-0.perm-11.txt.pipe'
p5471
(dp5472
sS'apwsE960313.0024-2-2-0.perm-1.txt.pipe'
p5473
(dp5474
sS'apwsE951218.0398-0-1.perm-13.txt.pipe'
p5475
(dp5476
(S'Comparison.Contrast.1'
p5477
Ntp5478
F0.08695652173913043
s(S'Comparison.Contrast.1'
p5479
S'Comparison.Contrast.1'
p5480
tp5481
F0.08695652173913043
s(S'Comparison.Contrast.2'
p5482
Ntp5483
F0.34782608695652173
s(NS'Explicit'
p5484
tp5485
F0.43478260869565216
s(NS'Comparison.Contrast.1'
p5486
tp5487
F0.17391304347826086
s(S'Comparison.Contrast.2'
p5488
S'Comparison.Contrast.1'
p5489
tp5490
F0.043478260869565216
s(S'Explicit'
p5491
g5484
tp5492
F0.13043478260869565
s(NS'Comparison.Contrast.2'
p5493
tp5494
F0.2608695652173913
s(g5491
Ntp5495
F0.43478260869565216
ssS'apwsE951024.0005-2-2-0.perm-11.txt.pipe'
p5496
(dp5497
(S'Explicit'
p5498
S'Explicit'
p5499
tp5500
F0.0015723270440251573
s(S'.2'
p5501
S'Expansion.Conjunction.1'
p5502
tp5503
F0.0026490066225165563
s(S'Comparison.Contrast.2'
p5504
Ntp5505
F0.006622516556291391
s(S'.2'
p5506
S'.2'
p5507
tp5508
F0.033112582781456956
s(S'.1'
p5509
S'Expansion.Conjunction.2'
p5510
tp5511
F0.0026490066225165563
s(S'Comparison.Contrast.1'
p5512
S'Expansion.Conjunction.2'
p5513
tp5514
F0.0013245033112582781
s(S'Comparison.Contrast.1'
p5515
S'.1'
p5516
tp5517
F0.0026490066225165563
s(NS'Comparison.Contrast.2'
p5518
tp5519
F0.007947019867549669
s(S'.1'
p5520
S'.1'
p5521
tp5522
F0.018543046357615896
s(NS'Expansion.Conjunction.2'
p5523
tp5524
F0.007947019867549669
s(S'.1'
p5525
Ntp5526
F0.09536423841059603
s(g5518
S'.1'
p5527
tp5528
F0.0013245033112582781
s(S'Comparison.Contrast.1'
p5529
Ntp5530
F0.003973509933774834
s(Ng5525
tp5531
F0.08344370860927153
s(NS'EntRel'
p5532
tp5533
F0.139937106918239
s(S'Expansion.Conjunction.2'
p5534
S'.2'
p5535
tp5536
F0.0013245033112582781
s(S'.2'
p5537
g5521
tp5538
F0.009271523178807948
s(S'.2'
p5539
g5510
tp5540
F0.0026490066225165563
s(S'.1'
p5541
g5502
tp5542
F0.0026490066225165563
s(g5523
g5521
tp5543
F0.0013245033112582781
s(g5532
S'EntRel'
p5544
tp5545
F0.06132075471698113
s(Ng5499
tp5546
F0.031446540880503145
s(Ng5529
tp5547
F0.005298013245033113
s(g5498
Ntp5548
F0.020440251572327043
s(S'Expansion.Conjunction.1'
p5549
Ntp5550
F0.0026490066225165563
s(g5544
S'Explicit'
p5551
tp5552
F0.007861635220125786
s(S'Expansion.Conjunction.2'
p5553
Ntp5554
F0.003973509933774834
s(g5544
Ntp5555
F0.13679245283018868
s(S'.1'
p5556
g5515
tp5557
F0.0013245033112582781
s(Ng5506
tp5558
F0.11258278145695365
s(Ng5549
tp5559
F0.005298013245033113
s(g5507
Ntp5560
F0.0847682119205298
s(g5499
S'EntRel'
p5561
tp5562
F0.007861635220125786
s(NNtp5563
F0.5927672955974843
ssS'apwsE951018.0170-2-2-0.perm-12.txt.pipe'
p5564
(dp5565
sS'apwsE951106.0072-2-2-0.perm-10.txt.pipe'
p5566
(dp5567
sS'apwsE951210.0051-2-2-0.perm-12.txt.pipe'
p5568
(dp5569
sS'apwsE951009.0245-2-2-0.perm-13.txt.pipe'
p5570
(dp5571
(S'Contingency.Cause.1'
p5572
Ntp5573
F0.005005561735261402
s(NS'Expansion.Instantiation.2'
p5574
tp5575
F0.008342602892102336
s(S'Implicit'
p5576
Ntp5577
F0.03466509988249119
s(S'Comparison.Contrast.2'
p5578
Ntp5579
F0.002224694104560623
s(S'.2'
p5580
S'.2'
p5581
tp5582
F0.008342602892102336
s(S'.1'
p5583
S'Expansion.Conjunction.2'
p5584
tp5585
F0.0005561735261401557
s(S'Explicit'
p5586
S'Explicit'
p5587
tp5588
F0.0017626321974148062
s(NS'Comparison.Contrast.2'
p5589
tp5590
F0.006117908787541713
s(S'.1'
p5591
S'.1'
p5592
tp5593
F0.002224694104560623
s(NS'Expansion.Conjunction.2'
p5594
tp5595
F0.009454949944382647
s(S'.1'
p5596
Ntp5597
F0.034482758620689655
s(S'Expansion.Conjunction.1'
p5598
S'Contingency.Cause.1'
p5599
tp5600
F0.0005561735261401557
s(S'Comparison.Contrast.1'
p5601
Ntp5602
F0.00778642936596218
s(g5598
S'Comparison.Contrast.2'
p5603
tp5604
F0.0005561735261401557
s(S'Contingency.Cause.1'
p5605
S'.1'
p5606
tp5607
F0.0011123470522803114
s(S'Contingency.Cause.2'
p5608
Ntp5609
F0.010011123470522803
s(g5574
Ntp5610
F0.0055617352614015575
s(S'EntRel'
p5611
S'Implicit'
p5612
tp5613
F0.0023501762632197414
s(S'Temporal.Synchrony.1'
p5614
Ntp5615
F0.0005561735261401557
s(S'.2'
p5616
g5584
tp5617
F0.0005561735261401557
s(S'Expansion.Restatement.2'
p5618
g5592
tp5619
F0.0011123470522803114
s(Ng5576
tp5620
F0.03701527614571093
s(S'Implicit'
p5621
g5612
tp5622
F0.0023501762632197414
s(NS'.2'
p5623
tp5624
F0.03670745272525028
s(NS'Contingency.Cause.2'
p5625
tp5626
F0.018909899888765295
s(g5625
S'.2'
p5627
tp5628
F0.005005561735261402
s(NS'Comparison.Contrast.1'
p5629
tp5630
F0.004449388209121246
s(S'Explicit'
p5631
Ntp5632
F0.009400705052878966
s(g5621
g5587
tp5633
F0.0017626321974148062
s(S'Expansion.Conjunction.2'
p5634
Ntp5635
F0.004449388209121246
s(g5606
S'Expansion.Instantiation.1'
p5636
tp5637
F0.0005561735261401557
s(S'Expansion.Restatement.2'
p5638
Ntp5639
F0.004449388209121246
s(NS'Expansion.Conjunction.1'
p5640
tp5641
F0.0033370411568409346
s(g5587
g5612
tp5642
F0.0023501762632197414
s(S'Contingency.Cause.1'
p5643
S'Expansion.Conjunction.1'
p5644
tp5645
F0.0016685205784204673
s(S'Contingency.Cause.2'
p5646
g5608
tp5647
F0.0005561735261401557
s(S'Expansion.Restatement.1'
p5648
Ntp5649
F0.0005561735261401557
s(S'.2'
p5650
S'Contingency.Cause.2'
p5651
tp5652
F0.0011123470522803114
s(g5640
Ntp5653
F0.0033370411568409346
s(S'EntRel'
p5654
Ntp5655
F0.0499412455934195
s(g5612
S'EntRel'
p5656
tp5657
F0.011750881316098707
s(S'.1'
p5658
g5603
tp5659
F0.0005561735261401557
s(g5643
g5572
tp5660
F0.0016685205784204673
s(NNtp5661
F0.7426556991774383
s(Ng5596
tp5662
F0.035038932146829814
s(Ng5614
tp5663
F0.0005561735261401557
s(S'Temporal.Synchrony.2'
p5664
g5572
tp5665
F0.0011123470522803114
s(S'Expansion.Conjunction.1'
p5666
g5606
tp5667
F0.0011123470522803114
s(Ng5654
tp5668
F0.057579318448883664
s(g5631
S'EntRel'
p5669
tp5670
F0.006462984723854289
s(g5658
g5599
tp5671
F0.0011123470522803114
s(S'Expansion.Restatement.2'
p5672
S'.2'
p5673
tp5674
F0.0011123470522803114
s(S'Expansion.Instantiation.2'
p5675
S'.2'
p5676
tp5677
F0.0027808676307007787
s(S'Expansion.Conjunction.2'
p5678
S'.2'
p5679
tp5680
F0.005005561735261402
s(Ng5638
tp5681
F0.006674082313681869
s(g5616
S'.1'
p5682
tp5683
F0.0005561735261401557
s(S'.2'
p5684
g5603
tp5685
F0.0011123470522803114
s(S'Temporal.Synchrony.2'
p5686
Ntp5687
F0.0005561735261401557
s(NS'Expansion.Instantiation.1'
p5688
tp5689
F0.0005561735261401557
s(g5636
Ntp5690
F0.0011123470522803114
s(S'EntRel'
p5691
g5611
tp5692
F0.011163337250293772
s(NS'Explicit'
p5693
tp5694
F0.02526439482961222
s(g5611
g5587
tp5695
F0.0035252643948296123
s(S'.2'
p5696
g5572
tp5697
F0.0016685205784204673
s(S'Temporal.Synchrony.2'
p5698
S'Contingency.Cause.2'
p5699
tp5700
F0.0005561735261401557
s(S'.1'
p5701
S'Comparison.Contrast.1'
p5702
tp5703
F0.0005561735261401557
s(NS'Contingency.Cause.1'
p5704
tp5705
F0.009454949944382647
s(g5696
g5644
tp5706
F0.0011123470522803114
s(g5664
g5644
tp5707
F0.0011123470522803114
s(g5627
Ntp5708
F0.028921023359288096
s(Ng5648
tp5709
F0.0005561735261401557
s(Ng5664
tp5710
F0.002224694104560623
s(g5594
g5608
tp5711
F0.0005561735261401557
ssS'apwsE960207.0488-2-2-0.perm-13.txt.pipe'
p5712
(dp5713
(S'Expansion.Conjunction.1'
p5714
Ntp5715
F0.23684210526315788
s(NS'Explicit'
p5716
tp5717
F0.64
s(NS'Expansion.Alternative.2'
p5718
tp5719
F0.23684210526315788
s(g5716
Ntp5720
F0.36
s(NS'Expansion.Alternative.1'
p5721
tp5722
F0.13157894736842105
s(NS'Expansion.Conjunction.2'
p5723
tp5724
F0.39473684210526316
ssS'apwsE950425.0109-0-1.perm-13.txt.pipe'
p5725
(dp5726
sS'apwsE960313.0024-2-2-0.perm-13.txt.pipe'
p5727
(dp5728
sS'apwsE960216.0269-2-2-0.perm-13.txt.pipe'
p5729
(dp5730
(S'Contingency.Cause.1'
p5731
Ntp5732
F0.04332129963898917
s(S'Contingency.Cause.2'
p5733
S'Comparison.Contrast.2'
p5734
tp5735
F0.0036101083032490976
s(S'Implicit'
p5736
Ntp5737
F0.17269076305220885
s(S'Expansion.Conjunction.1'
p5738
Ntp5739
F0.06859205776173286
s(NS'Temporal.Asynchronous.1'
p5740
tp5741
F0.018050541516245487
s(S'Temporal.Asynchronous.1'
p5742
Ntp5743
F0.08303249097472924
s(S'Explicit'
p5744
S'Explicit'
p5745
tp5746
F0.004016064257028112
s(NS'Comparison.Contrast.2'
p5747
tp5748
F0.021660649819494584
s(NNtp5749
F0.5341365461847389
s(NS'Expansion.Conjunction.2'
p5750
tp5751
F0.007220216606498195
s(S'Temporal.Asynchronous.1'
p5752
g5734
tp5753
F0.0036101083032490976
s(g5736
g5745
tp5754
F0.004016064257028112
s(S'Temporal.Asynchronous.2'
p5755
Ntp5756
F0.039711191335740074
s(S'Contingency.Cause.2'
p5757
Ntp5758
F0.02888086642599278
s(Ng5736
tp5759
F0.09236947791164658
s(NS'Temporal.Asynchronous.2'
p5760
tp5761
F0.061371841155234655
s(Ng5757
tp5762
F0.032490974729241874
s(Ng5745
tp5763
F0.09236947791164658
s(NS'Comparison.Contrast.1'
p5764
tp5765
F0.04332129963898917
s(S'Explicit'
p5766
Ntp5767
F0.09236947791164658
s(g5750
Ntp5768
F0.01444043321299639
s(S'Temporal.Asynchronous.2'
p5769
S'Expansion.Conjunction.2'
p5770
tp5771
F0.007220216606498195
s(g5766
S'Implicit'
p5772
tp5773
F0.008032128514056224
s(Ng5731
tp5774
F0.04332129963898917
ssS'apwsE960109.0103-2-2-0.perm-11.txt.pipe'
p5775
(dp5776
sS'apwsE960214.0448-2-2-0.perm-13.txt.pipe'
p5777
(dp5778
sS'apwsE951006.0493-2-2-0.perm-10.txt.pipe'
p5779
(dp5780
(S'Contingency.Cause.1'
p5781
Ntp5782
F0.0032967032967032967
s(S'Temporal.Asynchronous.2'
p5783
S'Comparison.Contrast.2'
p5784
tp5785
F0.004395604395604396
s(S'Comparison.Concession.1'
p5786
Ntp5787
F0.007692307692307693
s(S'Comparison.Contrast.2'
p5788
Ntp5789
F0.024175824175824177
s(S'Expansion.Conjunction.1'
p5790
Ntp5791
F0.025274725274725275
s(S'Comparison.Contrast.1'
p5792
S'Expansion.Conjunction.2'
p5793
tp5794
F0.0032967032967032967
s(S'Explicit'
p5795
S'Explicit'
p5796
tp5797
F0.02453271028037383
s(Ng5788
tp5798
F0.03956043956043956
s(NNtp5799
F0.7476635514018691
s(NS'Expansion.Conjunction.2'
p5800
tp5801
F0.016483516483516484
s(S'Contingency.Cause.2'
p5802
S'Expansion.Conjunction.2'
p5803
tp5804
F0.005494505494505495
s(S'Comparison.Contrast.1'
p5805
Ntp5806
F0.03406593406593406
s(S'Comparison.Contrast.2'
p5807
g5781
tp5808
F0.002197802197802198
s(S'Contingency.Cause.2'
p5809
Ntp5810
F0.01098901098901099
s(NS'Comparison.Concession.2'
p5811
tp5812
F0.01098901098901099
s(S'Temporal.Asynchronous.1'
p5813
S'Expansion.Conjunction.2'
p5814
tp5815
F0.001098901098901099
s(S'Temporal.Asynchronous.2'
p5816
S'Expansion.Conjunction.2'
p5817
tp5818
F0.001098901098901099
s(Ng5802
tp5819
F0.013186813186813187
s(g5807
g5790
tp5820
F0.002197802197802198
s(Ng5805
tp5821
F0.017582417582417582
s(S'Explicit'
p5822
Ntp5823
F0.11799065420560748
s(g5784
S'Comparison.Concession.2'
p5824
tp5825
F0.001098901098901099
s(g5793
Ntp5826
F0.015384615384615385
s(Ng5822
tp5827
F0.10981308411214953
s(S'Comparison.Contrast.1'
p5828
S'Expansion.Conjunction.1'
p5829
tp5830
F0.002197802197802198
s(S'Temporal.Asynchronous.1'
p5831
g5829
tp5832
F0.001098901098901099
s(Ng5786
tp5833
F0.007692307692307693
s(S'Comparison.Concession.2'
p5834
S'Comparison.Contrast.1'
p5835
tp5836
F0.001098901098901099
s(NS'Expansion.Conjunction.1'
p5837
tp5838
F0.014285714285714285
s(S'Comparison.Contrast.2'
p5839
S'Contingency.Cause.2'
p5840
tp5841
F0.0032967032967032967
s(g5811
Ntp5842
F0.01098901098901099
s(S'Temporal.Asynchronous.1'
p5843
Ntp5844
F0.007692307692307693
s(NS'Contingency.Cause.1'
p5845
tp5846
F0.001098901098901099
s(S'Temporal.Asynchronous.2'
p5847
Ntp5848
F0.007692307692307693
ssS'apwsE960214.0448-2-2-0.perm-10.txt.pipe'
p5849
(dp5850
sS'apwsE951125.0054-2-2-0.perm-1.txt.pipe'
p5851
(dp5852
(S'Comparison.Contrast.2'
p5853
Ntp5854
F0.07894736842105263
s(NS'Explicit'
p5855
tp5856
F0.35526315789473684
s(NS'Comparison.Contrast.1'
p5857
tp5858
F0.14473684210526316
s(g5855
Ntp5859
F0.3157894736842105
s(NS'Comparison.Contrast.2'
p5860
tp5861
F0.21052631578947367
s(NNtp5862
F0.32894736842105265
s(g5857
Ntp5863
F0.23684210526315788
ssS'apwsE960206.0441-2-2-0.perm-10.txt.pipe'
p5864
(dp5865
sS'apwsE951024.0020-2-2-0.perm-13.txt.pipe'
p5866
(dp5867
(S'Explicit'
p5868
Ntp5869
F0.20952380952380953
s(S'Comparison.Contrast.2'
p5870
Ntp5871
F0.047619047619047616
s(S'Expansion.Conjunction.1'
p5872
Ntp5873
F0.047619047619047616
s(S'Comparison.Contrast.2'
p5874
S'Expansion.Conjunction.1'
p5875
tp5876
F0.01904761904761905
s(S'Expansion.Conjunction.2'
p5877
g5870
tp5878
F0.009523809523809525
s(S'Comparison.Contrast.1'
p5879
S'Expansion.Conjunction.2'
p5880
tp5881
F0.009523809523809525
s(S'Expansion.Conjunction.2'
p5882
S'Expansion.Conjunction.2'
p5883
tp5884
F0.009523809523809525
s(NS'Comparison.Contrast.2'
p5885
tp5886
F0.05714285714285714
s(NNtp5887
F0.4857142857142857
s(NS'Expansion.Conjunction.2'
p5888
tp5889
F0.05714285714285714
s(S'Expansion.Conjunction.2'
p5890
Ntp5891
F0.08571428571428572
s(S'Comparison.Contrast.1'
p5892
Ntp5893
F0.02857142857142857
s(S'Comparison.Contrast.1'
p5894
S'Expansion.Conjunction.1'
p5895
tp5896
F0.009523809523809525
s(NS'Explicit'
p5897
tp5898
F0.21904761904761905
s(NS'Expansion.Conjunction.1'
p5899
tp5900
F0.08571428571428572
s(S'Expansion.Conjunction.1'
p5901
S'Comparison.Contrast.1'
p5902
tp5903
F0.02857142857142857
s(Ng5892
tp5904
F0.01904761904761905
s(g5868
S'Explicit'
p5905
tp5906
F0.08571428571428572
ssS'apwsE960508.0041-2-2-0.perm-12.txt.pipe'
p5907
(dp5908
sS'apwsE951210.0356-2-2-0.perm-11.txt.pipe'
p5909
(dp5910
sS'apwsE951001.0328-2-2-0.perm-13.txt.pipe'
p5911
(dp5912
(NS'.2'
p5913
tp5914
F0.2619047619047619
s(S'EntRel'
p5915
Ntp5916
F0.30952380952380953
s(S'Temporal.Asynchronous.1'
p5917
Ntp5918
F0.19047619047619047
s(S'.1'
p5919
Ntp5920
F0.30952380952380953
s(S'Temporal.Asynchronous.2'
p5921
Ntp5922
F0.11904761904761904
s(Ng5915
tp5923
F0.2619047619047619
s(S'Explicit'
p5924
g5915
tp5925
F0.11904761904761904
s(g5924
Ntp5926
F0.30952380952380953
s(S'Temporal.Asynchronous.2'
p5927
S'.2'
p5928
tp5929
F0.11904761904761904
ssS'apwsE951009.0228-2-2-0.perm-12.txt.pipe'
p5930
(dp5931
sS'apwsE951018.0170-2-2-0.perm-1.txt.pipe'
p5932
(dp5933
sS'apwsE951004.0060-2-2-0.perm-12.txt.pipe'
p5934
(dp5935
sS'apwsE960104.0037-0-1.perm-13.txt.pipe'
p5936
(dp5937
sS'apwsE950822.0071-0-1.perm-1.txt.pipe'
p5938
(dp5939
sS'apwsE951226.0004-2-2-0.perm-13.txt.pipe'
p5940
(dp5941
(NS'Explicit'
p5942
tp5943
F0.7222222222222222
s(g5942
Ntp5944
F0.2777777777777778
s(NS'Expansion.Conjunction.2'
p5945
tp5946
F0.7222222222222222
s(S'Expansion.Conjunction.1'
p5947
Ntp5948
F0.2777777777777778
ssS'apwsE951018.0070-2-2-0.perm-11.txt.pipe'
p5949
(dp5950
sS'apwsE960207.0488-2-2-0.perm-1.txt.pipe'
p5951
(dp5952
(S'Expansion.Conjunction.1'
p5953
Ntp5954
F0.23684210526315788
s(NS'Explicit'
p5955
tp5956
F0.64
s(NS'Expansion.Alternative.2'
p5957
tp5958
F0.23684210526315788
s(S'Explicit'
p5959
Ntp5960
F0.36
s(NS'Expansion.Alternative.1'
p5961
tp5962
F0.13157894736842105
s(NS'Expansion.Conjunction.2'
p5963
tp5964
F0.39473684210526316
ssS'apwsE960216.0269-2-2-0.perm-10.txt.pipe'
p5965
(dp5966
(S'Contingency.Cause.1'
p5967
Ntp5968
F0.02786377708978328
s(S'Temporal.Asynchronous.2'
p5969
S'Temporal.Asynchronous.1'
p5970
tp5971
F0.0030959752321981426
s(S'Implicit'
p5972
Ntp5973
F0.09859154929577464
s(S'.2'
p5974
S'Comparison.Contrast.1'
p5975
tp5976
F0.0030959752321981426
s(NS'EntRel'
p5977
tp5978
F0.11619718309859155
s(S'Contingency.Cause.2'
p5979
g5970
tp5980
F0.0030959752321981426
s(NS'Temporal.Asynchronous.1'
p5981
tp5982
F0.07739938080495357
s(g5972
g5977
tp5983
F0.02112676056338028
s(g5981
Ntp5984
F0.08668730650154799
s(S'Temporal.Asynchronous.1'
p5985
g5970
tp5986
F0.0030959752321981426
s(NS'Comparison.Contrast.2'
p5987
tp5988
F0.021671826625386997
s(NNtp5989
F0.2640845070422535
s(S'.1'
p5990
S'Temporal.Asynchronous.1'
p5991
tp5992
F0.009287925696594427
s(S'.1'
p5993
Ntp5994
F0.05572755417956656
s(g5972
S'Explicit'
p5995
tp5996
F0.01056338028169014
s(S'Temporal.Asynchronous.2'
p5997
Ntp5998
F0.030959752321981424
s(S'Contingency.Cause.1'
p5999
S'.1'
p6000
tp6001
F0.009287925696594427
s(S'Contingency.Cause.2'
p6002
Ntp6003
F0.058823529411764705
s(Ng5993
tp6004
F0.05572755417956656
s(S'Explicit'
p6005
g5995
tp6006
F0.007042253521126761
s(S'Temporal.Asynchronous.2'
p6007
S'.2'
p6008
tp6009
F0.006191950464396285
s(S'Temporal.Asynchronous.1'
p6010
g5975
tp6011
F0.0030959752321981426
s(S'.2'
p6012
S'Temporal.Asynchronous.2'
p6013
tp6014
F0.02476780185758514
s(Ng5972
tp6015
F0.08098591549295775
s(Ng5997
tp6016
F0.09287925696594428
s(NS'.2'
p6017
tp6018
F0.04643962848297214
s(Ng6002
tp6019
F0.07120743034055728
s(S'Contingency.Cause.2'
p6020
g6008
tp6021
F0.009287925696594427
s(NS'Comparison.Contrast.1'
p6022
tp6023
F0.034055727554179564
s(g6005
Ntp6024
F0.09859154929577464
s(g5977
g5995
tp6025
F0.04225352112676056
s(g5977
Ntp6026
F0.09507042253521127
s(Ng6005
tp6027
F0.15845070422535212
s(g5999
S'Temporal.Asynchronous.1'
p6028
tp6029
F0.006191950464396285
s(g6017
Ntp6030
F0.02786377708978328
s(g6005
g5977
tp6031
F0.007042253521126761
ssS'apwsE951210.0356-2-2-0.perm-10.txt.pipe'
p6032
(dp6033
sS'apwsE951009.0245-2-2-0.perm-1.txt.pipe'
p6034
(dp6035
(S'Contingency.Cause.1'
p6036
Ntp6037
F0.005707762557077625
s(NS'Expansion.Instantiation.2'
p6038
tp6039
F0.005707762557077625
s(S'Expansion.Instantiation.2'
p6040
S'.1'
p6041
tp6042
F0.000380517503805175
s(S'Comparison.Contrast.2'
p6043
Ntp6044
F0.00380517503805175
s(S'.2'
p6045
S'.2'
p6046
tp6047
F0.01598173515981735
s(S'.1'
p6048
S'Expansion.Conjunction.2'
p6049
tp6050
F0.000380517503805175
s(Ng6043
tp6051
F0.004946727549467275
s(S'.1'
p6052
S'.1'
p6053
tp6054
F0.003424657534246575
s(NS'Expansion.Conjunction.2'
p6055
tp6056
F0.011035007610350075
s(S'.1'
p6057
Ntp6058
F0.03614916286149163
s(S'Comparison.Contrast.1'
p6059
Ntp6060
F0.0045662100456621
s(S'Implicit'
p6061
S'Explicit'
p6062
tp6063
F0.00040666937779585197
s(S'Implicit'
p6064
Ntp6065
F0.02074013826758845
s(S'Contingency.Cause.2'
p6066
Ntp6067
F0.00228310502283105
s(g6038
Ntp6068
F0.003424657534246575
s(S'EntRel'
p6069
S'Implicit'
p6070
tp6071
F0.0016266775111834079
s(Ng6064
tp6072
F0.019926799511996746
s(Ng6045
tp6073
F0.04908675799086758
s(Ng6066
tp6074
F0.0045662100456621
s(Ng6059
tp6075
F0.004185692541856925
s(S'Explicit'
p6076
Ntp6077
F0.014233428222854819
s(S'Comparison.Contrast.2'
p6078
S'.2'
p6079
tp6080
F0.001141552511415525
s(S'Expansion.Conjunction.2'
p6081
Ntp6082
F0.007229832572298325
s(NS'Expansion.Conjunction.1'
p6083
tp6084
F0.003424657534246575
s(S'Comparison.Contrast.2'
p6085
S'Contingency.Cause.2'
p6086
tp6087
F0.001141552511415525
s(S'Contingency.Cause.2'
p6088
g6086
tp6089
F0.001141552511415525
s(S'.2'
p6090
S'Comparison.Contrast.1'
p6091
tp6092
F0.000380517503805175
s(S'.2'
p6093
g6088
tp6094
F0.001902587519025875
s(g6083
Ntp6095
F0.007229832572298325
s(g6069
Ntp6096
F0.06222041480276535
s(g6064
S'EntRel'
p6097
tp6098
F0.0036600244001626678
s(S'.1'
p6099
S'Comparison.Contrast.2'
p6100
tp6101
F0.000380517503805175
s(S'Expansion.Conjunction.2'
p6102
S'Expansion.Conjunction.2'
p6103
tp6104
F0.000380517503805175
s(NNtp6105
F0.76372509150061
s(Ng6057
tp6106
F0.03614916286149163
s(S'Explicit'
p6107
g6070
tp6108
F0.0012200081333875558
s(NS'Temporal.Synchrony.1'
p6109
tp6110
F0.000380517503805175
s(S'Expansion.Conjunction.1'
p6111
g6053
tp6112
F0.001902587519025875
s(NS'EntRel'
p6113
tp6114
F0.06059373729158194
s(S'.1'
p6115
S'Contingency.Cause.1'
p6116
tp6117
F0.000380517503805175
s(S'Expansion.Instantiation.2'
p6118
S'.2'
p6119
tp6120
F0.001902587519025875
s(g6055
S'.2'
p6121
tp6122
F0.0045662100456621
s(S'.2'
p6123
g6053
tp6124
F0.0015220700152207
s(g6093
g6085
tp6125
F0.00076103500761035
s(NS'Expansion.Instantiation.1'
p6126
tp6127
F0.00076103500761035
s(g6126
Ntp6128
F0.00076103500761035
s(g6113
g6069
tp6129
F0.02074013826758845
s(Ng6076
tp6130
F0.021960146400976006
s(S'EntRel'
p6131
S'Explicit'
p6132
tp6133
F0.0020333468889792597
s(g6090
g6116
tp6134
F0.000380517503805175
s(g6115
g6091
tp6135
F0.000380517503805175
s(g6046
Ntp6136
F0.0487062404870624
s(S'Explicit'
p6137
S'EntRel'
p6138
tp6139
F0.0069133794225294835
s(NS'Temporal.Synchrony.2'
p6140
tp6141
F0.0015220700152207
s(Ng6036
tp6142
F0.00532724505327245
ssS'apwsE960216.0269-2-2-0.perm-1.txt.pipe'
p6143
(dp6144
(S'Temporal.Asynchronous.2'
p6145
S'Temporal.Asynchronous.1'
p6146
tp6147
F0.026143790849673203
s(S'Explicit'
p6148
Ntp6149
F0.3113207547169811
s(NS'Temporal.Asynchronous.2'
p6150
tp6151
F0.23529411764705882
s(S'Comparison.Contrast.2'
p6152
Ntp6153
F0.0392156862745098
s(NS'Temporal.Asynchronous.1'
p6154
tp6155
F0.09803921568627451
s(NS'Comparison.Contrast.1'
p6156
tp6157
F0.0718954248366013
s(S'Temporal.Asynchronous.1'
p6158
Ntp6159
F0.06535947712418301
s(S'Explicit'
p6160
S'Explicit'
p6161
tp6162
F0.04716981132075472
s(S'Comparison.Contrast.1'
p6163
g6146
tp6164
F0.0196078431372549
s(NNtp6165
F0.2358490566037736
s(g6156
Ntp6166
F0.058823529411764705
s(Ng6152
tp6167
F0.0457516339869281
s(S'Temporal.Asynchronous.2'
p6168
Ntp6169
F0.13725490196078433
s(S'Comparison.Contrast.2'
p6170
S'Temporal.Asynchronous.1'
p6171
tp6172
F0.006535947712418301
s(g6163
S'Temporal.Asynchronous.2'
p6173
tp6174
F0.013071895424836602
s(Ng6161
tp6175
F0.4056603773584906
s(g6145
g6173
tp6176
F0.013071895424836602
s(S'Temporal.Asynchronous.1'
p6177
S'Comparison.Contrast.1'
p6178
tp6179
F0.006535947712418301
ssS'apwsE960106.0047-2-2-0.perm-10.txt.pipe'
p6180
(dp6181
sS'apwsE950928.0094-0-1.perm-1.txt.pipe'
p6182
(dp6183
sS'apwsE951001.0257-2-2-0.perm-12.txt.pipe'
p6184
(dp6185
(NS'.2'
p6186
tp6187
F0.17592592592592593
s(S'.2'
p6188
S'.2'
p6189
tp6190
F0.037037037037037035
s(S'EntRel'
p6191
Ntp6192
F0.17777777777777778
s(g6191
S'EntRel'
p6193
tp6194
F0.05555555555555555
s(S'.1'
p6195
S'.1'
p6196
tp6197
F0.009259259259259259
s(NS'.1'
p6198
tp6199
F0.08333333333333333
s(Ng6191
tp6200
F0.2111111111111111
s(g6186
Ntp6201
F0.08333333333333333
s(g6198
Ntp6202
F0.14814814814814814
s(NNtp6203
F0.5555555555555556
ssS'apwsE951216.0211-2-2-0.perm-10.txt.pipe'
p6204
(dp6205
sS'apwsE951001.0279-2-2-0.perm-12.txt.pipe'
p6206
(dp6207
(S'Implicit'
p6208
Ntp6209
F0.02444987775061125
s(S'.2'
p6210
S'.2'
p6211
tp6212
F0.016816143497757848
s(NS'Temporal.Asynchronous.1'
p6213
tp6214
F0.008968609865470852
s(g6213
Ntp6215
F0.008968609865470852
s(g6208
S'EntRel'
p6216
tp6217
F0.006112469437652812
s(S'.1'
p6218
S'.1'
p6219
tp6220
F0.004484304932735426
s(NS'Expansion.Conjunction.2'
p6221
tp6222
F0.023542600896860985
s(S'.1'
p6223
Ntp6224
F0.06838565022421525
s(S'Expansion.Conjunction.2'
p6225
S'.2'
p6226
tp6227
F0.005605381165919282
s(S'Temporal.Asynchronous.2'
p6228
Ntp6229
F0.005605381165919282
s(NS'EntRel'
p6230
tp6231
F0.10635696821515893
s(Ng6223
tp6232
F0.05829596412556054
s(S'.2'
p6233
S'.1'
p6234
tp6235
F0.002242152466367713
s(Ng6208
tp6236
F0.02567237163814181
s(Ng6228
tp6237
F0.011210762331838564
s(NS'.2'
p6238
tp6239
F0.08071748878923767
s(S'EntRel'
p6240
S'EntRel'
p6241
tp6242
F0.023227383863080684
s(NS'Explicit'
p6243
tp6244
F0.022004889975550123
s(g6243
Ntp6245
F0.01589242053789731
s(S'Expansion.Conjunction.1'
p6246
Ntp6247
F0.004484304932735426
s(g6221
Ntp6248
F0.017937219730941704
s(g6230
Ntp6249
F0.0941320293398533
s(S'Temporal.Asynchronous.2'
p6250
g6226
tp6251
F0.005605381165919282
s(g6238
Ntp6252
F0.05717488789237668
s(g6243
g6216
tp6253
F0.006112469437652812
s(NNtp6254
F0.676039119804401
ssS'apwsE951121.0037-2-2-0.perm-10.txt.pipe'
p6255
(dp6256
(NS'Explicit'
p6257
tp6258
F0.5555555555555556
s(NS'Comparison.Contrast.2'
p6259
tp6260
F0.5555555555555556
s(NNtp6261
F0.4444444444444444
ssS'apwsE950424.0128-0-1.perm-12.txt.pipe'
p6262
(dp6263
sS'apwsE951003.0004-2-2-0.perm-11.txt.pipe'
p6264
(dp6265
(S'Implicit'
p6266
Ntp6267
F0.06389776357827476
s(NS'EntRel'
p6268
tp6269
F0.10862619808306709
s(S'Expansion.Conjunction.1'
p6270
Ntp6271
F0.054313099041533544
s(g6268
Ntp6272
F0.0926517571884984
s(g6266
S'EntRel'
p6273
tp6274
F0.01597444089456869
s(NNtp6275
F0.48562300319488816
s(NS'Expansion.Conjunction.2'
p6276
tp6277
F0.11182108626198083
s(S'.1'
p6278
Ntp6279
F0.06389776357827476
s(Ng6278
tp6280
F0.0670926517571885
s(g6268
g6266
tp6281
F0.019169329073482427
s(g6276
S'.2'
p6282
tp6283
F0.02875399361022364
s(S'.2'
p6284
S'Expansion.Conjunction.2'
p6285
tp6286
F0.01597444089456869
s(Ng6266
tp6287
F0.06070287539936102
s(S'.1'
p6288
S'Expansion.Conjunction.1'
p6289
tp6290
F0.003194888178913738
s(NS'.2'
p6291
tp6292
F0.04153354632587859
s(NS'Explicit'
p6293
tp6294
F0.07028753993610223
s(g6293
Ntp6295
F0.07028753993610223
s(S'Expansion.Conjunction.2'
p6296
Ntp6297
F0.07987220447284345
s(Ng6270
tp6298
F0.019169329073482427
s(g6291
Ntp6299
F0.02875399361022364
s(S'Explicit'
p6300
g6268
tp6301
F0.012779552715654952
ssS'apwsE951101.0026-0-1.perm-11.txt.pipe'
p6302
(dp6303
sS'apwsE950827.0022-2-2-0.perm-11.txt.pipe'
p6304
(dp6305
sS'apwsE960313.0036-2-2-0.perm-12.txt.pipe'
p6306
(dp6307
sS'apwsE950919.0564-2-2-0.perm-10.txt.pipe'
p6308
(dp6309
sS'apwsE951023.0357-2-2-0.perm-13.txt.pipe'
p6310
(dp6311
sS'apwsE950919.0580-2-2-0.perm-10.txt.pipe'
p6312
(dp6313
sS'apwsE951009.0244-2-2-0.perm-12.txt.pipe'
p6314
(dp6315
(S'Contingency.Cause.1'
p6316
Ntp6317
F0.03864734299516908
s(S'Implicit'
p6318
Ntp6319
F0.031578947368421054
s(S'Comparison.Contrast.2'
p6320
Ntp6321
F0.05314009661835749
s(S'EntRel'
p6322
Ntp6323
F0.005263157894736842
s(NS'Comparison.Contrast.2'
p6324
tp6325
F0.004830917874396135
s(NNtp6326
F0.7157894736842105
s(NS'.1'
p6327
tp6328
F0.004830917874396135
s(S'Comparison.Contrast.1'
p6329
Ntp6330
F0.06280193236714976
s(NS'Temporal.Synchrony.1'
p6331
tp6332
F0.004830917874396135
s(Ng6322
tp6333
F0.07368421052631578
s(S'Contingency.Cause.2'
p6334
Ntp6335
F0.043478260869565216
s(g6327
Ntp6336
F0.004830917874396135
s(g6331
Ntp6337
F0.004830917874396135
s(Ng6318
tp6338
F0.02631578947368421
s(S'Temporal.Synchrony.2'
p6339
Ntp6340
F0.014492753623188406
s(NS'.2'
p6341
tp6342
F0.06280193236714976
s(NS'Explicit'
p6343
tp6344
F0.02631578947368421
s(NS'Comparison.Contrast.1'
p6345
tp6346
F0.01932367149758454
s(S'Explicit'
p6347
Ntp6348
F0.11578947368421053
s(S'Temporal.Synchrony.2'
p6349
S'Comparison.Contrast.2'
p6350
tp6351
F0.004830917874396135
s(g6343
g6318
tp6352
F0.005263157894736842
s(Ng6339
tp6353
F0.01932367149758454
ssS'apwsE951004.0060-2-2-0.perm-10.txt.pipe'
p6354
(dp6355
sS'apwsE950919.0564-2-2-0.perm-13.txt.pipe'
p6356
(dp6357
(S'Expansion.Conjunction.2'
p6358
Ntp6359
F0.0975609756097561
s(S'Expansion.Conjunction.1'
p6360
S'Comparison.Contrast.2'
p6361
tp6362
F0.024390243902439025
s(S'Expansion.Conjunction.1'
p6363
Ntp6364
F0.04878048780487805
s(NS'Explicit'
p6365
tp6366
F0.43902439024390244
s(NS'Comparison.Contrast.1'
p6367
tp6368
F0.24390243902439024
s(S'Explicit'
p6369
Ntp6370
F0.14634146341463414
s(g6369
g6365
tp6371
F0.024390243902439025
s(NS'Comparison.Contrast.2'
p6372
tp6373
F0.1951219512195122
s(NNtp6374
F0.3902439024390244
ssS'apwsE951001.0328-2-2-0.perm-12.txt.pipe'
p6375
(dp6376
(NS'EntRel'
p6377
tp6378
F0.3611111111111111
s(NS'.2'
p6379
tp6380
F0.3611111111111111
s(g6377
Ntp6381
F0.19444444444444445
s(NNtp6382
F0.4444444444444444
s(S'.1'
p6383
Ntp6384
F0.19444444444444445
ssS'apwsE960122.0410-0-1.perm-1.txt.pipe'
p6385
(dp6386
sS'apwsE951010.0087-2-2-0.perm-13.txt.pipe'
p6387
(dp6388
(S'Temporal.Synchrony.1'
p6389
S'Comparison.Contrast.1'
p6390
tp6391
F0.002
s(S'Temporal.Synchrony.2'
p6392
Ntp6393
F0.034
s(NS'Temporal.Asynchronous.2'
p6394
tp6395
F0.004
s(NS'Temporal.Asynchronous.1'
p6396
tp6397
F0.004
s(NS'Comparison.Contrast.1'
p6398
tp6399
F0.038
s(g6396
Ntp6400
F0.01
s(S'Explicit'
p6401
S'Explicit'
p6402
tp6403
F0.02412280701754386
s(NS'Comparison.Contrast.2'
p6404
tp6405
F0.042
s(NNtp6406
F0.7412280701754386
s(g6398
Ntp6407
F0.04
s(NS'Temporal.Synchrony.1'
p6408
tp6409
F0.016
s(S'Temporal.Asynchronous.2'
p6410
Ntp6411
F0.028
s(S'Temporal.Synchrony.2'
p6412
S'Comparison.Contrast.2'
p6413
tp6414
F0.02
s(g6401
Ntp6415
F0.10964912280701754
s(Ng6392
tp6416
F0.054
s(g6408
Ntp6417
F0.032
s(Ng6401
tp6418
F0.125
ssS'apwsE950620.0596-0-1.perm-2.txt.pipe'
p6419
(dp6420
sS'apwsE960508.0041-2-2-0.perm-13.txt.pipe'
p6421
(dp6422
sS'apwsE960313.0026-2-2-0.perm-1.txt.pipe'
p6423
(dp6424
sS'apwsE951121.0037-2-2-0.perm-12.txt.pipe'
p6425
(dp6426
(S'Comparison.Contrast.1'
p6427
Ntp6428
F0.32558139534883723
s(S'Comparison.Contrast.2'
p6429
S'Comparison.Contrast.2'
p6430
tp6431
F0.09302325581395349
s(S'Comparison.Contrast.2'
p6432
Ntp6433
F0.16279069767441862
s(NS'Explicit'
p6434
tp6435
F0.5
s(S'Explicit'
p6436
Ntp6437
F0.3888888888888889
s(g6436
g6434
tp6438
F0.1111111111111111
s(NS'Comparison.Contrast.2'
p6439
tp6440
F0.4186046511627907
ssS'apwsE951006.0493-2-2-0.perm-12.txt.pipe'
p6441
(dp6442
(S'Contingency.Cause.1'
p6443
Ntp6444
F0.003271537622682661
s(S'Temporal.Asynchronous.2'
p6445
S'Comparison.Contrast.2'
p6446
tp6447
F0.004362050163576881
s(S'Comparison.Concession.1'
p6448
Ntp6449
F0.007633587786259542
s(S'Comparison.Contrast.2'
p6450
Ntp6451
F0.03489640130861505
s(NS'Temporal.Asynchronous.1'
p6452
tp6453
F0.007633587786259542
s(g6452
Ntp6454
F0.009814612868047983
s(S'Explicit'
p6455
S'Explicit'
p6456
tp6457
F0.022700119474313024
s(Ng6450
tp6458
F0.03380588876772083
s(NS'Expansion.Conjunction.2'
p6459
tp6460
F0.028353326063249727
s(S'Comparison.Contrast.1'
p6461
Ntp6462
F0.03489640130861505
s(S'Contingency.Cause.2'
p6463
Ntp6464
F0.010905125408942203
s(NS'Comparison.Concession.2'
p6465
tp6466
F0.008724100327153763
s(S'Comparison.Concession.2'
p6467
S'Expansion.Conjunction.1'
p6468
tp6469
F0.0010905125408942203
s(NS'Temporal.Asynchronous.2'
p6470
tp6471
F0.010905125408942203
s(NS'Contingency.Cause.2'
p6472
tp6473
F0.016357688113413305
s(Ng6461
tp6474
F0.028353326063249727
s(S'Comparison.Contrast.2'
p6475
S'Comparison.Contrast.1'
p6476
tp6477
F0.004362050163576881
s(S'Comparison.Contrast.2'
p6478
S'Comparison.Concession.2'
p6479
tp6480
F0.003271537622682661
s(S'Comparison.Contrast.2'
p6481
S'Temporal.Asynchronous.2'
p6482
tp6483
F0.0010905125408942203
s(g6459
Ntp6484
F0.009814612868047983
s(S'Expansion.Conjunction.2'
p6485
g6482
tp6486
F0.0010905125408942203
s(Ng6448
tp6487
F0.007633587786259542
s(NS'Expansion.Conjunction.1'
p6488
tp6489
F0.011995637949836423
s(S'Expansion.Conjunction.1'
p6490
S'Comparison.Contrast.1'
p6491
tp6492
F0.0010905125408942203
s(g6472
S'Comparison.Contrast.2'
p6493
tp6494
F0.0054525627044711015
s(g6488
Ntp6495
F0.011995637949836423
s(S'Expansion.Conjunction.2'
p6496
g6476
tp6497
F0.004362050163576881
s(NNtp6498
F0.7347670250896058
s(g6470
Ntp6499
F0.007633587786259542
s(S'Comparison.Contrast.2'
p6500
S'Temporal.Asynchronous.1'
p6501
tp6502
F0.0021810250817884407
s(S'Expansion.Conjunction.2'
p6503
g6501
tp6504
F0.0010905125408942203
s(NS'Explicit'
p6505
tp6506
F0.12783751493428913
s(S'Expansion.Conjunction.2'
p6507
S'Contingency.Cause.1'
p6508
tp6509
F0.0010905125408942203
s(g6490
S'Temporal.Asynchronous.1'
p6510
tp6511
F0.0010905125408942203
s(g6465
Ntp6512
F0.010905125408942203
s(g6505
Ntp6513
F0.11469534050179211
s(Ng6443
tp6514
F0.0021810250817884407
ssS'apwsE951121.0032-2-2-0.perm-12.txt.pipe'
p6515
(dp6516
sS'apwsE951024.0123-2-2-0.perm-13.txt.pipe'
p6517
(dp6518
(S'Comparison.Contrast.2'
p6519
Ntp6520
F0.057692307692307696
s(S'Expansion.Conjunction.1'
p6521
Ntp6522
F0.01282051282051282
s(S'Comparison.Contrast.1'
p6523
S'Expansion.Conjunction.2'
p6524
tp6525
F0.00641025641025641
s(S'Explicit'
p6526
S'Explicit'
p6527
tp6528
F0.05128205128205128
s(NS'Comparison.Contrast.2'
p6529
tp6530
F0.038461538461538464
s(NNtp6531
F0.6025641025641025
s(NS'Expansion.Conjunction.2'
p6532
tp6533
F0.02564102564102564
s(S'Comparison.Contrast.1'
p6534
Ntp6535
F0.0641025641025641
s(S'Comparison.Contrast.2'
p6536
S'Comparison.Contrast.2'
p6537
tp6538
F0.00641025641025641
s(NS'Comparison.Concession.2'
p6539
tp6540
F0.057692307692307696
s(S'Comparison.Contrast.1'
p6541
S'Comparison.Contrast.1'
p6542
tp6543
F0.019230769230769232
s(g6529
S'Expansion.Conjunction.1'
p6544
tp6545
F0.00641025641025641
s(NS'Comparison.Contrast.1'
p6546
tp6547
F0.01282051282051282
s(S'Comparison.Contrast.2'
p6548
S'Comparison.Contrast.1'
p6549
tp6550
F0.00641025641025641
s(S'Expansion.Conjunction.2'
p6551
Ntp6552
F0.01282051282051282
s(Ng6526
tp6553
F0.1987179487179487
s(NS'Comparison.Concession.1'
p6554
tp6555
F0.04487179487179487
s(NS'Expansion.Conjunction.1'
p6556
tp6557
F0.019230769230769232
s(S'Explicit'
p6558
Ntp6559
F0.14743589743589744
s(S'Expansion.Conjunction.2'
p6560
S'Comparison.Concession.1'
p6561
tp6562
F0.00641025641025641
ssS'apwsE960106.0047-2-2-0.perm-1.txt.pipe'
p6563
(dp6564
sS'apwsE950914.0074-0-1.perm-11.txt.pipe'
p6565
(dp6566
sS'apwsE951003.0485-2-2-0.perm-1.txt.pipe'
p6567
(dp6568
sS'apwsE951201.0010-0-1.perm-11.txt.pipe'
p6569
(dp6570
sS'apwsE950928.0094-0-1.perm-10.txt.pipe'
p6571
(dp6572
sS'apwsE960303.0090-2-2-0.perm-1.txt.pipe'
p6573
(dp6574
sS'apwsE951222.0206-2-2-0.perm-10.txt.pipe'
p6575
(dp6576
sS'apwsE951221.0056-2-2-0.perm-11.txt.pipe'
p6577
(dp6578
sS'apwsE960109.0103-2-2-0.perm-1.txt.pipe'
p6579
(dp6580
sS'apwsE950925.0091-0-1.perm-1.txt.pipe'
p6581
(dp6582
(NS'Explicit'
p6583
tp6584
F0.5294117647058824
s(g6583
Ntp6585
F0.47058823529411764
s(NS'Expansion.Conjunction.2'
p6586
tp6587
F0.5294117647058824
s(S'Expansion.Conjunction.1'
p6588
Ntp6589
F0.47058823529411764
ssS'apwsE960216.0241-2-2-0.perm-13.txt.pipe'
p6590
(dp6591
sS'apwsE951215.0060-2-2-0.perm-12.txt.pipe'
p6592
(dp6593
sS'apwsE960207.0488-2-2-0.perm-11.txt.pipe'
p6594
(dp6595
(S'Expansion.Conjunction.1'
p6596
Ntp6597
F0.23684210526315788
s(NS'Explicit'
p6598
tp6599
F0.64
s(NS'Expansion.Alternative.2'
p6600
tp6601
F0.23684210526315788
s(S'Explicit'
p6602
Ntp6603
F0.36
s(NS'Expansion.Alternative.1'
p6604
tp6605
F0.13157894736842105
s(NS'Expansion.Conjunction.2'
p6606
tp6607
F0.39473684210526316
ssS'apwsE960109.0130-2-2-0.perm-11.txt.pipe'
p6608
(dp6609
(NS'EntRel'
p6610
tp6611
F0.08969696969696969
s(S'Comparison.Contrast.2'
p6612
Ntp6613
F0.002670940170940171
s(S'Expansion.Conjunction.1'
p6614
Ntp6615
F0.0016025641025641025
s(S'EntRel'
p6616
Ntp6617
F0.09212121212121212
s(Ng6612
tp6618
F0.002670940170940171
s(S'.1'
p6619
S'.1'
p6620
tp6621
F0.006944444444444444
s(NS'Expansion.Conjunction.2'
p6622
tp6623
F0.002136752136752137
s(S'.1'
p6624
Ntp6625
F0.06623931623931624
s(S'Comparison.Contrast.1'
p6626
Ntp6627
F0.0037393162393162395
s(Ng6624
tp6628
F0.060897435897435896
s(S'Expansion.Conjunction.2'
p6629
S'.2'
p6630
tp6631
F0.0005341880341880342
s(S'.2'
p6632
g6620
tp6633
F0.003205128205128205
s(S'.2'
p6634
g6629
tp6635
F0.0005341880341880342
s(S'Expansion.Conjunction.2'
p6636
S'.1'
p6637
tp6638
F0.0005341880341880342
s(NS'.2'
p6639
tp6640
F0.07745726495726496
s(g6610
g6616
tp6641
F0.03515151515151515
s(NS'Explicit'
p6642
tp6643
F0.011515151515151515
s(Ng6626
tp6644
F0.0037393162393162395
s(g6642
Ntp6645
F0.01090909090909091
s(g6639
S'.2'
p6646
tp6647
F0.02403846153846154
s(S'EntRel'
p6648
S'Explicit'
p6649
tp6650
F0.0006060606060606061
s(g6622
Ntp6651
F0.0016025641025641025
s(Ng6614
tp6652
F0.0016025641025641025
s(g6646
Ntp6653
F0.07104700854700854
s(g6649
S'EntRel'
p6654
tp6655
F0.0012121212121212121
s(NNtp6656
F0.7587878787878788
ssS'apwsE951009.0228-2-2-0.perm-11.txt.pipe'
p6657
(dp6658
(S'Contingency.Cause.1'
p6659
Ntp6660
F0.013824884792626729
s(S'Implicit'
p6661
Ntp6662
F0.09615384615384616
s(S'.2'
p6663
S'Contingency.Cause.2'
p6664
tp6665
F0.01152073732718894
s(S'.2'
p6666
S'.2'
p6667
tp6668
F0.002304147465437788
s(S'EntRel'
p6669
Ntp6670
F0.0673076923076923
s(g6661
g6669
tp6671
F0.007211538461538462
s(S'Comparison.Contrast.1'
p6672
S'.1'
p6673
tp6674
F0.002304147465437788
s(NS'Comparison.Contrast.2'
p6675
tp6676
F0.027649769585253458
s(NNtp6677
F0.6225961538461539
s(NS'.1'
p6678
tp6679
F0.04608294930875576
s(S'Comparison.Contrast.1'
p6680
Ntp6681
F0.052995391705069124
s(Ng6669
tp6682
F0.10096153846153846
s(S'Contingency.Cause.2'
p6683
Ntp6684
F0.02534562211981567
s(S'EntRel'
p6685
g6661
tp6686
F0.01201923076923077
s(g6678
Ntp6687
F0.04838709677419355
s(NS'Implicit'
p6688
tp6689
F0.052884615384615384
s(S'Comparison.Contrast.2'
p6690
Ntp6691
F0.016129032258064516
s(NS'.2'
p6692
tp6693
F0.07142857142857142
s(Ng6683
tp6694
F0.018433179723502304
s(g6664
S'.2'
p6695
tp6696
F0.004608294930875576
s(Ng6680
tp6697
F0.009216589861751152
s(S'Explicit'
p6698
Ntp6699
F0.016826923076923076
s(S'EntRel'
p6700
g6685
tp6701
F0.002403846153846154
s(S'Comparison.Contrast.2'
p6702
S'.2'
p6703
tp6704
F0.002304147465437788
s(Ng6698
tp6705
F0.019230769230769232
s(S'.2'
p6706
Ntp6707
F0.03686635944700461
s(g6698
g6669
tp6708
F0.002403846153846154
s(Ng6659
tp6709
F0.013824884792626729
ssS'apwsE960303.0079-2-2-0.perm-13.txt.pipe'
p6710
(dp6711
sS'apwsE960207.0124-2-2-0.perm-1.txt.pipe'
p6712
(dp6713
sS'apwsE950307.0067-0-1.perm-13.txt.pipe'
p6714
(dp6715
sS'apwsE960216.0241-2-2-0.perm-1.txt.pipe'
p6716
(dp6717
sS'apwsE951125.0054-2-2-0.perm-12.txt.pipe'
p6718
(dp6719
(S'Comparison.Contrast.2'
p6720
Ntp6721
F0.0213903743315508
s(NS'.2'
p6722
tp6723
F0.16042780748663102
s(S'.2'
p6724
S'.2'
p6725
tp6726
F0.016042780748663103
s(NS'Explicit'
p6727
tp6728
F0.1377245508982036
s(NS'Comparison.Contrast.1'
p6729
tp6730
F0.0213903743315508
s(S'Explicit'
p6731
Ntp6732
F0.0718562874251497
s(S'EntRel'
p6733
S'EntRel'
p6734
tp6735
F0.041916167664670656
s(NS'Comparison.Contrast.2'
p6736
tp6737
F0.10160427807486631
s(S'.1'
p6738
S'.1'
p6739
tp6740
F0.0213903743315508
s(S'.1'
p6741
Ntp6742
F0.10695187165775401
s(S'Comparison.Contrast.1'
p6743
Ntp6744
F0.0427807486631016
s(g6738
S'Comparison.Contrast.1'
p6745
tp6746
F0.016042780748663103
s(g6736
g6725
tp6747
F0.0106951871657754
s(Ng6734
tp6748
F0.18562874251497005
s(g6733
g6727
tp6749
F0.017964071856287425
s(S'.2'
p6750
Ntp6751
F0.06417112299465241
s(g6727
g6734
tp6752
F0.011976047904191617
s(NS'.1'
p6753
tp6754
F0.058823529411764705
s(g6733
Ntp6755
F0.1317365269461078
s(NNtp6756
F0.40119760479041916
ssS'apwsE951216.0211-2-2-0.perm-11.txt.pipe'
p6757
(dp6758
sS'apwsE950307.0067-0-1.perm-10.txt.pipe'
p6759
(dp6760
sS'apwsE960303.0090-2-2-0.perm-13.txt.pipe'
p6761
(dp6762
sS'apwsE951001.0242-2-2-0.perm-10.txt.pipe'
p6763
(dp6764
sS'apwsE951201.0003-2-2-0.perm-11.txt.pipe'
p6765
(dp6766
sS'apwsE951121.0032-2-2-0.perm-1.txt.pipe'
p6767
(dp6768
sS'apwsE950928.0094-0-1.perm-11.txt.pipe'
p6769
(dp6770
sS'apwsE950905.0546-2-2-0.perm-11.txt.pipe'
p6771
(dp6772
sS'apwsE950213.0175-0-1.perm-12.txt.pipe'
p6773
(dp6774
sS'apwsE951001.0279-2-2-0.perm-10.txt.pipe'
p6775
(dp6776
sS'apwsE960206.0441-2-2-0.perm-1.txt.pipe'
p6777
(dp6778
sS'apwsE960203.0270-2-2-0.perm-11.txt.pipe'
p6779
(dp6780
(S'Expansion.Conjunction.1'
p6781
S'Expansion.Conjunction.2'
p6782
tp6783
F0.027777777777777776
s(S'Expansion.Conjunction.2'
p6784
Ntp6785
F0.16666666666666666
s(S'Explicit'
p6786
S'Explicit'
p6787
tp6788
F0.027777777777777776
s(S'Expansion.Conjunction.1'
p6789
Ntp6790
F0.1388888888888889
s(Ng6787
tp6791
F0.2777777777777778
s(g6786
Ntp6792
F0.3055555555555556
s(NS'Expansion.Conjunction.1'
p6793
tp6794
F0.1388888888888889
s(NNtp6795
F0.3888888888888889
s(NS'Expansion.Conjunction.2'
p6796
tp6797
F0.1388888888888889
ssS'apwsE960109.0103-2-2-0.perm-10.txt.pipe'
p6798
(dp6799
sS'apwsE951023.0362-2-2-0.perm-11.txt.pipe'
p6800
(dp6801
sS'apwsE950905.0546-2-2-0.perm-12.txt.pipe'
p6802
(dp6803
sS'apwsE951001.0257-2-2-0.perm-13.txt.pipe'
p6804
(dp6805
(NS'EntRel'
p6806
tp6807
F0.2978723404255319
s(NS'.2'
p6808
tp6809
F0.2978723404255319
s(g6806
Ntp6810
F0.19148936170212766
s(NNtp6811
F0.5106382978723404
s(S'.1'
p6812
Ntp6813
F0.19148936170212766
ssS'apwsE951009.0294-2-2-0.perm-12.txt.pipe'
p6814
(dp6815
s.