(dp0
S'doc_65.pair-00.perm.txt.pipe'
p1
(dp2
sS'doc_58.pair-01.txt.pipe'
p3
(dp4
sS'doc_197.pair-01.txt.pipe'
p5
(dp6
sS'doc_125.pair-00.perm.txt.pipe'
p7
(dp8
sS'doc_47.pair-00.perm.txt.pipe'
p9
(dp10
sS'doc_63.pair-00.txt.pipe'
p11
(dp12
(S'Expansion.1'
p13
Ntp14
F0.03333333333333333
s(NS'Temporal.2'
p15
tp16
F0.2
s(NS'Temporal.1'
p17
tp18
F0.13333333333333333
s(NS'Explicit'
p19
tp20
F0.95
s(g19
Ntp21
F0.05
s(NS'Expansion.2'
p22
tp23
F0.6333333333333333
ssS'doc_102.pair-01.perm.txt.pipe'
p24
(dp25
(NS'Explicit'
p26
tp27
F0.9523809523809523
s(S'Expansion.1'
p28
Ntp29
F0.047619047619047616
s(g26
Ntp30
F0.047619047619047616
s(NS'Expansion.2'
p31
tp32
F0.9523809523809523
ssS'doc_36.pair-00.txt.pipe'
p33
(dp34
(NS'Explicit'
p35
tp36
F0.6666666666666666
s(NS'Comparison.2'
p37
tp38
F0.6666666666666666
s(g35
Ntp39
F0.3333333333333333
s(S'Comparison.1'
p40
Ntp41
F0.3333333333333333
ssS'doc_32.pair-00.txt.pipe'
p42
(dp43
sS'doc_99.pair-01.perm.txt.pipe'
p44
(dp45
sS'doc_85.pair-00.perm.txt.pipe'
p46
(dp47
(NS'Explicit'
p48
tp49
F0.5806451612903226
s(S'Expansion.1'
p50
Ntp51
F0.41935483870967744
s(g48
Ntp52
F0.41935483870967744
s(NS'Expansion.2'
p53
tp54
F0.5806451612903226
ssS'doc_139.pair-00.perm.txt.pipe'
p55
(dp56
sS'doc_136.pair-01.perm.txt.pipe'
p57
(dp58
sS'doc_2.pair-01.txt.pipe'
p59
(dp60
sS'doc_133.pair-01.perm.txt.pipe'
p61
(dp62
sS'doc_44.pair-00.txt.pipe'
p63
(dp64
sS'doc_152.pair-01.perm.txt.pipe'
p65
(dp66
(NS'Explicit'
p67
tp68
F0.375
s(NS'Comparison.2'
p69
tp70
F0.375
s(g67
Ntp71
F0.625
s(S'Comparison.1'
p72
Ntp73
F0.625
ssS'doc_179.pair-01.perm.txt.pipe'
p74
(dp75
sS'doc_198.pair-01.perm.txt.pipe'
p76
(dp77
sS'doc_113.pair-01.txt.pipe'
p78
(dp79
sS'doc_88.pair-00.perm.txt.pipe'
p80
(dp81
(NS'Temporal.1'
p82
tp83
F0.2916666666666667
s(S'Explicit'
p84
S'Explicit'
p85
tp86
F0.08333333333333333
s(NS'Temporal.2'
p87
tp88
F0.125
s(S'Comparison.2'
p89
S'Temporal.1'
p90
tp91
F0.041666666666666664
s(S'Comparison.2'
p92
S'Temporal.2'
p93
tp94
F0.041666666666666664
s(S'Comparison.2'
p95
Ntp96
F0.20833333333333334
s(g84
Ntp97
F0.5
s(Ng85
tp98
F0.4166666666666667
s(S'Comparison.1'
p99
Ntp100
F0.2916666666666667
ssS'doc_21.pair-01.txt.pipe'
p101
(dp102
(NS'Explicit'
p103
tp104
F0.8235294117647058
s(S'Expansion.1'
p105
Ntp106
F0.17647058823529413
s(g103
Ntp107
F0.17647058823529413
s(NS'Expansion.2'
p108
tp109
F0.8235294117647058
ssS'doc_117.pair-01.perm.txt.pipe'
p110
(dp111
(NS'Explicit'
p112
tp113
F0.27586206896551724
s(S'Temporal.2'
p114
S'Comparison.2'
p115
tp116
F0.06382978723404255
s(S'Explicit'
p117
g112
tp118
F0.10344827586206896
s(S'Temporal.2'
p119
Ntp120
F0.2553191489361702
s(NS'Comparison.2'
p121
tp122
F0.1702127659574468
s(S'Temporal.1'
p123
Ntp124
F0.1276595744680851
s(g117
Ntp125
F0.6206896551724138
s(S'Comparison.1'
p126
Ntp127
F0.3829787234042553
ssS'doc_80.pair-01.txt.pipe'
p128
(dp129
sS'doc_185.pair-00.perm.txt.pipe'
p130
(dp131
sS'doc_56.pair-00.perm.txt.pipe'
p132
(dp133
sS'doc_27.pair-01.perm.txt.pipe'
p134
(dp135
(NS'Explicit'
p136
tp137
F0.48148148148148145
s(S'Expansion.1'
p138
Ntp139
F0.5185185185185185
s(g136
Ntp140
F0.5185185185185185
s(NS'Expansion.2'
p141
tp142
F0.48148148148148145
ssS'doc_150.pair-00.perm.txt.pipe'
p143
(dp144
sS'doc_136.pair-01.txt.pipe'
p145
(dp146
sS'doc_73.pair-00.txt.pipe'
p147
(dp148
sS'doc_14.pair-01.perm.txt.pipe'
p149
(dp150
(NS'Explicit'
p151
tp152
F0.4166666666666667
s(S'Expansion.1'
p153
Ntp154
F0.5833333333333334
s(g151
Ntp155
F0.5833333333333334
s(NS'Expansion.2'
p156
tp157
F0.4166666666666667
ssS'doc_31.pair-00.txt.pipe'
p158
(dp159
sS'doc_190.pair-00.txt.pipe'
p160
(dp161
sS'doc_127.pair-00.perm.txt.pipe'
p162
(dp163
sS'doc_169.pair-01.perm.txt.pipe'
p164
(dp165
sS'doc_12.pair-00.perm.txt.pipe'
p166
(dp167
sS'doc_20.pair-00.txt.pipe'
p168
(dp169
(S'Expansion.1'
p170
Ntp171
F0.03125
s(NS'Explicit'
p172
tp173
F0.46875
s(NS'Contingency.2'
p174
tp175
F0.28125
s(S'Explicit'
p176
Ntp177
F0.15625
s(g176
g172
tp178
F0.03125
s(NNtp179
F0.34375
s(S'Expansion.2'
p180
S'Contingency.2'
p181
tp182
F0.03125
s(S'Expansion.2'
p183
Ntp184
F0.125
s(NS'Contingency.1'
p185
tp186
F0.03125
s(Ng183
tp187
F0.15625
ssS'doc_63.pair-00.perm.txt.pipe'
p188
(dp189
(S'Expansion.1'
p190
Ntp191
F0.2631578947368421
s(NS'Temporal.2'
p192
tp193
F0.15789473684210525
s(NS'Temporal.1'
p194
tp195
F0.10526315789473684
s(NS'Explicit'
p196
tp197
F0.6428571428571429
s(g196
Ntp198
F0.35714285714285715
s(NS'Expansion.2'
p199
tp200
F0.47368421052631576
ssS'doc_145.pair-00.perm.txt.pipe'
p201
(dp202
sS'doc_71.pair-00.txt.pipe'
p203
(dp204
(S'Expansion.1'
p205
Ntp206
F0.5405405405405406
s(S'Expansion.2'
p207
S'Expansion.2'
p208
tp209
F0.10810810810810811
s(S'Expansion.2'
p210
Ntp211
F0.13513513513513514
s(NS'Explicit'
p212
tp213
F0.25
s(S'Explicit'
p214
Ntp215
F0.625
s(g214
g212
tp216
F0.125
s(NS'Expansion.2'
p217
tp218
F0.21621621621621623
ssS'doc_3.pair-01.perm.txt.pipe'
p219
(dp220
sS'doc_69.pair-01.perm.txt.pipe'
p221
(dp222
sS'doc_53.pair-01.perm.txt.pipe'
p223
(dp224
(NS'Temporal.1'
p225
tp226
F0.06451612903225806
s(S'Explicit'
p227
S'Explicit'
p228
tp229
F0.06451612903225806
s(NS'Temporal.2'
p230
tp231
F0.2903225806451613
s(S'Comparison.2'
p232
S'Temporal.1'
p233
tp234
F0.03225806451612903
s(S'Comparison.2'
p235
S'Temporal.2'
p236
tp237
F0.03225806451612903
s(S'Comparison.2'
p238
Ntp239
F0.3548387096774194
s(g227
Ntp240
F0.5806451612903226
s(Ng228
tp241
F0.3548387096774194
s(S'Comparison.1'
p242
Ntp243
F0.22580645161290322
ssS'doc_122.pair-00.perm.txt.pipe'
p244
(dp245
(NS'Explicit'
p246
tp247
F0.8636363636363636
s(NS'Comparison.2'
p248
tp249
F0.8636363636363636
s(g246
Ntp250
F0.13636363636363635
s(S'Comparison.1'
p251
Ntp252
F0.13636363636363635
ssS'doc_16.pair-01.perm.txt.pipe'
p253
(dp254
sS'doc_5.pair-01.txt.pipe'
p255
(dp256
(NS'Explicit'
p257
tp258
F0.8571428571428571
s(NS'Comparison.2'
p259
tp260
F0.8571428571428571
s(g257
Ntp261
F0.14285714285714285
s(S'Comparison.1'
p262
Ntp263
F0.14285714285714285
ssS'doc_2.pair-00.txt.pipe'
p264
(dp265
sS'doc_124.pair-00.txt.pipe'
p266
(dp267
sS'doc_31.pair-00.perm.txt.pipe'
p268
(dp269
sS'doc_197.pair-00.perm.txt.pipe'
p270
(dp271
sS'doc_133.pair-00.perm.txt.pipe'
p272
(dp273
sS'doc_200.pair-01.perm.txt.pipe'
p274
(dp275
(S'Expansion.1'
p276
Ntp277
F0.018518518518518517
s(S'Expansion.2'
p278
Ntp279
F0.25925925925925924
s(S'Explicit'
p280
Ntp281
F0.2777777777777778
s(NS'Explicit'
p282
tp283
F0.48148148148148145
s(NS'Expansion.1'
p284
tp285
F0.09259259259259259
s(S'Expansion.2'
p286
S'Expansion.1'
p287
tp288
F0.018518518518518517
s(g280
g282
tp289
F0.018518518518518517
s(NS'Expansion.2'
p290
tp291
F0.3888888888888889
s(NNtp292
F0.2222222222222222
ssS'doc_8.pair-01.txt.pipe'
p293
(dp294
sS'doc_110.pair-01.txt.pipe'
p295
(dp296
(S'Expansion.1'
p297
Ntp298
F0.25
s(NS'Temporal.2'
p299
tp300
F0.17857142857142858
s(NS'Temporal.1'
p301
tp302
F0.14285714285714285
s(NS'Explicit'
p303
tp304
F0.55
s(S'Explicit'
p305
Ntp306
F0.35
s(g305
g303
tp307
F0.1
s(S'Expansion.1'
p308
S'Temporal.1'
p309
tp310
F0.07142857142857142
s(NS'Expansion.2'
p311
tp312
F0.35714285714285715
ssS'doc_65.pair-01.txt.pipe'
p313
(dp314
sS'doc_98.pair-00.txt.pipe'
p315
(dp316
sS'doc_79.pair-00.txt.pipe'
p317
(dp318
(S'Expansion.1'
p319
Ntp320
F0.11538461538461539
s(S'Expansion.2'
p321
S'Expansion.2'
p322
tp323
F0.038461538461538464
s(S'Expansion.2'
p324
Ntp325
F0.10256410256410256
s(NS'Explicit'
p326
tp327
F0.4838709677419355
s(Ng319
tp328
F0.10256410256410256
s(g326
Ntp329
F0.14516129032258066
s(S'Explicit'
p330
g326
tp331
F0.04838709677419355
s(NS'Expansion.2'
p332
tp333
F0.38461538461538464
s(NNtp334
F0.3225806451612903
ssS'doc_153.pair-01.txt.pipe'
p335
(dp336
(S'Expansion.1'
p337
Ntp338
F0.020833333333333332
s(NS'Explicit'
p339
tp340
F0.4791666666666667
s(NS'Contingency.2'
p341
tp342
F0.16666666666666666
s(S'Expansion.2'
p343
S'Contingency.1'
p344
tp345
F0.020833333333333332
s(g339
S'Explicit'
p346
tp347
F0.041666666666666664
s(NNtp348
F0.2708333333333333
s(S'Expansion.2'
p349
S'Contingency.2'
p350
tp351
F0.020833333333333332
s(S'Expansion.2'
p352
Ntp353
F0.1875
s(NS'Contingency.1'
p354
tp355
F0.08333333333333333
s(Ng352
tp356
F0.22916666666666666
s(g339
Ntp357
F0.20833333333333334
ssS'doc_160.pair-00.txt.pipe'
p358
(dp359
sS'doc_75.pair-01.perm.txt.pipe'
p360
(dp361
(NS'Comparison.2'
p362
tp363
F0.5
s(NS'Explicit'
p364
tp365
F0.9090909090909091
s(NS'Expansion.1'
p366
tp367
F0.15
s(g364
Ntp368
F0.09090909090909091
s(NS'Expansion.2'
p369
tp370
F0.3
s(S'Comparison.1'
p371
Ntp372
F0.05
ssS'doc_134.pair-01.perm.txt.pipe'
p373
(dp374
sS'doc_153.pair-01.perm.txt.pipe'
p375
(dp376
(S'Contingency.1'
p377
Ntp378
F0.14285714285714285
s(S'Expansion.1'
p379
Ntp380
F0.34285714285714286
s(NS'Explicit'
p381
tp382
F0.391304347826087
s(S'Explicit'
p383
Ntp384
F0.5217391304347826
s(g383
g381
tp385
F0.08695652173913043
s(S'Contingency.2'
p386
S'Expansion.2'
p387
tp388
F0.05714285714285714
s(S'Contingency.2'
p389
Ntp390
F0.2
s(NS'Expansion.2'
p391
tp392
F0.2571428571428571
ssS'doc_173.pair-00.perm.txt.pipe'
p393
(dp394
sS'doc_46.pair-00.txt.pipe'
p395
(dp396
(NS'Comparison.2'
p397
tp398
F0.21621621621621623
s(NS'Comparison.1'
p399
tp400
F0.2702702702702703
s(S'Expansion.1'
p401
Ntp402
F0.02702702702702703
s(NS'Explicit'
p403
tp404
F0.9473684210526315
s(g403
Ntp405
F0.05263157894736842
s(NS'Expansion.2'
p406
tp407
F0.4864864864864865
ssS'doc_179.pair-00.perm.txt.pipe'
p408
(dp409
sS'doc_91.pair-00.txt.pipe'
p410
(dp411
sS'doc_79.pair-01.txt.pipe'
p412
(dp413
sS'doc_30.pair-00.perm.txt.pipe'
p414
(dp415
sS'doc_79.pair-00.perm.txt.pipe'
p416
(dp417
(S'Expansion.1'
p418
Ntp419
F0.19791666666666666
s(S'Expansion.2'
p420
S'Expansion.2'
p421
tp422
F0.03125
s(S'Expansion.2'
p423
Ntp424
F0.17708333333333334
s(NS'Explicit'
p425
tp426
F0.4838709677419355
s(Ng418
tp427
F0.1875
s(g425
Ntp428
F0.3064516129032258
s(S'Explicit'
p429
g425
tp430
F0.04838709677419355
s(Ng423
tp431
F0.3020833333333333
s(NNtp432
F0.16129032258064516
ssS'doc_1.pair-00.txt.pipe'
p433
(dp434
sS'doc_132.pair-00.txt.pipe'
p435
(dp436
sS'doc_136.pair-00.perm.txt.pipe'
p437
(dp438
sS'doc_94.pair-00.txt.pipe'
p439
(dp440
sS'doc_35.pair-00.perm.txt.pipe'
p441
(dp442
(NS'Explicit'
p443
tp444
F0.5
s(NS'Comparison.2'
p445
tp446
F0.5
s(g443
Ntp447
F0.5
s(S'Comparison.1'
p448
Ntp449
F0.5
ssS'doc_115.pair-01.perm.txt.pipe'
p450
(dp451
sS'doc_171.pair-01.txt.pipe'
p452
(dp453
sS'doc_48.pair-01.txt.pipe'
p454
(dp455
sS'doc_167.pair-01.perm.txt.pipe'
p456
(dp457
(NS'Explicit'
p458
tp459
F0.6296296296296297
s(S'Expansion.1'
p460
Ntp461
F0.37037037037037035
s(g458
Ntp462
F0.37037037037037035
s(NS'Expansion.2'
p463
tp464
F0.6296296296296297
ssS'doc_78.pair-00.perm.txt.pipe'
p465
(dp466
sS'doc_170.pair-00.txt.pipe'
p467
(dp468
(S'Contingency.1'
p469
S'Comparison.1'
p470
tp471
F0.030303030303030304
s(S'Contingency.1'
p472
Ntp473
F0.3939393939393939
s(NS'Comparison.1'
p474
tp475
F0.15151515151515152
s(S'Contingency.2'
p476
Ntp477
F0.2727272727272727
s(NS'Comparison.2'
p478
tp479
F0.09090909090909091
s(NS'Explicit'
p480
tp481
F0.24242424242424243
s(S'Explicit'
p482
Ntp483
F0.6666666666666666
s(g482
g480
tp484
F0.09090909090909091
s(S'Contingency.1'
p485
S'Comparison.2'
p486
tp487
F0.06060606060606061
ssS'doc_37.pair-01.perm.txt.pipe'
p488
(dp489
(S'Contingency.1'
p490
Ntp491
F0.21052631578947367
s(S'Contingency.2'
p492
Ntp493
F0.15789473684210525
s(NS'Explicit'
p494
tp495
F0.631578947368421
s(NS'Expansion.1'
p496
tp497
F0.47368421052631576
s(S'Explicit'
p498
Ntp499
F0.3684210526315789
s(NS'Expansion.2'
p500
tp501
F0.15789473684210525
ssS'doc_28.pair-01.txt.pipe'
p502
(dp503
(S'Expansion.1'
p504
Ntp505
F0.2698412698412698
s(S'Expansion.1'
p506
S'Contingency.1'
p507
tp508
F0.015873015873015872
s(S'Contingency.1'
p509
Ntp510
F0.07936507936507936
s(S'Expansion.1'
p511
S'Contingency.2'
p512
tp513
F0.015873015873015872
s(NS'Contingency.2'
p514
tp515
F0.09523809523809523
s(S'Explicit'
p516
Ntp517
F0.4358974358974359
s(S'Explicit'
p518
g516
tp519
F0.07692307692307693
s(Ng516
tp520
F0.48717948717948717
s(S'Contingency.2'
p521
S'Contingency.2'
p522
tp523
F0.031746031746031744
s(S'Contingency.2'
p524
Ntp525
F0.1111111111111111
s(NS'Contingency.1'
p526
tp527
F0.06349206349206349
s(NS'Expansion.2'
p528
tp529
F0.30158730158730157
s(g521
S'Expansion.2'
p530
tp531
F0.015873015873015872
ssS'doc_53.pair-00.txt.pipe'
p532
(dp533
sS'doc_111.pair-01.perm.txt.pipe'
p534
(dp535
sS'doc_107.pair-00.perm.txt.pipe'
p536
(dp537
sS'doc_114.pair-00.perm.txt.pipe'
p538
(dp539
(S'Expansion.1'
p540
Ntp541
F0.3235294117647059
s(NS'Explicit'
p542
tp543
F0.5333333333333333
s(g542
Ntp544
F0.36666666666666664
s(S'Explicit'
p545
g542
tp546
F0.1
s(S'Temporal.2'
p547
Ntp548
F0.08823529411764706
s(S'Temporal.1'
p549
Ntp550
F0.029411764705882353
s(S'Temporal.2'
p551
S'Expansion.2'
p552
tp553
F0.08823529411764706
s(NS'Expansion.2'
p554
tp555
F0.47058823529411764
ssS'doc_53.pair-00.perm.txt.pipe'
p556
(dp557
sS'doc_41.pair-01.perm.txt.pipe'
p558
(dp559
(NS'Explicit'
p560
tp561
F0.8571428571428571
s(NS'Comparison.2'
p562
tp563
F0.8571428571428571
s(g560
Ntp564
F0.14285714285714285
s(S'Comparison.1'
p565
Ntp566
F0.14285714285714285
ssS'doc_185.pair-01.perm.txt.pipe'
p567
(dp568
(NS'Temporal.1'
p569
tp570
F0.12
s(S'Comparison.1'
p571
S'Temporal.2'
p572
tp573
F0.04
s(NS'Temporal.2'
p574
tp575
F0.2
s(NS'Explicit'
p576
tp577
F0.32
s(S'Comparison.2'
p578
Ntp579
F0.24
s(S'Comparison.1'
p580
S'Temporal.1'
p581
tp582
F0.08
s(S'Explicit'
p583
g576
tp584
F0.12
s(g583
Ntp585
F0.56
s(S'Comparison.1'
p586
Ntp587
F0.32
ssS'doc_194.pair-01.perm.txt.pipe'
p588
(dp589
sS'doc_77.pair-01.perm.txt.pipe'
p590
(dp591
sS'doc_136.pair-00.txt.pipe'
p592
(dp593
sS'doc_151.pair-00.txt.pipe'
p594
(dp595
sS'doc_122.pair-01.txt.pipe'
p596
(dp597
sS'doc_174.pair-00.perm.txt.pipe'
p598
(dp599
sS'doc_17.pair-00.perm.txt.pipe'
p600
(dp601
sS'doc_40.pair-01.perm.txt.pipe'
p602
(dp603
sS'doc_166.pair-01.txt.pipe'
p604
(dp605
sS'doc_2.pair-01.perm.txt.pipe'
p606
(dp607
sS'doc_108.pair-01.perm.txt.pipe'
p608
(dp609
sS'doc_33.pair-00.txt.pipe'
p610
(dp611
sS'doc_33.pair-00.perm.txt.pipe'
p612
(dp613
sS'doc_166.pair-01.perm.txt.pipe'
p614
(dp615
sS'doc_196.pair-01.txt.pipe'
p616
(dp617
sS'doc_189.pair-01.perm.txt.pipe'
p618
(dp619
sS'doc_94.pair-00.perm.txt.pipe'
p620
(dp621
sS'doc_157.pair-01.perm.txt.pipe'
p622
(dp623
sS'doc_135.pair-01.perm.txt.pipe'
p624
(dp625
(NS'Explicit'
p626
tp627
F0.8571428571428571
s(NS'Comparison.2'
p628
tp629
F0.8571428571428571
s(g626
Ntp630
F0.14285714285714285
s(S'Comparison.1'
p631
Ntp632
F0.14285714285714285
ssS'doc_159.pair-00.perm.txt.pipe'
p633
(dp634
(NS'Explicit'
p635
tp636
F0.8888888888888888
s(NS'Comparison.2'
p637
tp638
F0.8888888888888888
s(g635
Ntp639
F0.1111111111111111
s(S'Comparison.1'
p640
Ntp641
F0.1111111111111111
ssS'doc_171.pair-00.txt.pipe'
p642
(dp643
sS'doc_153.pair-00.perm.txt.pipe'
p644
(dp645
sS'doc_186.pair-00.perm.txt.pipe'
p646
(dp647
sS'doc_161.pair-01.txt.pipe'
p648
(dp649
(S'Expansion.1'
p650
Ntp651
F0.2
s(S'Expansion.1'
p652
S'Contingency.1'
p653
tp654
F0.046153846153846156
s(NS'Explicit'
p655
tp656
F0.6190476190476191
s(NS'Expansion.2'
p657
tp658
F0.38461538461538464
s(S'Explicit'
p659
Ntp660
F0.30952380952380953
s(g659
g655
tp661
F0.07142857142857142
s(NS'Contingency.1'
p662
tp663
F0.13846153846153847
s(NS'Contingency.2'
p664
tp665
F0.23076923076923078
ssS'doc_124.pair-01.txt.pipe'
p666
(dp667
sS'doc_83.pair-00.perm.txt.pipe'
p668
(dp669
sS'doc_81.pair-00.perm.txt.pipe'
p670
(dp671
(NS'Explicit'
p672
tp673
F0.9583333333333334
s(S'Expansion.1'
p674
Ntp675
F0.041666666666666664
s(g672
Ntp676
F0.041666666666666664
s(NS'Expansion.2'
p677
tp678
F0.9583333333333334
ssS'doc_86.pair-00.perm.txt.pipe'
p679
(dp680
(S'Contingency.1'
p681
Ntp682
F0.17647058823529413
s(NS'Explicit'
p683
tp684
F0.35294117647058826
s(S'Explicit'
p685
Ntp686
F0.5882352941176471
s(g685
g683
tp687
F0.058823529411764705
s(S'Contingency.2'
p688
S'Contingency.2'
p689
tp690
F0.058823529411764705
s(S'Contingency.2'
p691
Ntp692
F0.4117647058823529
s(NS'Contingency.1'
p693
tp694
F0.11764705882352941
s(NS'Contingency.2'
p695
tp696
F0.23529411764705882
ssS'doc_44.pair-00.perm.txt.pipe'
p697
(dp698
sS'doc_100.pair-00.txt.pipe'
p699
(dp700
sS'doc_30.pair-01.txt.pipe'
p701
(dp702
sS'doc_62.pair-01.perm.txt.pipe'
p703
(dp704
sS'doc_10.pair-00.txt.pipe'
p705
(dp706
sS'doc_13.pair-00.perm.txt.pipe'
p707
(dp708
sS'doc_78.pair-01.txt.pipe'
p709
(dp710
sS'doc_10.pair-01.txt.pipe'
p711
(dp712
sS'doc_141.pair-01.perm.txt.pipe'
p713
(dp714
sS'doc_177.pair-01.txt.pipe'
p715
(dp716
sS'doc_113.pair-00.txt.pipe'
p717
(dp718
sS'doc_166.pair-00.perm.txt.pipe'
p719
(dp720
sS'doc_33.pair-01.perm.txt.pipe'
p721
(dp722
sS'doc_91.pair-01.perm.txt.pipe'
p723
(dp724
sS'doc_125.pair-01.perm.txt.pipe'
p725
(dp726
sS'doc_11.pair-01.perm.txt.pipe'
p727
(dp728
sS'doc_199.pair-00.perm.txt.pipe'
p729
(dp730
sS'doc_102.pair-01.txt.pipe'
p731
(dp732
(NS'Explicit'
p733
tp734
F0.5625
s(S'Expansion.1'
p735
Ntp736
F0.4375
s(g733
Ntp737
F0.4375
s(NS'Expansion.2'
p738
tp739
F0.5625
ssS'doc_144.pair-00.txt.pipe'
p740
(dp741
sS'doc_39.pair-01.txt.pipe'
p742
(dp743
(NS'Explicit'
p744
tp745
F0.8888888888888888
s(S'Expansion.1'
p746
Ntp747
F0.1111111111111111
s(g744
Ntp748
F0.1111111111111111
s(NS'Expansion.2'
p749
tp750
F0.8888888888888888
ssS'doc_137.pair-01.txt.pipe'
p751
(dp752
sS'doc_178.pair-01.txt.pipe'
p753
(dp754
sS'doc_129.pair-00.txt.pipe'
p755
(dp756
sS'doc_70.pair-00.txt.pipe'
p757
(dp758
sS'doc_154.pair-01.txt.pipe'
p759
(dp760
sS'doc_74.pair-00.perm.txt.pipe'
p761
(dp762
sS'doc_170.pair-01.perm.txt.pipe'
p763
(dp764
sS'doc_6.pair-01.txt.pipe'
p765
(dp766
sS'doc_37.pair-01.txt.pipe'
p767
(dp768
(S'Expansion.1'
p769
Ntp770
F0.47368421052631576
s(S'Expansion.2'
p771
Ntp772
F0.15789473684210525
s(NS'Explicit'
p773
tp774
F0.3684210526315789
s(NS'Contingency.1'
p775
tp776
F0.21052631578947367
s(S'Explicit'
p777
Ntp778
F0.631578947368421
s(NS'Contingency.2'
p779
tp780
F0.15789473684210525
ssS'doc_54.pair-00.perm.txt.pipe'
p781
(dp782
sS'doc_149.pair-01.perm.txt.pipe'
p783
(dp784
(NS'Explicit'
p785
tp786
F0.9545454545454546
s(S'Expansion.1'
p787
Ntp788
F0.045454545454545456
s(g785
Ntp789
F0.045454545454545456
s(NS'Expansion.2'
p790
tp791
F0.9545454545454546
ssS'doc_181.pair-01.txt.pipe'
p792
(dp793
sS'doc_100.pair-01.txt.pipe'
p794
(dp795
sS'doc_159.pair-01.txt.pipe'
p796
(dp797
(S'Contingency.1'
p798
Ntp799
F0.015625
s(NS'Temporal.2'
p800
tp801
F0.109375
s(S'Contingency.2'
p802
Ntp803
F0.3125
s(NS'Temporal.1'
p804
tp805
F0.0625
s(NS'Explicit'
p806
tp807
F0.484375
s(g806
Ntp808
F0.328125
s(Ng802
tp809
F0.3125
s(NNtp810
F0.1875
ssS'doc_15.pair-00.perm.txt.pipe'
p811
(dp812
sS'doc_140.pair-01.perm.txt.pipe'
p813
(dp814
sS'doc_29.pair-01.txt.pipe'
p815
(dp816
sS'doc_77.pair-01.txt.pipe'
p817
(dp818
sS'doc_45.pair-00.txt.pipe'
p819
(dp820
sS'doc_186.pair-01.perm.txt.pipe'
p821
(dp822
sS'doc_54.pair-00.txt.pipe'
p823
(dp824
sS'doc_110.pair-00.perm.txt.pipe'
p825
(dp826
sS'doc_106.pair-00.txt.pipe'
p827
(dp828
(NS'Contingency.1'
p829
tp830
F0.2
s(NS'Explicit'
p831
tp832
F0.32
s(S'Comparison.2'
p833
Ntp834
F0.36
s(S'Explicit'
p835
Ntp836
F0.68
s(NS'Contingency.2'
p837
tp838
F0.12
s(S'Comparison.1'
p839
Ntp840
F0.32
ssS'doc_135.pair-00.perm.txt.pipe'
p841
(dp842
sS'doc_116.pair-01.txt.pipe'
p843
(dp844
(NS'Explicit'
p845
tp846
F0.9166666666666666
s(S'Temporal.1'
p847
Ntp848
F0.08333333333333333
s(g845
Ntp849
F0.08333333333333333
s(NS'Temporal.2'
p850
tp851
F0.9166666666666666
ssS'doc_68.pair-00.txt.pipe'
p852
(dp853
(NS'Comparison.2'
p854
tp855
F0.2702702702702703
s(NS'Comparison.1'
p856
tp857
F0.21621621621621623
s(S'Comparison.2'
p858
S'Comparison.2'
p859
tp860
F0.013513513513513514
s(NS'Explicit'
p861
tp862
F0.4772727272727273
s(g854
Ntp863
F0.20270270270270271
s(g861
Ntp864
F0.38636363636363635
s(S'Explicit'
p865
g861
tp866
F0.022727272727272728
s(NNtp867
F0.11363636363636363
s(g856
Ntp868
F0.22972972972972974
ssS'doc_90.pair-00.perm.txt.pipe'
p869
(dp870
sS'doc_163.pair-01.perm.txt.pipe'
p871
(dp872
sS'doc_132.pair-01.perm.txt.pipe'
p873
(dp874
(S'Expansion.1'
p875
Ntp876
F0.037037037037037035
s(NS'Comparison.1'
p877
tp878
F0.2222222222222222
s(NS'Comparison.2'
p879
tp880
F0.1111111111111111
s(NS'Explicit'
p881
tp882
F0.9444444444444444
s(g881
Ntp883
F0.05555555555555555
s(NS'Expansion.2'
p884
tp885
F0.6296296296296297
ssS'doc_171.pair-00.perm.txt.pipe'
p886
(dp887
sS'doc_164.pair-00.perm.txt.pipe'
p888
(dp889
(NS'Explicit'
p890
tp891
F0.5641025641025641
s(S'Expansion.1'
p892
Ntp893
F0.4358974358974359
s(g890
Ntp894
F0.4358974358974359
s(NS'Expansion.2'
p895
tp896
F0.5641025641025641
ssS'doc_18.pair-00.perm.txt.pipe'
p897
(dp898
(NS'Explicit'
p899
tp900
F0.52
s(S'Expansion.1'
p901
Ntp902
F0.48
s(g899
Ntp903
F0.48
s(NS'Expansion.2'
p904
tp905
F0.52
ssS'doc_140.pair-00.perm.txt.pipe'
p906
(dp907
sS'doc_15.pair-01.perm.txt.pipe'
p908
(dp909
sS'doc_24.pair-01.txt.pipe'
p910
(dp911
(S'Expansion.1'
p912
Ntp913
F0.1
s(NS'Explicit'
p914
tp915
F0.48333333333333334
s(g914
Ntp916
F0.2
s(S'Explicit'
p917
g914
tp918
F0.18333333333333332
s(NNtp919
F0.13333333333333333
s(NS'Comparison.2'
p920
tp921
F0.058333333333333334
s(S'Expansion.2'
p922
S'Comparison.2'
p923
tp924
F0.09166666666666666
s(g922
S'Expansion.2'
p925
tp926
F0.09166666666666666
s(NS'Comparison.1'
p927
tp928
F0.09166666666666666
s(S'Expansion.2'
p929
Ntp930
F0.08333333333333333
s(Ng912
tp931
F0.09166666666666666
s(NS'Expansion.2'
p932
tp933
F0.23333333333333334
s(g927
Ntp934
F0.09166666666666666
ssS'doc_98.pair-01.txt.pipe'
p935
(dp936
sS'doc_104.pair-01.txt.pipe'
p937
(dp938
(NS'Explicit'
p939
tp940
F0.5
s(S'Expansion.1'
p941
Ntp942
F0.5
s(g939
Ntp943
F0.5
s(NS'Expansion.2'
p944
tp945
F0.5
ssS'doc_9.pair-01.perm.txt.pipe'
p946
(dp947
sS'doc_129.pair-00.perm.txt.pipe'
p948
(dp949
sS'doc_19.pair-00.perm.txt.pipe'
p950
(dp951
sS'doc_184.pair-01.txt.pipe'
p952
(dp953
(NS'Explicit'
p954
tp955
F0.9523809523809523
s(S'Expansion.1'
p956
Ntp957
F0.047619047619047616
s(g954
Ntp958
F0.047619047619047616
s(NS'Expansion.2'
p959
tp960
F0.9523809523809523
ssS'doc_55.pair-01.txt.pipe'
p961
(dp962
sS'doc_9.pair-00.txt.pipe'
p963
(dp964
(NS'Explicit'
p965
tp966
F0.8333333333333334
s(NS'Comparison.2'
p967
tp968
F0.8333333333333334
s(g965
Ntp969
F0.16666666666666666
s(S'Comparison.1'
p970
Ntp971
F0.16666666666666666
ssS'doc_74.pair-01.txt.pipe'
p972
(dp973
sS'doc_196.pair-00.txt.pipe'
p974
(dp975
(NS'Explicit'
p976
tp977
F0.9166666666666666
s(S'Temporal.1'
p978
Ntp979
F0.08333333333333333
s(g976
Ntp980
F0.08333333333333333
s(NS'Temporal.2'
p981
tp982
F0.9166666666666666
ssS'doc_196.pair-00.perm.txt.pipe'
p983
(dp984
(NS'Explicit'
p985
tp986
F0.8571428571428571
s(S'Temporal.1'
p987
Ntp988
F0.14285714285714285
s(g985
Ntp989
F0.14285714285714285
s(NS'Temporal.2'
p990
tp991
F0.8571428571428571
ssS'doc_103.pair-00.txt.pipe'
p992
(dp993
sS'doc_123.pair-00.txt.pipe'
p994
(dp995
sS'doc_60.pair-01.txt.pipe'
p996
(dp997
(S'Expansion.1'
p998
Ntp999
F0.26666666666666666
s(NS'Explicit'
p1000
tp1001
F0.6086956521739131
s(S'Explicit'
p1002
Ntp1003
F0.34782608695652173
s(g1002
g1000
tp1004
F0.043478260869565216
s(S'Temporal.2'
p1005
Ntp1006
F0.13333333333333333
s(S'Temporal.1'
p1007
Ntp1008
F0.1
s(S'Temporal.2'
p1009
S'Expansion.2'
p1010
tp1011
F0.03333333333333333
s(NS'Expansion.2'
p1012
tp1013
F0.4666666666666667
ssS'doc_12.pair-00.txt.pipe'
p1014
(dp1015
sS'doc_94.pair-01.txt.pipe'
p1016
(dp1017
sS'doc_47.pair-01.perm.txt.pipe'
p1018
(dp1019
sS'doc_132.pair-01.txt.pipe'
p1020
(dp1021
(S'Expansion.1'
p1022
Ntp1023
F0.17142857142857143
s(NS'Comparison.1'
p1024
tp1025
F0.17142857142857143
s(NS'Comparison.2'
p1026
tp1027
F0.08571428571428572
s(NS'Explicit'
p1028
tp1029
F0.7692307692307693
s(S'Explicit'
p1030
Ntp1031
F0.23076923076923078
s(NS'Expansion.2'
p1032
tp1033
F0.5714285714285714
ssS'doc_169.pair-01.txt.pipe'
p1034
(dp1035
sS'doc_164.pair-01.txt.pipe'
p1036
(dp1037
sS'doc_175.pair-00.txt.pipe'
p1038
(dp1039
sS'doc_49.pair-00.txt.pipe'
p1040
(dp1041
sS'doc_123.pair-01.perm.txt.pipe'
p1042
(dp1043
sS'doc_142.pair-00.txt.pipe'
p1044
(dp1045
(NS'Explicit'
p1046
tp1047
F0.9411764705882353
s(NS'Comparison.2'
p1048
tp1049
F0.9411764705882353
s(g1046
Ntp1050
F0.058823529411764705
s(S'Comparison.1'
p1051
Ntp1052
F0.058823529411764705
ssS'doc_43.pair-01.txt.pipe'
p1053
(dp1054
(NS'Comparison.2'
p1055
tp1056
F0.26666666666666666
s(NS'Expansion.1'
p1057
tp1058
F0.06666666666666667
s(NS'Explicit'
p1059
tp1060
F0.4666666666666667
s(g1055
Ntp1061
F0.26666666666666666
s(g1059
Ntp1062
F0.3
s(NS'Expansion.2'
p1063
tp1064
F0.13333333333333333
s(NNtp1065
F0.23333333333333334
s(S'Comparison.1'
p1066
Ntp1067
F0.03333333333333333
ssS'doc_36.pair-01.perm.txt.pipe'
p1068
(dp1069
sS'doc_111.pair-01.txt.pipe'
p1070
(dp1071
sS'doc_76.pair-01.txt.pipe'
p1072
(dp1073
(NS'Explicit'
p1074
tp1075
F0.9642857142857143
s(NS'Comparison.2'
p1076
tp1077
F0.6923076923076923
s(S'Explicit'
p1078
Ntp1079
F0.03571428571428571
s(NS'Comparison.1'
p1080
tp1081
F0.28205128205128205
s(S'Comparison.1'
p1082
Ntp1083
F0.02564102564102564
ssS'doc_57.pair-01.txt.pipe'
p1084
(dp1085
sS'doc_194.pair-00.perm.txt.pipe'
p1086
(dp1087
(NS'Explicit'
p1088
tp1089
F0.5909090909090909
s(NS'Comparison.2'
p1090
tp1091
F0.5909090909090909
s(g1088
Ntp1092
F0.4090909090909091
s(S'Comparison.1'
p1093
Ntp1094
F0.4090909090909091
ssS'doc_17.pair-01.txt.pipe'
p1095
(dp1096
sS'doc_200.pair-00.perm.txt.pipe'
p1097
(dp1098
sS'doc_51.pair-01.txt.pipe'
p1099
(dp1100
sS'doc_59.pair-01.perm.txt.pipe'
p1101
(dp1102
sS'doc_103.pair-00.perm.txt.pipe'
p1103
(dp1104
sS'doc_57.pair-00.txt.pipe'
p1105
(dp1106
(NS'Explicit'
p1107
tp1108
F0.4
s(NS'Comparison.2'
p1109
tp1110
F0.4
s(g1107
Ntp1111
F0.6
s(S'Comparison.1'
p1112
Ntp1113
F0.6
ssS'doc_44.pair-01.perm.txt.pipe'
p1114
(dp1115
sS'doc_146.pair-01.txt.pipe'
p1116
(dp1117
(NS'Explicit'
p1118
tp1119
F0.8571428571428571
s(S'Expansion.1'
p1120
Ntp1121
F0.14285714285714285
s(g1118
Ntp1122
F0.14285714285714285
s(NS'Expansion.2'
p1123
tp1124
F0.8571428571428571
ssS'doc_18.pair-01.txt.pipe'
p1125
(dp1126
sS'doc_29.pair-00.txt.pipe'
p1127
(dp1128
(NS'Explicit'
p1129
tp1130
F0.5625
s(NS'Comparison.2'
p1131
tp1132
F0.5625
s(g1129
Ntp1133
F0.4375
s(S'Comparison.1'
p1134
Ntp1135
F0.4375
ssS'doc_44.pair-01.txt.pipe'
p1136
(dp1137
sS'doc_62.pair-01.txt.pipe'
p1138
(dp1139
sS'doc_187.pair-00.perm.txt.pipe'
p1140
(dp1141
sS'doc_145.pair-01.perm.txt.pipe'
p1142
(dp1143
sS'doc_4.pair-01.perm.txt.pipe'
p1144
(dp1145
(S'Temporal.1'
p1146
Ntp1147
F0.009259259259259259
s(NS'Temporal.2'
p1148
tp1149
F0.24074074074074073
s(NS'Explicit'
p1150
tp1151
F0.9642857142857143
s(NS'Contingency.2'
p1152
tp1153
F0.16666666666666666
s(g1150
Ntp1154
F0.03571428571428571
s(NS'Comparison.2'
p1155
tp1156
F0.25
s(NS'Contingency.1'
p1157
tp1158
F0.16666666666666666
s(NS'Expansion.1'
p1159
tp1160
F0.05555555555555555
s(NS'Expansion.2'
p1161
tp1162
F0.10185185185185185
s(S'Comparison.1'
p1163
Ntp1164
F0.009259259259259259
ssS'doc_179.pair-00.txt.pipe'
p1165
(dp1166
sS'doc_165.pair-01.txt.pipe'
p1167
(dp1168
sS'doc_142.pair-00.perm.txt.pipe'
p1169
(dp1170
(NS'Explicit'
p1171
tp1172
F0.5
s(NS'Comparison.2'
p1173
tp1174
F0.5
s(g1171
Ntp1175
F0.5
s(S'Comparison.1'
p1176
Ntp1177
F0.5
ssS'doc_109.pair-01.txt.pipe'
p1178
(dp1179
sS'doc_69.pair-00.txt.pipe'
p1180
(dp1181
sS'doc_170.pair-00.perm.txt.pipe'
p1182
(dp1183
(S'Comparison.1'
p1184
S'Contingency.1'
p1185
tp1186
F0.030303030303030304
s(NS'Contingency.1'
p1187
tp1188
F0.3939393939393939
s(NS'Explicit'
p1189
tp1190
F0.6666666666666666
s(S'Comparison.2'
p1191
Ntp1192
F0.09090909090909091
s(S'Explicit'
p1193
Ntp1194
F0.24242424242424243
s(g1193
g1189
tp1195
F0.09090909090909091
s(NS'Contingency.2'
p1196
tp1197
F0.2727272727272727
s(S'Comparison.2'
p1198
S'Contingency.1'
p1199
tp1200
F0.06060606060606061
s(S'Comparison.1'
p1201
Ntp1202
F0.15151515151515152
ssS'doc_120.pair-00.txt.pipe'
p1203
(dp1204
sS'doc_107.pair-01.txt.pipe'
p1205
(dp1206
sS'doc_45.pair-01.perm.txt.pipe'
p1207
(dp1208
(S'Expansion.1'
p1209
Ntp1210
F0.4
s(NS'Explicit'
p1211
tp1212
F0.26666666666666666
s(S'Explicit'
p1213
Ntp1214
F0.6666666666666666
s(g1213
g1211
tp1215
F0.06666666666666667
s(NS'Comparison.2'
p1216
tp1217
F0.2
s(S'Expansion.2'
p1218
S'Comparison.2'
p1219
tp1220
F0.06666666666666667
s(NS'Comparison.1'
p1221
tp1222
F0.06666666666666667
s(S'Expansion.2'
p1223
Ntp1224
F0.26666666666666666
ssS'doc_185.pair-00.txt.pipe'
p1225
(dp1226
sS'doc_130.pair-01.txt.pipe'
p1227
(dp1228
sS'doc_114.pair-01.perm.txt.pipe'
p1229
(dp1230
(NS'Explicit'
p1231
tp1232
F0.9444444444444444
s(S'Expansion.1'
p1233
Ntp1234
F0.05555555555555555
s(g1231
Ntp1235
F0.05555555555555555
s(NS'Expansion.2'
p1236
tp1237
F0.9444444444444444
ssS'doc_73.pair-00.perm.txt.pipe'
p1238
(dp1239
sS'doc_198.pair-01.txt.pipe'
p1240
(dp1241
sS'doc_66.pair-01.perm.txt.pipe'
p1242
(dp1243
(NS'Explicit'
p1244
tp1245
F0.9166666666666666
s(S'Expansion.1'
p1246
Ntp1247
F0.08333333333333333
s(g1244
Ntp1248
F0.08333333333333333
s(NS'Expansion.2'
p1249
tp1250
F0.9166666666666666
ssS'doc_76.pair-01.perm.txt.pipe'
p1251
(dp1252
(NS'Comparison.2'
p1253
tp1254
F0.6078431372549019
s(NS'Comparison.1'
p1255
tp1256
F0.21568627450980393
s(NS'Explicit'
p1257
tp1258
F0.775
s(S'Comparison.1'
p1259
S'Comparison.2'
p1260
tp1261
F0.0196078431372549
s(S'Explicit'
p1262
g1257
tp1263
F0.025
s(g1262
Ntp1264
F0.2
s(S'Comparison.1'
p1265
Ntp1266
F0.1568627450980392
ssS'doc_14.pair-01.txt.pipe'
p1267
(dp1268
(NS'Explicit'
p1269
tp1270
F1.0
s(NS'Expansion.2'
p1271
tp1272
F1.0
ssS'doc_172.pair-01.txt.pipe'
p1273
(dp1274
sS'doc_151.pair-00.perm.txt.pipe'
p1275
(dp1276
sS'doc_117.pair-00.perm.txt.pipe'
p1277
(dp1278
sS'doc_37.pair-00.txt.pipe'
p1279
(dp1280
sS'doc_81.pair-01.perm.txt.pipe'
p1281
(dp1282
sS'doc_59.pair-00.txt.pipe'
p1283
(dp1284
(NS'Explicit'
p1285
tp1286
F0.8125
s(S'Temporal.1'
p1287
Ntp1288
F0.1875
s(g1285
Ntp1289
F0.1875
s(NS'Temporal.2'
p1290
tp1291
F0.8125
ssS'doc_61.pair-00.perm.txt.pipe'
p1292
(dp1293
sS'doc_110.pair-00.txt.pipe'
p1294
(dp1295
sS'doc_22.pair-01.perm.txt.pipe'
p1296
(dp1297
sS'doc_133.pair-00.txt.pipe'
p1298
(dp1299
sS'doc_134.pair-00.txt.pipe'
p1300
(dp1301
sS'doc_97.pair-01.perm.txt.pipe'
p1302
(dp1303
sS'doc_92.pair-01.perm.txt.pipe'
p1304
(dp1305
sS'doc_49.pair-01.txt.pipe'
p1306
(dp1307
(S'EntRel'
p1308
Ntp1309
F0.32142857142857145
s(Ng1308
tp1310
F0.6785714285714286
s(NS'.2'
p1311
tp1312
F0.6785714285714286
s(S'.1'
p1313
Ntp1314
F0.32142857142857145
ssS'doc_154.pair-00.perm.txt.pipe'
p1315
(dp1316
sS'doc_20.pair-01.txt.pipe'
p1317
(dp1318
sS'doc_58.pair-01.perm.txt.pipe'
p1319
(dp1320
sS'doc_157.pair-01.txt.pipe'
p1321
(dp1322
sS'doc_67.pair-01.perm.txt.pipe'
p1323
(dp1324
sS'doc_7.pair-00.txt.pipe'
p1325
(dp1326
sS'doc_176.pair-00.perm.txt.pipe'
p1327
(dp1328
sS'doc_28.pair-01.perm.txt.pipe'
p1329
(dp1330
(S'Contingency.1'
p1331
Ntp1332
F0.0625
s(S'Expansion.2'
p1333
Ntp1334
F0.15
s(S'Expansion.1'
p1335
Ntp1336
F0.0125
s(NS'Explicit'
p1337
tp1338
F0.48148148148148145
s(NS'Contingency.2'
p1339
tp1340
F0.1875
s(S'Explicit'
p1341
Ntp1342
F0.24074074074074073
s(g1341
g1337
tp1343
F0.037037037037037035
s(NNtp1344
F0.24074074074074073
s(S'Contingency.2'
p1345
S'Contingency.2'
p1346
tp1347
F0.025
s(S'Contingency.2'
p1348
Ntp1349
F0.075
s(S'Expansion.2'
p1350
g1346
tp1351
F0.025
s(NS'Contingency.1'
p1352
tp1353
F0.125
s(Ng1333
tp1354
F0.175
ssS'doc_192.pair-00.perm.txt.pipe'
p1355
(dp1356
sS'doc_73.pair-01.txt.pipe'
p1357
(dp1358
(NS'Explicit'
p1359
tp1360
F0.875
s(NS'Comparison.2'
p1361
tp1362
F0.875
s(g1359
Ntp1363
F0.125
s(S'Comparison.1'
p1364
Ntp1365
F0.125
ssS'doc_121.pair-01.txt.pipe'
p1366
(dp1367
(NS'Explicit'
p1368
tp1369
F0.6666666666666666
s(S'Expansion.1'
p1370
Ntp1371
F0.3333333333333333
s(g1368
Ntp1372
F0.3333333333333333
s(NS'Expansion.2'
p1373
tp1374
F0.6666666666666666
ssS'doc_27.pair-00.txt.pipe'
p1375
(dp1376
(S'Expansion.1'
p1377
Ntp1378
F0.01282051282051282
s(S'Expansion.2'
p1379
Ntp1380
F0.2948717948717949
s(S'Explicit'
p1381
Ntp1382
F0.3076923076923077
s(Ng1381
tp1383
F0.48717948717948717
s(NS'Expansion.1'
p1384
tp1385
F0.08974358974358974
s(S'Expansion.2'
p1386
S'Expansion.1'
p1387
tp1388
F0.01282051282051282
s(g1381
S'Explicit'
p1389
tp1390
F0.01282051282051282
s(Ng1379
tp1391
F0.3974358974358974
s(NNtp1392
F0.19230769230769232
ssS'doc_90.pair-01.txt.pipe'
p1393
(dp1394
sS'doc_128.pair-00.perm.txt.pipe'
p1395
(dp1396
sS'doc_181.pair-01.perm.txt.pipe'
p1397
(dp1398
sS'doc_150.pair-01.txt.pipe'
p1399
(dp1400
sS'doc_180.pair-00.perm.txt.pipe'
p1401
(dp1402
(S'Comparison.2'
p1403
Ntp1404
F0.17857142857142858
s(NS'Explicit'
p1405
tp1406
F0.5
s(NS'Expansion.1'
p1407
tp1408
F0.14285714285714285
s(S'Explicit'
p1409
Ntp1410
F0.5
s(NS'Expansion.2'
p1411
tp1412
F0.35714285714285715
s(S'Comparison.1'
p1413
Ntp1414
F0.32142857142857145
ssS'doc_137.pair-01.perm.txt.pipe'
p1415
(dp1416
sS'doc_195.pair-00.perm.txt.pipe'
p1417
(dp1418
sS'doc_188.pair-00.txt.pipe'
p1419
(dp1420
sS'doc_117.pair-01.txt.pipe'
p1421
(dp1422
(NS'Temporal.1'
p1423
tp1424
F0.08333333333333333
s(NS'Temporal.2'
p1425
tp1426
F0.21666666666666667
s(NS'Explicit'
p1427
tp1428
F0.48333333333333334
s(S'Comparison.2'
p1429
Ntp1430
F0.13333333333333333
s(g1427
Ntp1431
F0.15
s(g1427
S'Explicit'
p1432
tp1433
F0.05
s(NNtp1434
F0.31666666666666665
s(NS'Comparison.2'
p1435
tp1436
F0.18333333333333332
s(S'Comparison.2'
p1437
S'Temporal.1'
p1438
tp1439
F0.016666666666666666
s(g1435
S'Temporal.2'
p1440
tp1441
F0.03333333333333333
s(S'Comparison.1'
p1442
Ntp1443
F0.016666666666666666
ssS'doc_20.pair-00.perm.txt.pipe'
p1444
(dp1445
(S'Expansion.1'
p1446
Ntp1447
F0.34782608695652173
s(S'Contingency.1'
p1448
Ntp1449
F0.043478260869565216
s(NS'Explicit'
p1450
tp1451
F0.26666666666666666
s(g1450
Ntp1452
F0.5333333333333333
s(S'Explicit'
p1453
g1450
tp1454
F0.2
s(S'Contingency.2'
p1455
S'Expansion.2'
p1456
tp1457
F0.13043478260869565
s(S'Contingency.2'
p1458
Ntp1459
F0.30434782608695654
s(NS'Expansion.2'
p1460
tp1461
F0.17391304347826086
ssS'doc_145.pair-01.txt.pipe'
p1462
(dp1463
sS'doc_7.pair-01.txt.pipe'
p1464
(dp1465
(NS'Explicit'
p1466
tp1467
F0.36363636363636365
s(S'Expansion.1'
p1468
Ntp1469
F0.6363636363636364
s(g1466
Ntp1470
F0.6363636363636364
s(NS'Expansion.2'
p1471
tp1472
F0.36363636363636365
ssS'doc_158.pair-00.txt.pipe'
p1473
(dp1474
(NS'Explicit'
p1475
tp1476
F0.9230769230769231
s(S'Expansion.1'
p1477
Ntp1478
F0.07692307692307693
s(g1475
Ntp1479
F0.07692307692307693
s(NS'Expansion.2'
p1480
tp1481
F0.9230769230769231
ssS'doc_111.pair-00.txt.pipe'
p1482
(dp1483
sS'doc_75.pair-00.txt.pipe'
p1484
(dp1485
sS'doc_116.pair-00.txt.pipe'
p1486
(dp1487
(NS'Explicit'
p1488
tp1489
F0.5384615384615384
s(S'Temporal.1'
p1490
Ntp1491
F0.46153846153846156
s(g1488
Ntp1492
F0.46153846153846156
s(NS'Temporal.2'
p1493
tp1494
F0.5384615384615384
ssS'doc_189.pair-00.perm.txt.pipe'
p1495
(dp1496
(NS'Explicit'
p1497
tp1498
F0.5
s(S'Expansion.1'
p1499
Ntp1500
F0.5
s(g1497
Ntp1501
F0.5
s(NS'Expansion.2'
p1502
tp1503
F0.5
ssS'doc_38.pair-01.perm.txt.pipe'
p1504
(dp1505
sS'doc_137.pair-00.perm.txt.pipe'
p1506
(dp1507
sS'doc_61.pair-01.txt.pipe'
p1508
(dp1509
sS'doc_86.pair-01.perm.txt.pipe'
p1510
(dp1511
sS'doc_195.pair-01.perm.txt.pipe'
p1512
(dp1513
sS'doc_84.pair-01.txt.pipe'
p1514
(dp1515
(NS'Explicit'
p1516
tp1517
F0.5294117647058824
s(NS'Comparison.2'
p1518
tp1519
F0.5294117647058824
s(g1516
Ntp1520
F0.47058823529411764
s(S'Comparison.1'
p1521
Ntp1522
F0.47058823529411764
ssS'doc_109.pair-00.perm.txt.pipe'
p1523
(dp1524
sS'doc_133.pair-01.txt.pipe'
p1525
(dp1526
sS'doc_144.pair-01.txt.pipe'
p1527
(dp1528
sS'doc_95.pair-01.perm.txt.pipe'
p1529
(dp1530
(S'Expansion.1'
p1531
Ntp1532
F0.1724137931034483
s(S'Expansion.1'
p1533
S'Contingency.1'
p1534
tp1535
F0.034482758620689655
s(NS'Explicit'
p1536
tp1537
F0.6666666666666666
s(NS'Expansion.2'
p1538
tp1539
F0.3793103448275862
s(S'Explicit'
p1540
Ntp1541
F0.2777777777777778
s(g1540
g1536
tp1542
F0.05555555555555555
s(NS'Contingency.1'
p1543
tp1544
F0.1724137931034483
s(NS'Contingency.2'
p1545
tp1546
F0.2413793103448276
ssS'doc_92.pair-00.perm.txt.pipe'
p1547
(dp1548
sS'doc_187.pair-01.perm.txt.pipe'
p1549
(dp1550
(NS'Explicit'
p1551
tp1552
F0.3333333333333333
s(S'Contingency.1'
p1553
Ntp1554
F0.6666666666666666
s(g1551
Ntp1555
F0.6666666666666666
s(NS'Contingency.2'
p1556
tp1557
F0.3333333333333333
ssS'doc_199.pair-01.perm.txt.pipe'
p1558
(dp1559
sS'doc_32.pair-00.perm.txt.pipe'
p1560
(dp1561
sS'doc_109.pair-01.perm.txt.pipe'
p1562
(dp1563
sS'doc_41.pair-01.txt.pipe'
p1564
(dp1565
(NS'Explicit'
p1566
tp1567
F0.5384615384615384
s(NS'Comparison.2'
p1568
tp1569
F0.5384615384615384
s(g1566
Ntp1570
F0.46153846153846156
s(S'Comparison.1'
p1571
Ntp1572
F0.46153846153846156
ssS'doc_13.pair-00.txt.pipe'
p1573
(dp1574
sS'doc_132.pair-00.perm.txt.pipe'
p1575
(dp1576
sS'doc_179.pair-01.txt.pipe'
p1577
(dp1578
sS'doc_106.pair-01.perm.txt.pipe'
p1579
(dp1580
sS'doc_87.pair-00.txt.pipe'
p1581
(dp1582
sS'doc_5.pair-00.perm.txt.pipe'
p1583
(dp1584
sS'doc_52.pair-00.perm.txt.pipe'
p1585
(dp1586
sS'doc_58.pair-00.perm.txt.pipe'
p1587
(dp1588
sS'doc_121.pair-01.perm.txt.pipe'
p1589
(dp1590
(NS'Explicit'
p1591
tp1592
F0.9285714285714286
s(S'Expansion.1'
p1593
Ntp1594
F0.07142857142857142
s(g1591
Ntp1595
F0.07142857142857142
s(NS'Expansion.2'
p1596
tp1597
F0.9285714285714286
ssS'doc_48.pair-00.txt.pipe'
p1598
(dp1599
sS'doc_38.pair-00.txt.pipe'
p1600
(dp1601
(S'Expansion.1'
p1602
Ntp1603
F0.009900990099009901
s(S'Comparison.2'
p1604
S'Comparison.2'
p1605
tp1606
F0.0297029702970297
s(NS'Explicit'
p1607
tp1608
F0.4807692307692308
s(S'Comparison.2'
p1609
Ntp1610
F0.10891089108910891
s(g1607
Ntp1611
F0.23076923076923078
s(g1607
S'Explicit'
p1612
tp1613
F0.057692307692307696
s(NNtp1614
F0.23076923076923078
s(Ng1609
tp1615
F0.24752475247524752
s(S'Expansion.2'
p1616
g1605
tp1617
F0.0297029702970297
s(NS'Comparison.1'
p1618
tp1619
F0.10891089108910891
s(S'Expansion.2'
p1620
Ntp1621
F0.09900990099009901
s(Ng1620
tp1622
F0.12871287128712872
s(g1618
Ntp1623
F0.1188118811881188
ssS'doc_8.pair-00.perm.txt.pipe'
p1624
(dp1625
sS'doc_101.pair-00.perm.txt.pipe'
p1626
(dp1627
sS'doc_13.pair-01.txt.pipe'
p1628
(dp1629
sS'doc_40.pair-01.txt.pipe'
p1630
(dp1631
sS'doc_167.pair-00.perm.txt.pipe'
p1632
(dp1633
(NS'Explicit'
p1634
tp1635
F0.696969696969697
s(S'Expansion.1'
p1636
Ntp1637
F0.30303030303030304
s(g1634
Ntp1638
F0.30303030303030304
s(NS'Expansion.2'
p1639
tp1640
F0.696969696969697
ssS'doc_175.pair-01.txt.pipe'
p1641
(dp1642
sS'doc_140.pair-00.txt.pipe'
p1643
(dp1644
sS'doc_15.pair-01.txt.pipe'
p1645
(dp1646
sS'doc_108.pair-00.perm.txt.pipe'
p1647
(dp1648
sS'doc_195.pair-00.txt.pipe'
p1649
(dp1650
sS'doc_1.pair-01.txt.pipe'
p1651
(dp1652
(S'Expansion.1'
p1653
Ntp1654
F0.13043478260869565
s(NS'Temporal.2'
p1655
tp1656
F0.3695652173913043
s(NS'Explicit'
p1657
tp1658
F0.75
s(S'Temporal.1'
p1659
Ntp1660
F0.13043478260869565
s(g1657
Ntp1661
F0.25
s(NS'Expansion.2'
p1662
tp1663
F0.3695652173913043
ssS'doc_121.pair-00.perm.txt.pipe'
p1664
(dp1665
sS'doc_118.pair-01.perm.txt.pipe'
p1666
(dp1667
(S'Contingency.1'
p1668
Ntp1669
F0.4
s(NS'Explicit'
p1670
tp1671
F0.3
s(S'Explicit'
p1672
Ntp1673
F0.6
s(g1672
g1670
tp1674
F0.1
s(S'Contingency.2'
p1675
S'Contingency.2'
p1676
tp1677
F0.1
s(S'Contingency.2'
p1678
Ntp1679
F0.2
s(NS'Contingency.1'
p1680
tp1681
F0.1
s(NS'Contingency.2'
p1682
tp1683
F0.2
ssS'doc_148.pair-01.perm.txt.pipe'
p1684
(dp1685
sS'doc_84.pair-00.perm.txt.pipe'
p1686
(dp1687
(NS'Explicit'
p1688
tp1689
F0.6666666666666666
s(NS'Comparison.2'
p1690
tp1691
F0.6666666666666666
s(g1688
Ntp1692
F0.3333333333333333
s(S'Comparison.1'
p1693
Ntp1694
F0.3333333333333333
ssS'doc_85.pair-01.txt.pipe'
p1695
(dp1696
(NS'Explicit'
p1697
tp1698
F0.64
s(NS'Comparison.2'
p1699
tp1700
F0.64
s(g1697
Ntp1701
F0.36
s(S'Comparison.1'
p1702
Ntp1703
F0.36
ssS'doc_188.pair-00.perm.txt.pipe'
p1704
(dp1705
sS'doc_101.pair-01.txt.pipe'
p1706
(dp1707
sS'doc_21.pair-01.perm.txt.pipe'
p1708
(dp1709
(NS'Explicit'
p1710
tp1711
F0.9333333333333333
s(S'Expansion.1'
p1712
Ntp1713
F0.06666666666666667
s(g1710
Ntp1714
F0.06666666666666667
s(NS'Expansion.2'
p1715
tp1716
F0.9333333333333333
ssS'doc_110.pair-01.perm.txt.pipe'
p1717
(dp1718
(S'Expansion.1'
p1719
Ntp1720
F0.045454545454545456
s(NS'Temporal.2'
p1721
tp1722
F0.22727272727272727
s(NS'Temporal.1'
p1723
tp1724
F0.2727272727272727
s(NS'Explicit'
p1725
tp1726
F0.9166666666666666
s(S'Explicit'
p1727
Ntp1728
F0.08333333333333333
s(NS'Expansion.2'
p1729
tp1730
F0.45454545454545453
ssS'doc_150.pair-00.txt.pipe'
p1731
(dp1732
sS'doc_3.pair-00.txt.pipe'
p1733
(dp1734
(S'Comparison.2'
p1735
S'Expansion.2'
p1736
tp1737
F0.013157894736842105
s(S'Expansion.1'
p1738
Ntp1739
F0.13157894736842105
s(S'Expansion.1'
p1740
S'Expansion.1'
p1741
tp1742
F0.013157894736842105
s(S'Expansion.1'
p1743
g1736
tp1744
F0.02631578947368421
s(S'Comparison.2'
p1745
Ntp1746
F0.13157894736842105
s(S'Explicit'
p1747
Ntp1748
F0.22916666666666666
s(g1747
S'Explicit'
p1749
tp1750
F0.0625
s(NNtp1751
F0.22916666666666666
s(NS'Comparison.2'
p1752
tp1753
F0.15789473684210525
s(Ng1749
tp1754
F0.4791666666666667
s(Ng1740
tp1755
F0.2236842105263158
s(NS'Expansion.2'
p1756
tp1757
F0.13157894736842105
s(g1752
g1741
tp1758
F0.013157894736842105
s(S'Comparison.1'
p1759
Ntp1760
F0.013157894736842105
ssS'doc_148.pair-01.txt.pipe'
p1761
(dp1762
sS'doc_176.pair-01.txt.pipe'
p1763
(dp1764
sS'doc_26.pair-00.perm.txt.pipe'
p1765
(dp1766
sS'doc_55.pair-00.perm.txt.pipe'
p1767
(dp1768
sS'doc_27.pair-01.txt.pipe'
p1769
(dp1770
(NS'Explicit'
p1771
tp1772
F0.9
s(S'Expansion.1'
p1773
Ntp1774
F0.1
s(g1771
Ntp1775
F0.1
s(NS'Expansion.2'
p1776
tp1777
F0.9
ssS'doc_163.pair-00.perm.txt.pipe'
p1778
(dp1779
sS'doc_88.pair-01.txt.pipe'
p1780
(dp1781
sS'doc_2.pair-00.perm.txt.pipe'
p1782
(dp1783
sS'doc_14.pair-00.perm.txt.pipe'
p1784
(dp1785
(NS'Explicit'
p1786
tp1787
F0.6111111111111112
s(S'Expansion.1'
p1788
Ntp1789
F0.3888888888888889
s(g1786
Ntp1790
F0.3888888888888889
s(NS'Expansion.2'
p1791
tp1792
F0.6111111111111112
ssS'doc_95.pair-01.txt.pipe'
p1793
(dp1794
(NS'Explicit'
p1795
tp1796
F1.0
s(NS'Expansion.2'
p1797
tp1798
F0.48
s(NS'Contingency.2'
p1799
tp1800
F0.28
s(NS'Contingency.1'
p1801
tp1802
F0.24
ssS'doc_70.pair-00.perm.txt.pipe'
p1803
(dp1804
sS'doc_97.pair-00.perm.txt.pipe'
p1805
(dp1806
(NS'Explicit'
p1807
tp1808
F0.5555555555555556
s(S'Expansion.1'
p1809
Ntp1810
F0.4444444444444444
s(g1807
Ntp1811
F0.4444444444444444
s(NS'Expansion.2'
p1812
tp1813
F0.5555555555555556
ssS'doc_109.pair-00.txt.pipe'
p1814
(dp1815
sS'doc_60.pair-01.perm.txt.pipe'
p1816
(dp1817
(NS'Temporal.1'
p1818
tp1819
F0.06521739130434782
s(NS'Temporal.2'
p1820
tp1821
F0.10869565217391304
s(S'Expansion.2'
p1822
Ntp1823
F0.30434782608695654
s(S'Expansion.1'
p1824
Ntp1825
F0.021739130434782608
s(NS'Explicit'
p1826
tp1827
F0.4782608695652174
s(g1826
Ntp1828
F0.32608695652173914
s(Ng1822
tp1829
F0.30434782608695654
s(NNtp1830
F0.1956521739130435
ssS'doc_94.pair-01.perm.txt.pipe'
p1831
(dp1832
sS'doc_18.pair-01.perm.txt.pipe'
p1833
(dp1834
sS'doc_199.pair-00.txt.pipe'
p1835
(dp1836
sS'doc_168.pair-00.txt.pipe'
p1837
(dp1838
(NS'Temporal.1'
p1839
tp1840
F0.19047619047619047
s(S'Explicit'
p1841
S'Explicit'
p1842
tp1843
F0.023809523809523808
s(S'Expansion.2'
p1844
Ntp1845
F0.2619047619047619
s(S'Expansion.1'
p1846
Ntp1847
F0.023809523809523808
s(Ng1841
tp1848
F0.47619047619047616
s(g1841
Ntp1849
F0.2857142857142857
s(S'Expansion.2'
p1850
S'Temporal.2'
p1851
tp1852
F0.023809523809523808
s(Ng1844
tp1853
F0.2857142857142857
s(NNtp1854
F0.21428571428571427
ssS'doc_169.pair-00.txt.pipe'
p1855
(dp1856
sS'doc_171.pair-01.perm.txt.pipe'
p1857
(dp1858
sS'doc_3.pair-00.perm.txt.pipe'
p1859
(dp1860
(S'Expansion.1'
p1861
Ntp1862
F0.07894736842105263
s(NS'Explicit'
p1863
tp1864
F0.4791666666666667
s(g1863
Ntp1865
F0.22916666666666666
s(g1863
S'Explicit'
p1866
tp1867
F0.0625
s(NNtp1868
F0.22916666666666666
s(NS'Comparison.2'
p1869
tp1870
F0.13157894736842105
s(S'Expansion.2'
p1871
S'Comparison.2'
p1872
tp1873
F0.039473684210526314
s(NS'Comparison.1'
p1874
tp1875
F0.13157894736842105
s(S'Expansion.2'
p1876
Ntp1877
F0.11842105263157894
s(Ng1861
tp1878
F0.06578947368421052
s(Ng1871
tp1879
F0.15789473684210525
s(g1874
Ntp1880
F0.13157894736842105
ssS'doc_9.pair-01.txt.pipe'
p1881
(dp1882
sS'doc_75.pair-00.perm.txt.pipe'
p1883
(dp1884
sS'doc_141.pair-00.perm.txt.pipe'
p1885
(dp1886
sS'doc_176.pair-01.perm.txt.pipe'
p1887
(dp1888
sS'doc_36.pair-01.txt.pipe'
p1889
(dp1890
(S'Implicit'
p1891
Ntp1892
F0.45454545454545453
s(S'Expansion.1'
p1893
Ntp1894
F0.45454545454545453
s(Ng1891
tp1895
F0.5454545454545454
s(NS'Expansion.2'
p1896
tp1897
F0.5454545454545454
ssS'doc_98.pair-00.perm.txt.pipe'
p1898
(dp1899
sS'doc_42.pair-01.perm.txt.pipe'
p1900
(dp1901
(NS'Explicit'
p1902
tp1903
F0.5384615384615384
s(S'Explicit'
p1904
Ntp1905
F0.38461538461538464
s(g1904
g1902
tp1906
F0.07692307692307693
s(S'Temporal.1'
p1907
S'Expansion.1'
p1908
tp1909
F0.07692307692307693
s(S'Temporal.2'
p1910
Ntp1911
F0.3076923076923077
s(S'Temporal.1'
p1912
Ntp1913
F0.07692307692307693
s(NS'Expansion.1'
p1914
tp1915
F0.15384615384615385
s(NS'Expansion.2'
p1916
tp1917
F0.38461538461538464
ssS'doc_61.pair-00.txt.pipe'
p1918
(dp1919
sS'doc_16.pair-00.txt.pipe'
p1920
(dp1921
sS'doc_177.pair-00.txt.pipe'
p1922
(dp1923
(S'Expansion.1'
p1924
Ntp1925
F0.016666666666666666
s(NS'Comparison.1'
p1926
tp1927
F0.1
s(S'Expansion.2'
p1928
Ntp1929
F0.08333333333333333
s(NS'Comparison.2'
p1930
tp1931
F0.3
s(NS'Explicit'
p1932
tp1933
F0.48
s(g1932
Ntp1934
F0.14
s(Ng1928
tp1935
F0.08333333333333333
s(NNtp1936
F0.38
s(g1926
Ntp1937
F0.1
ssS'doc_175.pair-01.perm.txt.pipe'
p1938
(dp1939
sS'doc_64.pair-01.txt.pipe'
p1940
(dp1941
sS'doc_36.pair-00.perm.txt.pipe'
p1942
(dp1943
(NS'Explicit'
p1944
tp1945
F0.8571428571428571
s(NS'Comparison.2'
p1946
tp1947
F0.8571428571428571
s(g1944
Ntp1948
F0.14285714285714285
s(S'Comparison.1'
p1949
Ntp1950
F0.14285714285714285
ssS'doc_122.pair-01.perm.txt.pipe'
p1951
(dp1952
sS'doc_162.pair-00.txt.pipe'
p1953
(dp1954
sS'doc_126.pair-00.perm.txt.pipe'
p1955
(dp1956
sS'doc_191.pair-00.perm.txt.pipe'
p1957
(dp1958
sS'doc_151.pair-01.txt.pipe'
p1959
(dp1960
sS'doc_76.pair-00.txt.pipe'
p1961
(dp1962
sS'doc_31.pair-01.txt.pipe'
p1963
(dp1964
sS'doc_143.pair-00.txt.pipe'
p1965
(dp1966
sS'doc_116.pair-00.perm.txt.pipe'
p1967
(dp1968
(NS'Explicit'
p1969
tp1970
F0.9166666666666666
s(S'Temporal.1'
p1971
Ntp1972
F0.08333333333333333
s(g1969
Ntp1973
F0.08333333333333333
s(NS'Temporal.2'
p1974
tp1975
F0.9166666666666666
ssS'doc_192.pair-01.perm.txt.pipe'
p1976
(dp1977
sS'doc_174.pair-00.txt.pipe'
p1978
(dp1979
sS'doc_51.pair-01.perm.txt.pipe'
p1980
(dp1981
sS'doc_81.pair-01.txt.pipe'
p1982
(dp1983
sS'doc_113.pair-01.perm.txt.pipe'
p1984
(dp1985
sS'doc_66.pair-00.perm.txt.pipe'
p1986
(dp1987
sS'doc_178.pair-00.perm.txt.pipe'
p1988
(dp1989
sS'doc_173.pair-01.txt.pipe'
p1990
(dp1991
sS'doc_43.pair-01.perm.txt.pipe'
p1992
(dp1993
(S'Expansion.1'
p1994
Ntp1995
F0.07407407407407407
s(NS'Explicit'
p1996
tp1997
F0.4090909090909091
s(g1996
Ntp1998
F0.5454545454545454
s(S'Explicit'
p1999
g1996
tp2000
F0.045454545454545456
s(NS'Comparison.2'
p2001
tp2002
F0.3333333333333333
s(S'Expansion.2'
p2003
S'Comparison.2'
p2004
tp2005
F0.037037037037037035
s(S'Expansion.2'
p2006
Ntp2007
F0.1111111111111111
s(S'Comparison.1'
p2008
Ntp2009
F0.4444444444444444
ssS'doc_90.pair-01.perm.txt.pipe'
p2010
(dp2011
sS'doc_197.pair-00.txt.pipe'
p2012
(dp2013
sS'doc_122.pair-00.txt.pipe'
p2014
(dp2015
(S'Comparison.2'
p2016
S'Expansion.2'
p2017
tp2018
F0.016666666666666666
s(S'Expansion.1'
p2019
Ntp2020
F0.18333333333333332
s(S'Implicit'
p2021
Ntp2022
F0.18333333333333332
s(NS'Explicit'
p2023
tp2024
F0.2
s(S'Comparison.2'
p2025
Ntp2026
F0.18333333333333332
s(g2023
Ntp2027
F0.2
s(NNtp2028
F0.11666666666666667
s(Ng2025
tp2029
F0.2
s(g2023
g2021
tp2030
F0.016666666666666666
s(Ng2019
tp2031
F0.18333333333333332
s(Ng2021
tp2032
F0.2833333333333333
s(NS'Expansion.2'
p2033
tp2034
F0.1
s(S'Comparison.1'
p2035
Ntp2036
F0.016666666666666666
ssS'doc_26.pair-01.txt.pipe'
p2037
(dp2038
sS'doc_71.pair-00.perm.txt.pipe'
p2039
(dp2040
(S'Expansion.1'
p2041
Ntp2042
F0.015625
s(NS'Explicit'
p2043
tp2044
F0.484375
s(g2043
Ntp2045
F0.15625
s(NNtp2046
F0.359375
s(S'Expansion.2'
p2047
Ntp2048
F0.140625
s(NS'Expansion.1'
p2049
tp2050
F0.203125
s(Ng2047
tp2051
F0.28125
ssS'doc_127.pair-01.txt.pipe'
p2052
(dp2053
sS'doc_50.pair-01.txt.pipe'
p2054
(dp2055
sS'doc_141.pair-00.txt.pipe'
p2056
(dp2057
sS'doc_38.pair-00.perm.txt.pipe'
p2058
(dp2059
(S'Comparison.2'
p2060
S'Expansion.2'
p2061
tp2062
F0.018518518518518517
s(S'Expansion.1'
p2063
Ntp2064
F0.10185185185185185
s(g2060
S'Comparison.2'
p2065
tp2066
F0.018518518518518517
s(NS'Explicit'
p2067
tp2068
F0.5
s(S'Comparison.2'
p2069
Ntp2070
F0.09259259259259259
s(g2067
Ntp2071
F0.21153846153846154
s(S'Explicit'
p2072
g2067
tp2073
F0.038461538461538464
s(NNtp2074
F0.25
s(NS'Comparison.2'
p2075
tp2076
F0.23148148148148148
s(NS'Comparison.1'
p2077
tp2078
F0.10185185185185185
s(Ng2063
tp2079
F0.10185185185185185
s(NS'Expansion.2'
p2080
tp2081
F0.1111111111111111
s(g2077
Ntp2082
F0.10185185185185185
ssS'doc_50.pair-00.perm.txt.pipe'
p2083
(dp2084
sS'doc_200.pair-01.txt.pipe'
p2085
(dp2086
(S'Expansion.1'
p2087
Ntp2088
F0.3333333333333333
s(S'Expansion.2'
p2089
S'Expansion.2'
p2090
tp2091
F0.06666666666666667
s(S'Expansion.2'
p2092
Ntp2093
F0.13333333333333333
s(NS'Explicit'
p2094
tp2095
F0.5384615384615384
s(S'Explicit'
p2096
Ntp2097
F0.38461538461538464
s(g2096
g2094
tp2098
F0.07692307692307693
s(NS'Expansion.2'
p2099
tp2100
F0.4666666666666667
ssS'doc_6.pair-00.txt.pipe'
p2101
(dp2102
sS'doc_87.pair-00.perm.txt.pipe'
p2103
(dp2104
sS'doc_43.pair-00.perm.txt.pipe'
p2105
(dp2106
sS'doc_102.pair-00.perm.txt.pipe'
p2107
(dp2108
sS'doc_120.pair-01.perm.txt.pipe'
p2109
(dp2110
sS'doc_190.pair-01.txt.pipe'
p2111
(dp2112
sS'doc_1.pair-01.perm.txt.pipe'
p2113
(dp2114
(S'Expansion.1'
p2115
Ntp2116
F0.029411764705882353
s(NS'Temporal.2'
p2117
tp2118
F0.47058823529411764
s(NS'Explicit'
p2119
tp2120
F0.9444444444444444
s(S'Temporal.1'
p2121
Ntp2122
F0.029411764705882353
s(g2119
Ntp2123
F0.05555555555555555
s(NS'Expansion.2'
p2124
tp2125
F0.47058823529411764
ssS'doc_10.pair-00.perm.txt.pipe'
p2126
(dp2127
sS'doc_141.pair-01.txt.pipe'
p2128
(dp2129
sS'doc_77.pair-00.perm.txt.pipe'
p2130
(dp2131
(NS'Temporal.1'
p2132
tp2133
F0.05555555555555555
s(NS'Temporal.2'
p2134
tp2135
F0.1111111111111111
s(S'Expansion.1'
p2136
Ntp2137
F0.018518518518518517
s(NS'Explicit'
p2138
tp2139
F0.4782608695652174
s(S'Explicit'
p2140
Ntp2141
F0.10869565217391304
s(NNtp2142
F0.41304347826086957
s(NS'Comparison.2'
p2143
tp2144
F0.18518518518518517
s(NS'Comparison.1'
p2145
tp2146
F0.12962962962962962
s(S'Expansion.2'
p2147
Ntp2148
F0.07407407407407407
s(Ng2147
tp2149
F0.07407407407407407
ssS'doc_19.pair-01.perm.txt.pipe'
p2150
(dp2151
sS'doc_188.pair-01.txt.pipe'
p2152
(dp2153
(S'Expansion.1'
p2154
Ntp2155
F0.16216216216216217
s(S'Expansion.2'
p2156
S'Expansion.2'
p2157
tp2158
F0.02702702702702703
s(S'Expansion.2'
p2159
Ntp2160
F0.13513513513513514
s(NS'Explicit'
p2161
tp2162
F0.48148148148148145
s(Ng2154
tp2163
F0.14864864864864866
s(S'Explicit'
p2164
Ntp2165
F0.2222222222222222
s(g2161
g2164
tp2166
F0.037037037037037035
s(Ng2156
tp2167
F0.33783783783783783
s(NNtp2168
F0.25925925925925924
ssS'doc_126.pair-01.perm.txt.pipe'
p2169
(dp2170
sS'doc_51.pair-00.txt.pipe'
p2171
(dp2172
sS'doc_82.pair-00.txt.pipe'
p2173
(dp2174
sS'doc_75.pair-01.txt.pipe'
p2175
(dp2176
(S'Comparison.1'
p2177
S'Expansion.1'
p2178
tp2179
F0.037037037037037035
s(NS'Explicit'
p2180
tp2181
F0.5263157894736842
s(S'Explicit'
p2182
Ntp2183
F0.42105263157894735
s(g2182
g2180
tp2184
F0.05263157894736842
s(NS'Comparison.2'
p2185
tp2186
F0.37037037037037035
s(NS'Expansion.1'
p2187
tp2188
F0.07407407407407407
s(NS'Expansion.2'
p2189
tp2190
F0.2222222222222222
s(S'Comparison.1'
p2191
Ntp2192
F0.2962962962962963
ssS'doc_191.pair-00.txt.pipe'
p2193
(dp2194
sS'doc_102.pair-00.txt.pipe'
p2195
(dp2196
sS'doc_134.pair-01.txt.pipe'
p2197
(dp2198
sS'doc_149.pair-00.txt.pipe'
p2199
(dp2200
sS'doc_189.pair-00.txt.pipe'
p2201
(dp2202
(NS'Explicit'
p2203
tp2204
F0.8
s(S'Expansion.1'
p2205
Ntp2206
F0.2
s(g2203
Ntp2207
F0.2
s(NS'Expansion.2'
p2208
tp2209
F0.8
ssS'doc_34.pair-00.txt.pipe'
p2210
(dp2211
sS'doc_104.pair-00.perm.txt.pipe'
p2212
(dp2213
(NS'Explicit'
p2214
tp2215
F0.8333333333333334
s(S'Expansion.1'
p2216
Ntp2217
F0.16666666666666666
s(g2214
Ntp2218
F0.16666666666666666
s(NS'Expansion.2'
p2219
tp2220
F0.8333333333333334
ssS'doc_187.pair-00.txt.pipe'
p2221
(dp2222
sS'doc_5.pair-01.perm.txt.pipe'
p2223
(dp2224
(NS'Explicit'
p2225
tp2226
F0.6923076923076923
s(NS'Comparison.2'
p2227
tp2228
F0.6923076923076923
s(g2225
Ntp2229
F0.3076923076923077
s(S'Comparison.1'
p2230
Ntp2231
F0.3076923076923077
ssS'doc_99.pair-00.perm.txt.pipe'
p2232
(dp2233
(NS'Explicit'
p2234
tp2235
F0.5666666666666667
s(S'Expansion.1'
p2236
Ntp2237
F0.43333333333333335
s(g2234
Ntp2238
F0.43333333333333335
s(NS'Expansion.2'
p2239
tp2240
F0.5666666666666667
ssS'doc_97.pair-00.txt.pipe'
p2241
(dp2242
(NS'Explicit'
p2243
tp2244
F0.8333333333333334
s(S'Expansion.1'
p2245
Ntp2246
F0.16666666666666666
s(g2243
Ntp2247
F0.16666666666666666
s(NS'Expansion.2'
p2248
tp2249
F0.8333333333333334
ssS'doc_174.pair-01.perm.txt.pipe'
p2250
(dp2251
sS'doc_22.pair-00.txt.pipe'
p2252
(dp2253
(S'Contingency.1'
p2254
Ntp2255
F0.16666666666666666
s(S'Expansion.1'
p2256
Ntp2257
F0.013888888888888888
s(NS'Explicit'
p2258
tp2259
F0.4807692307692308
s(NS'Contingency.2'
p2260
tp2261
F0.1527777777777778
s(g2258
Ntp2262
F0.25
s(g2258
S'Explicit'
p2263
tp2264
F0.038461538461538464
s(NNtp2265
F0.23076923076923078
s(S'Expansion.2'
p2266
S'Contingency.2'
p2267
tp2268
F0.027777777777777776
s(S'Expansion.2'
p2269
Ntp2270
F0.1388888888888889
s(Ng2254
tp2271
F0.16666666666666666
s(Ng2266
tp2272
F0.16666666666666666
ssS'doc_23.pair-00.txt.pipe'
p2273
(dp2274
sS'doc_152.pair-00.perm.txt.pipe'
p2275
(dp2276
sS'doc_198.pair-00.perm.txt.pipe'
p2277
(dp2278
(NS'Explicit'
p2279
tp2280
F0.6666666666666666
s(S'Temporal.1'
p2281
Ntp2282
F0.3333333333333333
s(g2279
Ntp2283
F0.3333333333333333
s(NS'Temporal.2'
p2284
tp2285
F0.6666666666666666
ssS'doc_164.pair-00.txt.pipe'
p2286
(dp2287
(NS'Explicit'
p2288
tp2289
F0.96
s(S'Expansion.1'
p2290
Ntp2291
F0.04
s(g2288
Ntp2292
F0.04
s(NS'Expansion.2'
p2293
tp2294
F0.96
ssS'doc_50.pair-00.txt.pipe'
p2295
(dp2296
sS'doc_60.pair-00.txt.pipe'
p2297
(dp2298
sS'doc_63.pair-01.perm.txt.pipe'
p2299
(dp2300
sS'doc_99.pair-01.txt.pipe'
p2301
(dp2302
sS'doc_147.pair-00.txt.pipe'
p2303
(dp2304
sS'doc_64.pair-00.txt.pipe'
p2305
(dp2306
(S'Contingency.1'
p2307
Ntp2308
F0.125
s(NS'Explicit'
p2309
tp2310
F0.5813953488372093
s(S'Explicit'
p2311
Ntp2312
F0.37209302325581395
s(g2311
g2309
tp2313
F0.046511627906976744
s(NS'Comparison.2'
p2314
tp2315
F0.44642857142857145
s(S'Contingency.2'
p2316
S'Comparison.2'
p2317
tp2318
F0.03571428571428571
s(S'Contingency.2'
p2319
Ntp2320
F0.10714285714285714
s(S'Comparison.1'
p2321
Ntp2322
F0.2857142857142857
ssS'doc_7.pair-00.perm.txt.pipe'
p2323
(dp2324
sS'doc_80.pair-00.perm.txt.pipe'
p2325
(dp2326
sS'doc_83.pair-00.txt.pipe'
p2327
(dp2328
sS'doc_199.pair-01.txt.pipe'
p2329
(dp2330
sS'doc_8.pair-00.txt.pipe'
p2331
(dp2332
sS'doc_177.pair-01.perm.txt.pipe'
p2333
(dp2334
sS'doc_107.pair-01.perm.txt.pipe'
p2335
(dp2336
sS'doc_180.pair-01.txt.pipe'
p2337
(dp2338
(NS'Temporal.1'
p2339
tp2340
F0.11538461538461539
s(NS'Temporal.2'
p2341
tp2342
F0.15384615384615385
s(NS'Expansion.1'
p2343
tp2344
F0.23076923076923078
s(NS'Explicit'
p2345
tp2346
F0.5789473684210527
s(S'Temporal.1'
p2347
Ntp2348
F0.19230769230769232
s(S'Explicit'
p2349
Ntp2350
F0.42105263157894735
s(NS'Expansion.2'
p2351
tp2352
F0.19230769230769232
s(S'Temporal.2'
p2353
Ntp2354
F0.11538461538461539
ssS'doc_46.pair-01.perm.txt.pipe'
p2355
(dp2356
(S'Expansion.1'
p2357
Ntp2358
F0.3541666666666667
s(S'Expansion.2'
p2359
S'Expansion.2'
p2360
tp2361
F0.0625
s(S'Expansion.2'
p2362
Ntp2363
F0.3333333333333333
s(NS'Explicit'
p2364
tp2365
F0.375
s(g2364
Ntp2366
F0.53125
s(S'Explicit'
p2367
g2364
tp2368
F0.09375
s(NS'Expansion.2'
p2369
tp2370
F0.25
ssS'doc_41.pair-00.perm.txt.pipe'
p2371
(dp2372
sS'doc_51.pair-00.perm.txt.pipe'
p2373
(dp2374
sS'doc_120.pair-00.perm.txt.pipe'
p2375
(dp2376
sS'doc_80.pair-01.perm.txt.pipe'
p2377
(dp2378
sS'doc_68.pair-01.txt.pipe'
p2379
(dp2380
(S'Contingency.1'
p2381
Ntp2382
F0.2
s(NS'Explicit'
p2383
tp2384
F0.43333333333333335
s(g2383
Ntp2385
F0.5
s(S'Explicit'
p2386
g2383
tp2387
F0.06666666666666667
s(NS'Comparison.2'
p2388
tp2389
F0.26
s(S'Contingency.2'
p2390
S'Comparison.2'
p2391
tp2392
F0.04
s(S'Contingency.2'
p2393
Ntp2394
F0.2
s(S'Comparison.1'
p2395
Ntp2396
F0.3
ssS'doc_184.pair-00.perm.txt.pipe'
p2397
(dp2398
sS'doc_56.pair-01.txt.pipe'
p2399
(dp2400
(S'Contingency.1'
p2401
Ntp2402
F0.15151515151515152
s(NS'EntRel'
p2403
tp2404
F0.30303030303030304
s(NS'.2'
p2405
tp2406
F0.30303030303030304
s(g2403
Ntp2407
F0.21212121212121213
s(S'Explicit'
p2408
Ntp2409
F0.21212121212121213
s(S'.1'
p2410
Ntp2411
F0.21212121212121213
s(S'Contingency.2'
p2412
Ntp2413
F0.06060606060606061
s(g2408
g2403
tp2414
F0.2727272727272727
s(S'Contingency.2'
p2415
S'.2'
p2416
tp2417
F0.2727272727272727
ssS'doc_156.pair-01.txt.pipe'
p2418
(dp2419
sS'doc_47.pair-00.txt.pipe'
p2420
(dp2421
sS'doc_139.pair-01.perm.txt.pipe'
p2422
(dp2423
sS'doc_194.pair-00.txt.pipe'
p2424
(dp2425
(NS'Explicit'
p2426
tp2427
F0.9285714285714286
s(NS'Comparison.2'
p2428
tp2429
F0.9285714285714286
s(g2426
Ntp2430
F0.07142857142857142
s(S'Comparison.1'
p2431
Ntp2432
F0.07142857142857142
ssS'doc_126.pair-01.txt.pipe'
p2433
(dp2434
sS'doc_180.pair-00.txt.pipe'
p2435
(dp2436
(S'Expansion.1'
p2437
Ntp2438
F0.14285714285714285
s(NS'Comparison.1'
p2439
tp2440
F0.32142857142857145
s(S'Expansion.2'
p2441
Ntp2442
F0.35714285714285715
s(NS'Comparison.2'
p2443
tp2444
F0.17857142857142858
s(NS'Explicit'
p2445
tp2446
F0.5
s(S'Explicit'
p2447
Ntp2448
F0.5
ssS'doc_73.pair-01.perm.txt.pipe'
p2449
(dp2450
(NS'Explicit'
p2451
tp2452
F0.4230769230769231
s(NS'Comparison.2'
p2453
tp2454
F0.4230769230769231
s(g2451
Ntp2455
F0.5769230769230769
s(S'Comparison.1'
p2456
Ntp2457
F0.5769230769230769
ssS'doc_22.pair-01.txt.pipe'
p2458
(dp2459
sS'doc_157.pair-00.txt.pipe'
p2460
(dp2461
sS'doc_32.pair-01.txt.pipe'
p2462
(dp2463
sS'doc_59.pair-01.txt.pipe'
p2464
(dp2465
sS'doc_61.pair-01.perm.txt.pipe'
p2466
(dp2467
sS'doc_96.pair-01.txt.pipe'
p2468
(dp2469
(NS'Explicit'
p2470
tp2471
F0.5
s(S'Expansion.1'
p2472
Ntp2473
F0.5
s(g2470
Ntp2474
F0.5
s(NS'Expansion.2'
p2475
tp2476
F0.5
ssS'doc_23.pair-00.perm.txt.pipe'
p2477
(dp2478
sS'doc_4.pair-00.txt.pipe'
p2479
(dp2480
sS'doc_185.pair-01.txt.pipe'
p2481
(dp2482
(NS'Comparison.2'
p2483
tp2484
F0.24
s(S'Temporal.2'
p2485
S'Comparison.1'
p2486
tp2487
F0.04
s(NS'Comparison.1'
p2488
tp2489
F0.32
s(NS'Explicit'
p2490
tp2491
F0.56
s(S'Temporal.1'
p2492
S'Comparison.1'
p2493
tp2494
F0.08
s(S'Temporal.1'
p2495
Ntp2496
F0.12
s(S'Explicit'
p2497
Ntp2498
F0.32
s(g2497
g2490
tp2499
F0.12
s(S'Temporal.2'
p2500
Ntp2501
F0.2
ssS'doc_162.pair-00.perm.txt.pipe'
p2502
(dp2503
sS'doc_125.pair-01.txt.pipe'
p2504
(dp2505
sS'doc_128.pair-01.txt.pipe'
p2506
(dp2507
sS'doc_139.pair-00.txt.pipe'
p2508
(dp2509
sS'doc_67.pair-00.perm.txt.pipe'
p2510
(dp2511
sS'doc_108.pair-00.txt.pipe'
p2512
(dp2513
sS'doc_152.pair-00.txt.pipe'
p2514
(dp2515
sS'doc_134.pair-00.perm.txt.pipe'
p2516
(dp2517
sS'doc_173.pair-01.perm.txt.pipe'
p2518
(dp2519
sS'doc_29.pair-00.perm.txt.pipe'
p2520
(dp2521
(NS'Explicit'
p2522
tp2523
F0.8888888888888888
s(NS'Comparison.2'
p2524
tp2525
F0.8888888888888888
s(g2522
Ntp2526
F0.1111111111111111
s(S'Comparison.1'
p2527
Ntp2528
F0.1111111111111111
ssS'doc_123.pair-01.txt.pipe'
p2529
(dp2530
sS'doc_145.pair-00.txt.pipe'
p2531
(dp2532
sS'doc_85.pair-00.txt.pipe'
p2533
(dp2534
(NS'Explicit'
p2535
tp2536
F0.9411764705882353
s(S'Expansion.1'
p2537
Ntp2538
F0.058823529411764705
s(g2535
Ntp2539
F0.058823529411764705
s(NS'Expansion.2'
p2540
tp2541
F0.9411764705882353
ssS'doc_28.pair-00.perm.txt.pipe'
p2542
(dp2543
(NS'Explicit'
p2544
tp2545
F0.7560975609756098
s(S'Expansion.1'
p2546
Ntp2547
F0.24390243902439024
s(g2544
Ntp2548
F0.24390243902439024
s(NS'Expansion.2'
p2549
tp2550
F0.7560975609756098
ssS'doc_186.pair-01.txt.pipe'
p2551
(dp2552
sS'doc_4.pair-00.perm.txt.pipe'
p2553
(dp2554
sS'doc_91.pair-00.perm.txt.pipe'
p2555
(dp2556
sS'doc_121.pair-00.txt.pipe'
p2557
(dp2558
sS'doc_48.pair-01.perm.txt.pipe'
p2559
(dp2560
sS'doc_65.pair-00.txt.pipe'
p2561
(dp2562
sS'doc_183.pair-01.perm.txt.pipe'
p2563
(dp2564
(NS'Comparison.2'
p2565
tp2566
F0.4117647058823529
s(S'Explicit'
p2567
S'Explicit'
p2568
tp2569
F0.16
s(S'Comparison.2'
p2570
S'Comparison.2'
p2571
tp2572
F0.11764705882352941
s(S'Temporal.1'
p2573
Ntp2574
F0.029411764705882353
s(Ng2568
tp2575
F0.56
s(S'Comparison.2'
p2576
Ntp2577
F0.08823529411764706
s(S'Temporal.2'
p2578
g2571
tp2579
F0.08823529411764706
s(S'Comparison.1'
p2580
Ntp2581
F0.20588235294117646
s(g2568
Ntp2582
F0.28
s(S'Temporal.2'
p2583
Ntp2584
F0.058823529411764705
ssS'doc_130.pair-00.txt.pipe'
p2585
(dp2586
(S'Comparison.2'
p2587
S'Expansion.2'
p2588
tp2589
F0.02631578947368421
s(NS'Explicit'
p2590
tp2591
F0.4868421052631579
s(S'Comparison.2'
p2592
Ntp2593
F0.15789473684210525
s(S'Explicit'
p2594
Ntp2595
F0.17105263157894737
s(g2594
g2590
tp2596
F0.02631578947368421
s(NNtp2597
F0.3157894736842105
s(Ng2592
tp2598
F0.18421052631578946
s(NS'Expansion.1'
p2599
tp2600
F0.11842105263157894
s(NS'Expansion.2'
p2601
tp2602
F0.18421052631578946
s(S'Comparison.1'
p2603
Ntp2604
F0.013157894736842105
ssS'doc_19.pair-01.txt.pipe'
p2605
(dp2606
sS'doc_182.pair-01.perm.txt.pipe'
p2607
(dp2608
(NS'Explicit'
p2609
tp2610
F0.7222222222222222
s(NS'Comparison.2'
p2611
tp2612
F0.7222222222222222
s(g2609
Ntp2613
F0.2777777777777778
s(S'Comparison.1'
p2614
Ntp2615
F0.2777777777777778
ssS'doc_168.pair-01.txt.pipe'
p2616
(dp2617
(NS'Explicit'
p2618
tp2619
F0.8421052631578947
s(S'Expansion.1'
p2620
Ntp2621
F0.15789473684210525
s(g2618
Ntp2622
F0.15789473684210525
s(NS'Expansion.2'
p2623
tp2624
F0.8421052631578947
ssS'doc_135.pair-00.txt.pipe'
p2625
(dp2626
sS'doc_129.pair-01.txt.pipe'
p2627
(dp2628
sS'doc_180.pair-01.perm.txt.pipe'
p2629
(dp2630
(S'Expansion.1'
p2631
Ntp2632
F0.23076923076923078
s(NS'Temporal.2'
p2633
tp2634
F0.11538461538461539
s(S'Expansion.2'
p2635
Ntp2636
F0.19230769230769232
s(NS'Temporal.1'
p2637
tp2638
F0.19230769230769232
s(NS'Explicit'
p2639
tp2640
F0.42105263157894735
s(S'Temporal.1'
p2641
Ntp2642
F0.11538461538461539
s(S'Explicit'
p2643
Ntp2644
F0.5789473684210527
s(S'Temporal.2'
p2645
Ntp2646
F0.15384615384615385
ssS'doc_107.pair-00.txt.pipe'
p2647
(dp2648
sS'doc_82.pair-01.perm.txt.pipe'
p2649
(dp2650
sS'doc_21.pair-00.txt.pipe'
p2651
(dp2652
sS'doc_104.pair-01.perm.txt.pipe'
p2653
(dp2654
(NS'Explicit'
p2655
tp2656
F0.875
s(S'Expansion.1'
p2657
Ntp2658
F0.125
s(g2655
Ntp2659
F0.125
s(NS'Expansion.2'
p2660
tp2661
F0.875
ssS'doc_39.pair-00.perm.txt.pipe'
p2662
(dp2663
sS'doc_127.pair-00.txt.pipe'
p2664
(dp2665
sS'doc_48.pair-00.perm.txt.pipe'
p2666
(dp2667
sS'doc_163.pair-01.txt.pipe'
p2668
(dp2669
sS'doc_83.pair-01.txt.pipe'
p2670
(dp2671
sS'doc_159.pair-00.txt.pipe'
p2672
(dp2673
(NS'Explicit'
p2674
tp2675
F0.5
s(NS'Comparison.2'
p2676
tp2677
F0.5
s(g2674
Ntp2678
F0.5
s(S'Comparison.1'
p2679
Ntp2680
F0.5
ssS'doc_172.pair-00.txt.pipe'
p2681
(dp2682
sS'doc_87.pair-01.txt.pipe'
p2683
(dp2684
sS'doc_71.pair-01.perm.txt.pipe'
p2685
(dp2686
sS'doc_100.pair-01.perm.txt.pipe'
p2687
(dp2688
sS'doc_96.pair-00.perm.txt.pipe'
p2689
(dp2690
sS'doc_192.pair-01.txt.pipe'
p2691
(dp2692
sS'doc_86.pair-00.txt.pipe'
p2693
(dp2694
(S'Contingency.1'
p2695
Ntp2696
F0.11764705882352941
s(NS'Explicit'
p2697
tp2698
F0.5882352941176471
s(S'Explicit'
p2699
Ntp2700
F0.35294117647058826
s(g2699
g2697
tp2701
F0.058823529411764705
s(S'Contingency.2'
p2702
S'Contingency.2'
p2703
tp2704
F0.058823529411764705
s(S'Contingency.2'
p2705
Ntp2706
F0.23529411764705882
s(NS'Contingency.1'
p2707
tp2708
F0.17647058823529413
s(NS'Contingency.2'
p2709
tp2710
F0.4117647058823529
ssS'doc_30.pair-01.perm.txt.pipe'
p2711
(dp2712
sS'doc_67.pair-00.txt.pipe'
p2713
(dp2714
sS'doc_117.pair-00.txt.pipe'
p2715
(dp2716
sS'doc_55.pair-00.txt.pipe'
p2717
(dp2718
sS'doc_144.pair-00.perm.txt.pipe'
p2719
(dp2720
sS'doc_193.pair-01.perm.txt.pipe'
p2721
(dp2722
sS'doc_177.pair-00.perm.txt.pipe'
p2723
(dp2724
(S'Comparison.2'
p2725
S'Expansion.2'
p2726
tp2727
F0.023809523809523808
s(S'Expansion.1'
p2728
Ntp2729
F0.21428571428571427
s(NS'Explicit'
p2730
tp2731
F0.4791666666666667
s(S'Comparison.2'
p2732
Ntp2733
F0.21428571428571427
s(g2730
Ntp2734
F0.3958333333333333
s(g2730
S'Explicit'
p2735
tp2736
F0.041666666666666664
s(NNtp2737
F0.08333333333333333
s(Ng2725
tp2738
F0.23809523809523808
s(Ng2728
tp2739
F0.21428571428571427
s(NS'Expansion.2'
p2740
tp2741
F0.03571428571428571
s(S'Comparison.1'
p2742
Ntp2743
F0.011904761904761904
ssS'doc_162.pair-01.txt.pipe'
p2744
(dp2745
sS'doc_45.pair-00.perm.txt.pipe'
p2746
(dp2747
sS'doc_14.pair-00.txt.pipe'
p2748
(dp2749
(NS'Explicit'
p2750
tp2751
F0.9
s(S'Expansion.1'
p2752
Ntp2753
F0.1
s(g2750
Ntp2754
F0.1
s(NS'Expansion.2'
p2755
tp2756
F0.9
ssS'doc_95.pair-00.perm.txt.pipe'
p2757
(dp2758
(NS'Explicit'
p2759
tp2760
F0.9565217391304348
s(S'Expansion.1'
p2761
Ntp2762
F0.043478260869565216
s(g2759
Ntp2763
F0.043478260869565216
s(NS'Expansion.2'
p2764
tp2765
F0.9565217391304348
ssS'doc_41.pair-00.txt.pipe'
p2766
(dp2767
sS'doc_113.pair-00.perm.txt.pipe'
p2768
(dp2769
sS'doc_159.pair-01.perm.txt.pipe'
p2770
(dp2771
(S'Contingency.1'
p2772
Ntp2773
F0.2926829268292683
s(NS'Explicit'
p2774
tp2775
F0.5806451612903226
s(S'Explicit'
p2776
Ntp2777
F0.3870967741935484
s(g2776
g2774
tp2778
F0.03225806451612903
s(S'Temporal.2'
p2779
Ntp2780
F0.14634146341463414
s(S'Temporal.1'
p2781
Ntp2782
F0.0975609756097561
s(S'Temporal.2'
p2783
S'Contingency.2'
p2784
tp2785
F0.024390243902439025
s(NS'Contingency.2'
p2786
tp2787
F0.43902439024390244
ssS'doc_193.pair-00.perm.txt.pipe'
p2788
(dp2789
sS'doc_52.pair-01.perm.txt.pipe'
p2790
(dp2791
sS'doc_35.pair-00.txt.pipe'
p2792
(dp2793
(NS'Explicit'
p2794
tp2795
F0.9285714285714286
s(NS'Comparison.2'
p2796
tp2797
F0.9285714285714286
s(g2794
Ntp2798
F0.07142857142857142
s(S'Comparison.1'
p2799
Ntp2800
F0.07142857142857142
ssS'doc_96.pair-01.perm.txt.pipe'
p2801
(dp2802
(NS'Explicit'
p2803
tp2804
F0.9090909090909091
s(S'Expansion.1'
p2805
Ntp2806
F0.09090909090909091
s(g2803
Ntp2807
F0.09090909090909091
s(NS'Expansion.2'
p2808
tp2809
F0.9090909090909091
ssS'doc_25.pair-00.perm.txt.pipe'
p2810
(dp2811
sS'doc_85.pair-01.perm.txt.pipe'
p2812
(dp2813
(NS'Explicit'
p2814
tp2815
F0.9473684210526315
s(NS'Comparison.2'
p2816
tp2817
F0.9473684210526315
s(g2814
Ntp2818
F0.05263157894736842
s(S'Comparison.1'
p2819
Ntp2820
F0.05263157894736842
ssS'doc_62.pair-00.txt.pipe'
p2821
(dp2822
(NS'Explicit'
p2823
tp2824
F0.9285714285714286
s(S'Expansion.1'
p2825
Ntp2826
F0.07142857142857142
s(g2823
Ntp2827
F0.07142857142857142
s(NS'Expansion.2'
p2828
tp2829
F0.9285714285714286
ssS'doc_23.pair-01.perm.txt.pipe'
p2830
(dp2831
(NS'Explicit'
p2832
tp2833
F0.631578947368421
s(NS'Comparison.2'
p2834
tp2835
F0.631578947368421
s(g2832
Ntp2836
F0.3684210526315789
s(S'Comparison.1'
p2837
Ntp2838
F0.3684210526315789
ssS'doc_115.pair-01.txt.pipe'
p2839
(dp2840
sS'doc_101.pair-00.txt.pipe'
p2841
(dp2842
sS'doc_35.pair-01.txt.pipe'
p2843
(dp2844
(NS'Temporal.1'
p2845
tp2846
F0.25
s(NS'Temporal.2'
p2847
tp2848
F0.15
s(NS'Comparison.2'
p2849
tp2850
F0.4
s(NS'Explicit'
p2851
tp2852
F0.9411764705882353
s(NS'Contingency.1'
p2853
tp2854
F0.075
s(S'Explicit'
p2855
Ntp2856
F0.058823529411764705
s(NS'Contingency.2'
p2857
tp2858
F0.1
s(S'Comparison.1'
p2859
Ntp2860
F0.025
ssS'doc_181.pair-00.txt.pipe'
p2861
(dp2862
sS'doc_115.pair-00.txt.pipe'
p2863
(dp2864
sS'doc_82.pair-00.perm.txt.pipe'
p2865
(dp2866
sS'doc_189.pair-01.txt.pipe'
p2867
(dp2868
sS'doc_103.pair-01.txt.pipe'
p2869
(dp2870
sS'doc_28.pair-00.txt.pipe'
p2871
(dp2872
(NS'Explicit'
p2873
tp2874
F0.95
s(S'Expansion.1'
p2875
Ntp2876
F0.05
s(g2873
Ntp2877
F0.05
s(NS'Expansion.2'
p2878
tp2879
F0.95
ssS'doc_58.pair-00.txt.pipe'
p2880
(dp2881
sS'doc_193.pair-00.txt.pipe'
p2882
(dp2883
sS'doc_91.pair-01.txt.pipe'
p2884
(dp2885
sS'doc_118.pair-01.txt.pipe'
p2886
(dp2887
(S'Contingency.1'
p2888
Ntp2889
F0.1
s(NS'Explicit'
p2890
tp2891
F0.6
s(S'Explicit'
p2892
Ntp2893
F0.3
s(g2892
g2890
tp2894
F0.1
s(S'Contingency.2'
p2895
S'Contingency.2'
p2896
tp2897
F0.1
s(S'Contingency.2'
p2898
Ntp2899
F0.2
s(NS'Contingency.1'
p2900
tp2901
F0.4
s(NS'Contingency.2'
p2902
tp2903
F0.2
ssS'doc_166.pair-00.txt.pipe'
p2904
(dp2905
sS'doc_17.pair-00.txt.pipe'
p2906
(dp2907
sS'doc_190.pair-01.perm.txt.pipe'
p2908
(dp2909
sS'doc_57.pair-01.perm.txt.pipe'
p2910
(dp2911
sS'doc_33.pair-01.txt.pipe'
p2912
(dp2913
sS'doc_40.pair-00.perm.txt.pipe'
p2914
(dp2915
sS'doc_90.pair-00.txt.pipe'
p2916
(dp2917
sS'doc_7.pair-01.perm.txt.pipe'
p2918
(dp2919
(NS'Explicit'
p2920
tp2921
F0.8571428571428571
s(S'Expansion.1'
p2922
Ntp2923
F0.14285714285714285
s(g2920
Ntp2924
F0.14285714285714285
s(NS'Expansion.2'
p2925
tp2926
F0.8571428571428571
ssS'doc_127.pair-01.perm.txt.pipe'
p2927
(dp2928
sS'doc_160.pair-00.perm.txt.pipe'
p2929
(dp2930
sS'doc_172.pair-01.perm.txt.pipe'
p2931
(dp2932
sS'doc_108.pair-01.txt.pipe'
p2933
(dp2934
sS'doc_70.pair-01.txt.pipe'
p2935
(dp2936
sS'doc_164.pair-01.perm.txt.pipe'
p2937
(dp2938
sS'doc_53.pair-01.txt.pipe'
p2939
(dp2940
(NS'Comparison.2'
p2941
tp2942
F0.3548387096774194
s(NS'Comparison.1'
p2943
tp2944
F0.22580645161290322
s(S'Temporal.1'
p2945
S'Comparison.2'
p2946
tp2947
F0.03225806451612903
s(NS'Explicit'
p2948
tp2949
F0.5806451612903226
s(S'Temporal.1'
p2950
Ntp2951
F0.06451612903225806
s(S'Temporal.2'
p2952
S'Comparison.2'
p2953
tp2954
F0.03225806451612903
s(S'Explicit'
p2955
g2948
tp2956
F0.06451612903225806
s(g2955
Ntp2957
F0.3548387096774194
s(S'Temporal.2'
p2958
Ntp2959
F0.2903225806451613
ssS'doc_165.pair-00.perm.txt.pipe'
p2960
(dp2961
sS'doc_71.pair-01.txt.pipe'
p2962
(dp2963
sS'doc_190.pair-00.perm.txt.pipe'
p2964
(dp2965
sS'doc_114.pair-01.txt.pipe'
p2966
(dp2967
(NS'Explicit'
p2968
tp2969
F0.4117647058823529
s(S'Expansion.1'
p2970
Ntp2971
F0.5882352941176471
s(g2968
Ntp2972
F0.5882352941176471
s(NS'Expansion.2'
p2973
tp2974
F0.4117647058823529
ssS'doc_126.pair-00.txt.pipe'
p2975
(dp2976
sS'doc_165.pair-01.perm.txt.pipe'
p2977
(dp2978
sS'doc_25.pair-01.txt.pipe'
p2979
(dp2980
(NS'Explicit'
p2981
tp2982
F0.8888888888888888
s(NS'Comparison.2'
p2983
tp2984
F0.8888888888888888
s(g2981
Ntp2985
F0.1111111111111111
s(S'Comparison.1'
p2986
Ntp2987
F0.1111111111111111
ssS'doc_18.pair-00.txt.pipe'
p2988
(dp2989
(NS'Explicit'
p2990
tp2991
F0.9333333333333333
s(S'Expansion.1'
p2992
Ntp2993
F0.06666666666666667
s(g2990
Ntp2994
F0.06666666666666667
s(NS'Expansion.2'
p2995
tp2996
F0.9333333333333333
ssS'doc_20.pair-01.perm.txt.pipe'
p2997
(dp2998
sS'doc_182.pair-00.perm.txt.pipe'
p2999
(dp3000
(S'Expansion.1'
p3001
Ntp3002
F0.045454545454545456
s(S'Expansion.2'
p3003
Ntp3004
F0.3181818181818182
s(NS'Explicit'
p3005
tp3006
F0.45454545454545453
s(NS'Contingency.1'
p3007
tp3008
F0.045454545454545456
s(g3005
Ntp3009
F0.36363636363636365
s(Ng3003
tp3010
F0.3181818181818182
s(NS'Contingency.2'
p3011
tp3012
F0.09090909090909091
s(NNtp3013
F0.18181818181818182
ssS'doc_95.pair-00.txt.pipe'
p3014
(dp3015
(NS'Explicit'
p3016
tp3017
F0.8064516129032258
s(S'Expansion.1'
p3018
Ntp3019
F0.1935483870967742
s(g3016
Ntp3020
F0.1935483870967742
s(NS'Expansion.2'
p3021
tp3022
F0.8064516129032258
ssS'doc_106.pair-00.perm.txt.pipe'
p3023
(dp3024
(NS'Comparison.2'
p3025
tp3026
F0.36
s(NS'Comparison.1'
p3027
tp3028
F0.32
s(S'Contingency.2'
p3029
Ntp3030
F0.12
s(S'Contingency.1'
p3031
Ntp3032
F0.2
s(NS'Explicit'
p3033
tp3034
F0.68
s(S'Explicit'
p3035
Ntp3036
F0.32
ssS'doc_92.pair-00.txt.pipe'
p3037
(dp3038
sS'doc_115.pair-00.perm.txt.pipe'
p3039
(dp3040
sS'doc_35.pair-01.perm.txt.pipe'
p3041
(dp3042
(NS'Temporal.1'
p3043
tp3044
F0.20408163265306123
s(NS'Temporal.2'
p3045
tp3046
F0.12244897959183673
s(NS'Comparison.2'
p3047
tp3048
F0.3673469387755102
s(NS'Explicit'
p3049
tp3050
F0.6923076923076923
s(NS'Contingency.1'
p3051
tp3052
F0.061224489795918366
s(S'Explicit'
p3053
Ntp3054
F0.3076923076923077
s(NS'Contingency.2'
p3055
tp3056
F0.08163265306122448
s(S'Comparison.1'
p3057
Ntp3058
F0.16326530612244897
ssS'doc_187.pair-01.txt.pipe'
p3059
(dp3060
(NS'Explicit'
p3061
tp3062
F0.6666666666666666
s(S'Contingency.1'
p3063
Ntp3064
F0.3333333333333333
s(g3061
Ntp3065
F0.3333333333333333
s(NS'Contingency.2'
p3066
tp3067
F0.6666666666666666
ssS'doc_135.pair-01.txt.pipe'
p3068
(dp3069
(NS'Explicit'
p3070
tp3071
F0.3
s(NS'Comparison.2'
p3072
tp3073
F0.3
s(g3070
Ntp3074
F0.7
s(S'Comparison.1'
p3075
Ntp3076
F0.7
ssS'doc_174.pair-01.txt.pipe'
p3077
(dp3078
sS'doc_64.pair-00.perm.txt.pipe'
p3079
(dp3080
(S'Comparison.2'
p3081
S'Contingency.2'
p3082
tp3083
F0.038461538461538464
s(NS'Explicit'
p3084
tp3085
F0.48717948717948717
s(S'Comparison.2'
p3086
Ntp3087
F0.2948717948717949
s(g3084
Ntp3088
F0.3076923076923077
s(g3084
S'Explicit'
p3089
tp3090
F0.038461538461538464
s(NNtp3091
F0.16666666666666666
s(Ng3086
tp3092
F0.3333333333333333
s(NS'Contingency.1'
p3093
tp3094
F0.08974358974358974
s(NS'Contingency.2'
p3095
tp3096
F0.0641025641025641
s(S'Comparison.1'
p3097
Ntp3098
F0.01282051282051282
ssS'doc_146.pair-00.txt.pipe'
p3099
(dp3100
(NS'Explicit'
p3101
tp3102
F0.3333333333333333
s(S'Expansion.1'
p3103
Ntp3104
F0.6666666666666666
s(g3101
Ntp3105
F0.6666666666666666
s(NS'Expansion.2'
p3106
tp3107
F0.3333333333333333
ssS'doc_70.pair-01.perm.txt.pipe'
p3108
(dp3109
sS'doc_10.pair-01.perm.txt.pipe'
p3110
(dp3111
sS'doc_168.pair-00.perm.txt.pipe'
p3112
(dp3113
(S'Expansion.1'
p3114
Ntp3115
F0.3103448275862069
s(NS'Explicit'
p3116
tp3117
F0.55
s(S'Temporal.1'
p3118
Ntp3119
F0.27586206896551724
s(S'Explicit'
p3120
Ntp3121
F0.45
s(NS'Expansion.2'
p3122
tp3123
F0.3793103448275862
s(S'Temporal.2'
p3124
Ntp3125
F0.034482758620689655
ssS'doc_86.pair-01.txt.pipe'
p3126
(dp3127
sS'doc_181.pair-00.perm.txt.pipe'
p3128
(dp3129
sS'doc_114.pair-00.txt.pipe'
p3130
(dp3131
(NS'Temporal.1'
p3132
tp3133
F0.021739130434782608
s(S'Explicit'
p3134
S'Explicit'
p3135
tp3136
F0.021739130434782608
s(NS'Temporal.2'
p3137
tp3138
F0.10869565217391304
s(S'Expansion.1'
p3139
Ntp3140
F0.021739130434782608
s(Ng3134
tp3141
F0.4782608695652174
s(g3134
Ntp3142
F0.34782608695652173
s(S'Expansion.2'
p3143
S'Temporal.2'
p3144
tp3145
F0.021739130434782608
s(NNtp3146
F0.15217391304347827
s(S'Expansion.2'
p3147
Ntp3148
F0.32608695652173914
s(Ng3147
tp3149
F0.34782608695652173
ssS'doc_65.pair-01.perm.txt.pipe'
p3150
(dp3151
sS'doc_74.pair-00.txt.pipe'
p3152
(dp3153
sS'doc_161.pair-00.perm.txt.pipe'
p3154
(dp3155
sS'doc_50.pair-01.perm.txt.pipe'
p3156
(dp3157
sS'doc_42.pair-00.perm.txt.pipe'
p3158
(dp3159
(S'Expansion.1'
p3160
Ntp3161
F0.020833333333333332
s(NS'Explicit'
p3162
tp3163
F0.4791666666666667
s(NS'Contingency.2'
p3164
tp3165
F0.14583333333333334
s(S'Expansion.2'
p3166
S'Contingency.1'
p3167
tp3168
F0.020833333333333332
s(S'Explicit'
p3169
g3162
tp3170
F0.041666666666666664
s(NNtp3171
F0.2708333333333333
s(S'Expansion.2'
p3172
S'Contingency.2'
p3173
tp3174
F0.020833333333333332
s(S'Expansion.2'
p3175
Ntp3176
F0.1875
s(NS'Contingency.1'
p3177
tp3178
F0.10416666666666667
s(Ng3166
tp3179
F0.22916666666666666
s(g3169
Ntp3180
F0.20833333333333334
ssS'doc_34.pair-01.txt.pipe'
p3181
(dp3182
sS'doc_197.pair-01.perm.txt.pipe'
p3183
(dp3184
sS'doc_139.pair-01.txt.pipe'
p3185
(dp3186
sS'doc_149.pair-00.perm.txt.pipe'
p3187
(dp3188
sS'doc_30.pair-00.txt.pipe'
p3189
(dp3190
sS'doc_156.pair-01.perm.txt.pipe'
p3191
(dp3192
sS'doc_69.pair-01.txt.pipe'
p3193
(dp3194
sS'doc_24.pair-00.perm.txt.pipe'
p3195
(dp3196
(NS'Comparison.2'
p3197
tp3198
F0.25
s(NS'Comparison.1'
p3199
tp3200
F0.10714285714285714
s(S'Expansion.1'
p3201
Ntp3202
F0.03571428571428571
s(NS'Explicit'
p3203
tp3204
F0.9473684210526315
s(S'Explicit'
p3205
Ntp3206
F0.05263157894736842
s(NS'Expansion.2'
p3207
tp3208
F0.6071428571428571
ssS'doc_49.pair-01.perm.txt.pipe'
p3209
(dp3210
sS'doc_54.pair-01.perm.txt.pipe'
p3211
(dp3212
(NS'Explicit'
p3213
tp3214
F0.8333333333333334
s(S'Expansion.1'
p3215
Ntp3216
F0.16666666666666666
s(g3213
Ntp3217
F0.16666666666666666
s(NS'Expansion.2'
p3218
tp3219
F0.8333333333333334
ssS'doc_168.pair-01.perm.txt.pipe'
p3220
(dp3221
(NS'Explicit'
p3222
tp3223
F0.9230769230769231
s(S'Expansion.1'
p3224
Ntp3225
F0.07692307692307693
s(g3222
Ntp3226
F0.07692307692307693
s(NS'Expansion.2'
p3227
tp3228
F0.9230769230769231
ssS'doc_183.pair-00.perm.txt.pipe'
p3229
(dp3230
sS'doc_6.pair-01.perm.txt.pipe'
p3231
(dp3232
sS'doc_84.pair-00.txt.pipe'
p3233
(dp3234
(NS'Explicit'
p3235
tp3236
F0.9166666666666666
s(NS'Comparison.2'
p3237
tp3238
F0.9166666666666666
s(g3235
Ntp3239
F0.08333333333333333
s(S'Comparison.1'
p3240
Ntp3241
F0.08333333333333333
ssS'doc_46.pair-01.txt.pipe'
p3242
(dp3243
(S'Expansion.1'
p3244
Ntp3245
F0.015151515151515152
s(S'Expansion.2'
p3246
S'Expansion.2'
p3247
tp3248
F0.030303030303030304
s(S'Expansion.2'
p3249
Ntp3250
F0.18181818181818182
s(NS'Explicit'
p3251
tp3252
F0.48484848484848486
s(NS'Expansion.1'
p3253
tp3254
F0.015151515151515152
s(g3251
Ntp3255
F0.19696969696969696
s(g3251
S'Explicit'
p3256
tp3257
F0.030303030303030304
s(Ng3246
tp3258
F0.4696969696969697
s(NNtp3259
F0.2878787878787879
ssS'doc_146.pair-00.perm.txt.pipe'
p3260
(dp3261
(NS'Explicit'
p3262
tp3263
F0.8571428571428571
s(S'Expansion.1'
p3264
Ntp3265
F0.14285714285714285
s(g3262
Ntp3266
F0.14285714285714285
s(NS'Expansion.2'
p3267
tp3268
F0.8571428571428571
ssS'doc_64.pair-01.perm.txt.pipe'
p3269
(dp3270
sS'doc_158.pair-01.perm.txt.pipe'
p3271
(dp3272
sS'doc_118.pair-00.perm.txt.pipe'
p3273
(dp3274
sS'doc_142.pair-01.perm.txt.pipe'
p3275
(dp3276
sS'doc_143.pair-00.perm.txt.pipe'
p3277
(dp3278
sS'doc_165.pair-00.txt.pipe'
p3279
(dp3280
sS'doc_23.pair-01.txt.pipe'
p3281
(dp3282
(NS'Explicit'
p3283
tp3284
F0.9090909090909091
s(NS'Comparison.2'
p3285
tp3286
F0.9090909090909091
s(g3283
Ntp3287
F0.09090909090909091
s(S'Comparison.1'
p3288
Ntp3289
F0.09090909090909091
ssS'doc_47.pair-01.txt.pipe'
p3290
(dp3291
sS'doc_92.pair-01.txt.pipe'
p3292
(dp3293
sS'doc_34.pair-01.perm.txt.pipe'
p3294
(dp3295
sS'doc_77.pair-00.txt.pipe'
p3296
(dp3297
(S'Comparison.2'
p3298
S'Expansion.2'
p3299
tp3300
F0.06818181818181818
s(S'Expansion.1'
p3301
Ntp3302
F0.3409090909090909
s(NS'Explicit'
p3303
tp3304
F0.13636363636363635
s(S'Comparison.2'
p3305
Ntp3306
F0.1590909090909091
s(S'Explicit'
p3307
Ntp3308
F0.7272727272727273
s(g3307
g3303
tp3309
F0.13636363636363635
s(S'Temporal.2'
p3310
Ntp3311
F0.11363636363636363
s(S'Temporal.1'
p3312
Ntp3313
F0.06818181818181818
s(S'Temporal.2'
p3314
S'Expansion.2'
p3315
tp3316
F0.022727272727272728
s(NS'Expansion.2'
p3317
tp3318
F0.06818181818181818
s(S'Comparison.1'
p3319
Ntp3320
F0.1590909090909091
ssS'doc_200.pair-00.txt.pipe'
p3321
(dp3322
sS'doc_143.pair-01.perm.txt.pipe'
p3323
(dp3324
sS'doc_140.pair-01.txt.pipe'
p3325
(dp3326
sS'doc_59.pair-00.perm.txt.pipe'
p3327
(dp3328
(NS'Explicit'
p3329
tp3330
F0.9285714285714286
s(S'Temporal.1'
p3331
Ntp3332
F0.07142857142857142
s(g3329
Ntp3333
F0.07142857142857142
s(NS'Temporal.2'
p3334
tp3335
F0.9285714285714286
ssS'doc_192.pair-00.txt.pipe'
p3336
(dp3337
sS'doc_198.pair-00.txt.pipe'
p3338
(dp3339
(NS'Explicit'
p3340
tp3341
F0.9545454545454546
s(S'Temporal.1'
p3342
Ntp3343
F0.045454545454545456
s(g3340
Ntp3344
F0.045454545454545456
s(NS'Temporal.2'
p3345
tp3346
F0.9545454545454546
ssS'doc_13.pair-01.perm.txt.pipe'
p3347
(dp3348
sS'doc_97.pair-01.txt.pipe'
p3349
(dp3350
sS'doc_24.pair-01.perm.txt.pipe'
p3351
(dp3352
(S'Expansion.1'
p3353
Ntp3354
F0.11578947368421053
s(NS'Explicit'
p3355
tp3356
F0.48333333333333334
s(S'Comparison.2'
p3357
Ntp3358
F0.09473684210526316
s(g3355
Ntp3359
F0.18333333333333332
s(NNtp3360
F0.3333333333333333
s(Ng3357
tp3361
F0.09473684210526316
s(S'Expansion.2'
p3362
Ntp3363
F0.08421052631578947
s(Ng3353
tp3364
F0.10526315789473684
s(Ng3362
tp3365
F0.28421052631578947
s(S'Comparison.1'
p3366
Ntp3367
F0.010526315789473684
ssS'doc_183.pair-00.txt.pipe'
p3368
(dp3369
sS'doc_170.pair-01.txt.pipe'
p3370
(dp3371
sS'doc_69.pair-00.perm.txt.pipe'
p3372
(dp3373
sS'doc_38.pair-01.txt.pipe'
p3374
(dp3375
sS'doc_148.pair-00.txt.pipe'
p3376
(dp3377
sS'doc_194.pair-01.txt.pipe'
p3378
(dp3379
sS'doc_88.pair-00.txt.pipe'
p3380
(dp3381
(NS'Comparison.2'
p3382
tp3383
F0.20833333333333334
s(NS'Comparison.1'
p3384
tp3385
F0.2916666666666667
s(S'Temporal.1'
p3386
S'Comparison.2'
p3387
tp3388
F0.041666666666666664
s(NS'Explicit'
p3389
tp3390
F0.5
s(S'Temporal.1'
p3391
Ntp3392
F0.2916666666666667
s(S'Temporal.2'
p3393
S'Comparison.2'
p3394
tp3395
F0.041666666666666664
s(S'Explicit'
p3396
g3389
tp3397
F0.08333333333333333
s(g3396
Ntp3398
F0.4166666666666667
s(S'Temporal.2'
p3399
Ntp3400
F0.125
ssS'doc_3.pair-01.txt.pipe'
p3401
(dp3402
sS'doc_66.pair-01.txt.pipe'
p3403
(dp3404
(NS'Explicit'
p3405
tp3406
F0.5384615384615384
s(S'Expansion.1'
p3407
Ntp3408
F0.46153846153846156
s(g3405
Ntp3409
F0.46153846153846156
s(NS'Expansion.2'
p3410
tp3411
F0.5384615384615384
ssS'doc_116.pair-01.perm.txt.pipe'
p3412
(dp3413
(NS'Explicit'
p3414
tp3415
F0.6842105263157895
s(S'Temporal.1'
p3416
Ntp3417
F0.3157894736842105
s(g3414
Ntp3418
F0.3157894736842105
s(NS'Temporal.2'
p3419
tp3420
F0.6842105263157895
ssS'doc_147.pair-01.txt.pipe'
p3421
(dp3422
sS'doc_100.pair-00.perm.txt.pipe'
p3423
(dp3424
sS'doc_24.pair-00.txt.pipe'
p3425
(dp3426
(S'Expansion.1'
p3427
S'Comparison.1'
p3428
tp3429
F0.030303030303030304
s(S'Expansion.1'
p3430
Ntp3431
F0.21212121212121213
s(NS'Explicit'
p3432
tp3433
F0.68
s(g3432
Ntp3434
F0.28
s(g3432
S'Explicit'
p3435
tp3436
F0.04
s(NS'Comparison.2'
p3437
tp3438
F0.21212121212121213
s(NS'Comparison.1'
p3439
tp3440
F0.06060606060606061
s(NS'Expansion.2'
p3441
tp3442
F0.48484848484848486
ssS'doc_157.pair-00.perm.txt.pipe'
p3443
(dp3444
sS'doc_8.pair-01.perm.txt.pipe'
p3445
(dp3446
sS'doc_176.pair-00.txt.pipe'
p3447
(dp3448
sS'doc_147.pair-00.perm.txt.pipe'
p3449
(dp3450
sS'doc_16.pair-01.txt.pipe'
p3451
(dp3452
sS'doc_125.pair-00.txt.pipe'
p3453
(dp3454
sS'doc_167.pair-00.txt.pipe'
p3455
(dp3456
(NS'Explicit'
p3457
tp3458
F0.9565217391304348
s(S'Expansion.1'
p3459
Ntp3460
F0.043478260869565216
s(g3457
Ntp3461
F0.043478260869565216
s(NS'Expansion.2'
p3462
tp3463
F0.9565217391304348
ssS'doc_154.pair-01.perm.txt.pipe'
p3464
(dp3465
sS'doc_118.pair-00.txt.pipe'
p3466
(dp3467
sS'doc_184.pair-01.perm.txt.pipe'
p3468
(dp3469
(NS'Explicit'
p3470
tp3471
F0.96
s(S'Expansion.1'
p3472
Ntp3473
F0.04
s(g3470
Ntp3474
F0.04
s(NS'Expansion.2'
p3475
tp3476
F0.96
ssS'doc_88.pair-01.perm.txt.pipe'
p3477
(dp3478
sS'doc_12.pair-01.txt.pipe'
p3479
(dp3480
(NS'Comparison.2'
p3481
tp3482
F0.21739130434782608
s(NS'Expansion.1'
p3483
tp3484
F0.06521739130434782
s(NS'Explicit'
p3485
tp3486
F0.4782608695652174
s(g3481
Ntp3487
F0.21739130434782608
s(g3485
Ntp3488
F0.2391304347826087
s(NS'Expansion.2'
p3489
tp3490
F0.1956521739130435
s(NNtp3491
F0.2826086956521739
s(S'Comparison.1'
p3492
Ntp3493
F0.021739130434782608
ssS'doc_49.pair-00.perm.txt.pipe'
p3494
(dp3495
sS'doc_123.pair-00.perm.txt.pipe'
p3496
(dp3497
sS'doc_130.pair-01.perm.txt.pipe'
p3498
(dp3499
sS'doc_43.pair-00.txt.pipe'
p3500
(dp3501
sS'doc_160.pair-01.txt.pipe'
p3502
(dp3503
(NS'Explicit'
p3504
tp3505
F0.5789473684210527
s(S'Expansion.1'
p3506
Ntp3507
F0.42105263157894735
s(g3504
Ntp3508
F0.42105263157894735
s(NS'Expansion.2'
p3509
tp3510
F0.5789473684210527
ssS'doc_54.pair-01.txt.pipe'
p3511
(dp3512
(NS'Explicit'
p3513
tp3514
F0.4074074074074074
s(S'Expansion.1'
p3515
Ntp3516
F0.5925925925925926
s(g3513
Ntp3517
F0.5925925925925926
s(NS'Expansion.2'
p3518
tp3519
F0.4074074074074074
ssS'doc_167.pair-01.txt.pipe'
p3520
(dp3521
(NS'Explicit'
p3522
tp3523
F0.9411764705882353
s(S'Expansion.1'
p3524
Ntp3525
F0.058823529411764705
s(g3522
Ntp3526
F0.058823529411764705
s(NS'Expansion.2'
p3527
tp3528
F0.9411764705882353
ssS'doc_1.pair-00.perm.txt.pipe'
p3529
(dp3530
sS'doc_128.pair-01.perm.txt.pipe'
p3531
(dp3532
sS'doc_152.pair-01.txt.pipe'
p3533
(dp3534
(NS'Explicit'
p3535
tp3536
F0.9166666666666666
s(NS'Comparison.2'
p3537
tp3538
F0.9166666666666666
s(g3535
Ntp3539
F0.08333333333333333
s(S'Comparison.1'
p3540
Ntp3541
F0.08333333333333333
ssS'doc_82.pair-01.txt.pipe'
p3542
(dp3543
sS'doc_63.pair-01.txt.pipe'
p3544
(dp3545
sS'doc_76.pair-00.perm.txt.pipe'
p3546
(dp3547
sS'doc_172.pair-00.perm.txt.pipe'
p3548
(dp3549
sS'doc_137.pair-00.txt.pipe'
p3550
(dp3551
sS'doc_31.pair-01.perm.txt.pipe'
p3552
(dp3553
sS'doc_162.pair-01.perm.txt.pipe'
p3554
(dp3555
sS'doc_12.pair-01.perm.txt.pipe'
p3556
(dp3557
(S'Expansion.1'
p3558
Ntp3559
F0.08571428571428572
s(NS'Explicit'
p3560
tp3561
F0.44
s(g3560
Ntp3562
F0.48
s(S'Explicit'
p3563
g3560
tp3564
F0.08
s(NS'Comparison.2'
p3565
tp3566
F0.3142857142857143
s(S'Expansion.2'
p3567
S'Comparison.2'
p3568
tp3569
F0.05714285714285714
s(S'Expansion.2'
p3570
Ntp3571
F0.2
s(S'Comparison.1'
p3572
Ntp3573
F0.34285714285714286
ssS'doc_169.pair-00.perm.txt.pipe'
p3574
(dp3575
sS'doc_129.pair-01.perm.txt.pipe'
p3576
(dp3577
sS'doc_191.pair-01.perm.txt.pipe'
p3578
(dp3579
sS'doc_55.pair-01.perm.txt.pipe'
p3580
(dp3581
sS'doc_175.pair-00.perm.txt.pipe'
p3582
(dp3583
sS'doc_156.pair-00.perm.txt.pipe'
p3584
(dp3585
sS'doc_182.pair-01.txt.pipe'
p3586
(dp3587
(NS'Explicit'
p3588
tp3589
F0.9
s(NS'Comparison.2'
p3590
tp3591
F0.9
s(g3588
Ntp3592
F0.1
s(S'Comparison.1'
p3593
Ntp3594
F0.1
ssS'doc_11.pair-01.txt.pipe'
p3595
(dp3596
sS'doc_11.pair-00.perm.txt.pipe'
p3597
(dp3598
sS'doc_79.pair-01.perm.txt.pipe'
p3599
(dp3600
sS'doc_182.pair-00.txt.pipe'
p3601
(dp3602
(S'Expansion.1'
p3603
Ntp3604
F0.4
s(S'Contingency.1'
p3605
Ntp3606
F0.05
s(NS'Explicit'
p3607
tp3608
F0.5
s(g3607
Ntp3609
F0.4444444444444444
s(S'Explicit'
p3610
g3607
tp3611
F0.05555555555555555
s(S'Contingency.2'
p3612
S'Expansion.2'
p3613
tp3614
F0.05
s(S'Contingency.2'
p3615
Ntp3616
F0.05
s(NS'Expansion.2'
p3617
tp3618
F0.45
ssS'doc_34.pair-00.perm.txt.pipe'
p3619
(dp3620
sS'doc_60.pair-00.perm.txt.pipe'
p3621
(dp3622
sS'doc_193.pair-01.txt.pipe'
p3623
(dp3624
sS'doc_161.pair-00.txt.pipe'
p3625
(dp3626
sS'doc_161.pair-01.perm.txt.pipe'
p3627
(dp3628
(S'Expansion.1'
p3629
Ntp3630
F0.018518518518518517
s(NS'Explicit'
p3631
tp3632
F0.9642857142857143
s(NS'Contingency.1'
p3633
tp3634
F0.2222222222222222
s(S'Explicit'
p3635
Ntp3636
F0.03571428571428571
s(NS'Expansion.2'
p3637
tp3638
F0.48148148148148145
s(NS'Contingency.2'
p3639
tp3640
F0.2777777777777778
ssS'doc_186.pair-00.txt.pipe'
p3641
(dp3642
sS'doc_124.pair-00.perm.txt.pipe'
p3643
(dp3644
sS'doc_5.pair-00.txt.pipe'
p3645
(dp3646
sS'doc_84.pair-01.perm.txt.pipe'
p3647
(dp3648
(NS'Explicit'
p3649
tp3650
F0.9375
s(NS'Comparison.2'
p3651
tp3652
F0.9375
s(g3649
Ntp3653
F0.0625
s(S'Comparison.1'
p3654
Ntp3655
F0.0625
ssS'doc_99.pair-00.txt.pipe'
p3656
(dp3657
(NS'Explicit'
p3658
tp3659
F0.9375
s(S'Expansion.1'
p3660
Ntp3661
F0.0625
s(g3658
Ntp3662
F0.0625
s(NS'Expansion.2'
p3663
tp3664
F0.9375
ssS'doc_25.pair-00.txt.pipe'
p3665
(dp3666
sS'doc_22.pair-00.perm.txt.pipe'
p3667
(dp3668
(S'Expansion.1'
p3669
Ntp3670
F0.15789473684210525
s(S'Contingency.2'
p3671
Ntp3672
F0.15789473684210525
s(S'Contingency.1'
p3673
Ntp3674
F0.013157894736842105
s(NS'Explicit'
p3675
tp3676
F0.4807692307692308
s(Ng3669
tp3677
F0.15789473684210525
s(g3675
Ntp3678
F0.25
s(NS'Expansion.2'
p3679
tp3680
F0.17105263157894737
s(NNtp3681
F0.2692307692307692
s(Ng3671
tp3682
F0.15789473684210525
ssS'doc_56.pair-00.txt.pipe'
p3683
(dp3684
sS'doc_56.pair-01.perm.txt.pipe'
p3685
(dp3686
sS'doc_96.pair-00.txt.pipe'
p3687
(dp3688
sS'doc_195.pair-01.txt.pipe'
p3689
(dp3690
sS'doc_39.pair-00.txt.pipe'
p3691
(dp3692
sS'doc_160.pair-01.perm.txt.pipe'
p3693
(dp3694
(NS'Explicit'
p3695
tp3696
F0.9166666666666666
s(S'Expansion.1'
p3697
Ntp3698
F0.08333333333333333
s(g3695
Ntp3699
F0.08333333333333333
s(NS'Expansion.2'
p3700
tp3701
F0.9166666666666666
ssS'doc_68.pair-00.perm.txt.pipe'
p3702
(dp3703
(NS'Explicit'
p3704
tp3705
F0.4772727272727273
s(S'Comparison.2'
p3706
Ntp3707
F0.09259259259259259
s(g3704
Ntp3708
F0.13636363636363635
s(NNtp3709
F0.38636363636363635
s(Ng3706
tp3710
F0.3888888888888889
s(NS'Comparison.1'
p3711
tp3712
F0.09259259259259259
s(g3711
Ntp3713
F0.1111111111111111
ssS'doc_57.pair-00.perm.txt.pipe'
p3714
(dp3715
(NS'Explicit'
p3716
tp3717
F0.75
s(NS'Comparison.2'
p3718
tp3719
F0.75
s(g3716
Ntp3720
F0.25
s(S'Comparison.1'
p3721
Ntp3722
F0.25
ssS'doc_98.pair-01.perm.txt.pipe'
p3723
(dp3724
sS'doc_46.pair-00.perm.txt.pipe'
p3725
(dp3726
(S'Expansion.1'
p3727
S'Comparison.1'
p3728
tp3729
F0.07692307692307693
s(S'Expansion.1'
p3730
Ntp3731
F0.1282051282051282
s(NS'Explicit'
p3732
tp3733
F0.6666666666666666
s(S'Explicit'
p3734
Ntp3735
F0.20833333333333334
s(g3734
g3732
tp3736
F0.125
s(NS'Comparison.2'
p3737
tp3738
F0.20512820512820512
s(NS'Comparison.1'
p3739
tp3740
F0.1794871794871795
s(NS'Expansion.2'
p3741
tp3742
F0.41025641025641024
ssS'doc_124.pair-01.perm.txt.pipe'
p3743
(dp3744
sS'doc_188.pair-01.perm.txt.pipe'
p3745
(dp3746
(S'Expansion.1'
p3747
Ntp3748
F0.15384615384615385
s(S'Expansion.2'
p3749
S'Expansion.2'
p3750
tp3751
F0.038461538461538464
s(S'Expansion.2'
p3752
Ntp3753
F0.14102564102564102
s(NS'Explicit'
p3754
tp3755
F0.48214285714285715
s(Ng3747
tp3756
F0.14102564102564102
s(S'Explicit'
p3757
Ntp3758
F0.21428571428571427
s(g3757
g3754
tp3759
F0.05357142857142857
s(NS'Expansion.2'
p3760
tp3761
F0.34615384615384615
s(NNtp3762
F0.25
ssS'doc_80.pair-00.txt.pipe'
p3763
(dp3764
sS'doc_52.pair-00.txt.pipe'
p3765
(dp3766
sS'doc_29.pair-01.perm.txt.pipe'
p3767
(dp3768
sS'doc_191.pair-01.txt.pipe'
p3769
(dp3770
sS'doc_183.pair-01.txt.pipe'
p3771
(dp3772
(NS'Temporal.1'
p3773
tp3774
F0.019230769230769232
s(NS'Temporal.2'
p3775
tp3776
F0.09615384615384616
s(NS'Comparison.1'
p3777
tp3778
F0.038461538461538464
s(NS'Comparison.2'
p3779
tp3780
F0.38461538461538464
s(NS'Explicit'
p3781
tp3782
F0.4782608695652174
s(g3779
Ntp3783
F0.25
s(g3781
Ntp3784
F0.30434782608695654
s(NNtp3785
F0.21739130434782608
s(S'Comparison.1'
p3786
Ntp3787
F0.019230769230769232
ssS'doc_25.pair-01.perm.txt.pipe'
p3788
(dp3789
(NS'Explicit'
p3790
tp3791
F0.4375
s(NS'Comparison.2'
p3792
tp3793
F0.4375
s(g3790
Ntp3794
F0.5625
s(S'Comparison.1'
p3795
Ntp3796
F0.5625
ssS'doc_40.pair-00.txt.pipe'
p3797
(dp3798
sS'doc_67.pair-01.txt.pipe'
p3799
(dp3800
sS'doc_16.pair-00.perm.txt.pipe'
p3801
(dp3802
sS'doc_158.pair-00.perm.txt.pipe'
p3803
(dp3804
(NS'Explicit'
p3805
tp3806
F0.39285714285714285
s(S'Expansion.1'
p3807
Ntp3808
F0.6071428571428571
s(g3805
Ntp3809
F0.6071428571428571
s(NS'Expansion.2'
p3810
tp3811
F0.39285714285714285
ssS'doc_78.pair-00.txt.pipe'
p3812
(dp3813
sS'doc_17.pair-01.perm.txt.pipe'
p3814
(dp3815
sS'doc_144.pair-01.perm.txt.pipe'
p3816
(dp3817
sS'doc_78.pair-01.perm.txt.pipe'
p3818
(dp3819
sS'doc_184.pair-00.txt.pipe'
p3820
(dp3821
sS'doc_196.pair-01.perm.txt.pipe'
p3822
(dp3823
sS'doc_52.pair-01.txt.pipe'
p3824
(dp3825
sS'doc_142.pair-01.txt.pipe'
p3826
(dp3827
sS'doc_130.pair-00.perm.txt.pipe'
p3828
(dp3829
(S'Expansion.1'
p3830
Ntp3831
F0.1836734693877551
s(NS'Explicit'
p3832
tp3833
F0.32432432432432434
s(S'Explicit'
p3834
Ntp3835
F0.32432432432432434
s(g3834
g3832
tp3836
F0.35135135135135137
s(NS'Comparison.2'
p3837
tp3838
F0.24489795918367346
s(S'Expansion.2'
p3839
S'Comparison.2'
p3840
tp3841
F0.2653061224489796
s(S'Expansion.2'
p3842
Ntp3843
F0.061224489795918366
s(S'Comparison.1'
p3844
Ntp3845
F0.24489795918367346
ssS'doc_178.pair-00.txt.pipe'
p3846
(dp3847
sS'doc_150.pair-01.perm.txt.pipe'
p3848
(dp3849
sS'doc_27.pair-00.perm.txt.pipe'
p3850
(dp3851
(S'Expansion.1'
p3852
Ntp3853
F0.3023255813953488
s(S'Expansion.2'
p3854
S'Expansion.2'
p3855
tp3856
F0.046511627906976744
s(S'Expansion.2'
p3857
Ntp3858
F0.11627906976744186
s(NS'Explicit'
p3859
tp3860
F0.6052631578947368
s(g3859
Ntp3861
F0.34210526315789475
s(S'Explicit'
p3862
g3859
tp3863
F0.05263157894736842
s(NS'Expansion.2'
p3864
tp3865
F0.5348837209302325
ssS'doc_128.pair-00.txt.pipe'
p3866
(dp3867
sS'doc_149.pair-01.txt.pipe'
p3868
(dp3869
(NS'Explicit'
p3870
tp3871
F0.8275862068965517
s(S'Expansion.1'
p3872
Ntp3873
F0.1724137931034483
s(g3870
Ntp3874
F0.1724137931034483
s(NS'Expansion.2'
p3875
tp3876
F0.8275862068965517
ssS'doc_163.pair-00.txt.pipe'
p3877
(dp3878
sS'doc_68.pair-01.perm.txt.pipe'
p3879
(dp3880
(S'Comparison.2'
p3881
S'Contingency.2'
p3882
tp3883
F0.028169014084507043
s(NS'Explicit'
p3884
tp3885
F0.4838709677419355
s(S'Comparison.2'
p3886
Ntp3887
F0.23943661971830985
s(g3884
Ntp3888
F0.2903225806451613
s(g3884
S'Explicit'
p3889
tp3890
F0.03225806451612903
s(NNtp3891
F0.1935483870967742
s(Ng3886
tp3892
F0.2676056338028169
s(NS'Contingency.1'
p3893
tp3894
F0.11267605633802817
s(NS'Contingency.2'
p3895
tp3896
F0.14084507042253522
s(g3881
S'Contingency.1'
p3897
tp3898
F0.028169014084507043
s(S'Comparison.1'
p3899
Ntp3900
F0.014084507042253521
ssS'doc_103.pair-01.perm.txt.pipe'
p3901
(dp3902
sS'doc_104.pair-00.txt.pipe'
p3903
(dp3904
(NS'Explicit'
p3905
tp3906
F0.42857142857142855
s(S'Expansion.1'
p3907
Ntp3908
F0.5714285714285714
s(g3905
Ntp3909
F0.5714285714285714
s(NS'Expansion.2'
p3910
tp3911
F0.42857142857142855
ssS'doc_37.pair-00.perm.txt.pipe'
p3912
(dp3913
sS'doc_39.pair-01.perm.txt.pipe'
p3914
(dp3915
(NS'Explicit'
p3916
tp3917
F0.2727272727272727
s(S'Expansion.1'
p3918
Ntp3919
F0.7272727272727273
s(g3916
Ntp3920
F0.7272727272727273
s(NS'Expansion.2'
p3921
tp3922
F0.2727272727272727
ssS'doc_178.pair-01.perm.txt.pipe'
p3923
(dp3924
sS'doc_74.pair-01.perm.txt.pipe'
p3925
(dp3926
sS'doc_147.pair-01.perm.txt.pipe'
p3927
(dp3928
sS'doc_4.pair-01.txt.pipe'
p3929
(dp3930
(S'Temporal.1'
p3931
Ntp3932
F0.0423728813559322
s(NS'Temporal.2'
p3933
tp3934
F0.2288135593220339
s(NS'Explicit'
p3935
tp3936
F0.8484848484848485
s(NS'Contingency.2'
p3937
tp3938
F0.15254237288135594
s(g3935
Ntp3939
F0.15151515151515152
s(NS'Comparison.2'
p3940
tp3941
F0.23728813559322035
s(NS'Contingency.1'
p3942
tp3943
F0.15254237288135594
s(NS'Expansion.1'
p3944
tp3945
F0.05084745762711865
s(NS'Expansion.2'
p3946
tp3947
F0.09322033898305085
s(S'Comparison.1'
p3948
Ntp3949
F0.0423728813559322
ssS'doc_83.pair-01.perm.txt.pipe'
p3950
(dp3951
sS'doc_111.pair-00.perm.txt.pipe'
p3952
(dp3953
(S'Comparison.2'
p3954
S'Contingency.2'
p3955
tp3956
F0.024390243902439025
s(S'Contingency.1'
p3957
Ntp3958
F0.3170731707317073
s(S'Implicit'
p3959
Ntp3960
F0.3170731707317073
s(S'Comparison.2'
p3961
Ntp3962
F0.17073170731707318
s(S'Explicit'
p3963
Ntp3964
F0.3170731707317073
s(g3963
g3959
tp3965
F0.024390243902439025
s(Ng3959
tp3966
F0.34146341463414637
s(NS'Contingency.2'
p3967
tp3968
F0.34146341463414637
s(S'Comparison.1'
p3969
Ntp3970
F0.14634146341463414
ssS'doc_15.pair-00.txt.pipe'
p3971
(dp3972
sS'doc_156.pair-00.txt.pipe'
p3973
(dp3974
sS'doc_66.pair-00.txt.pipe'
p3975
(dp3976
sS'doc_154.pair-00.txt.pipe'
p3977
(dp3978
sS'doc_153.pair-00.txt.pipe'
p3979
(dp3980
sS'doc_143.pair-01.txt.pipe'
p3981
(dp3982
sS'doc_120.pair-01.txt.pipe'
p3983
(dp3984
sS'doc_42.pair-00.txt.pipe'
p3985
(dp3986
(S'Expansion.1'
p3987
Ntp3988
F0.3888888888888889
s(S'Contingency.1'
p3989
Ntp3990
F0.16666666666666666
s(NS'Explicit'
p3991
tp3992
F0.34782608695652173
s(S'Explicit'
p3993
Ntp3994
F0.6086956521739131
s(g3993
g3991
tp3995
F0.043478260869565216
s(S'Contingency.2'
p3996
S'Expansion.2'
p3997
tp3998
F0.027777777777777776
s(S'Contingency.2'
p3999
Ntp4000
F0.19444444444444445
s(NS'Expansion.2'
p4001
tp4002
F0.2222222222222222
ssS'doc_87.pair-01.perm.txt.pipe'
p4003
(dp4004
sS'doc_45.pair-01.txt.pipe'
p4005
(dp4006
(S'Comparison.2'
p4007
S'Expansion.2'
p4008
tp4009
F0.06666666666666667
s(NS'Explicit'
p4010
tp4011
F0.6666666666666666
s(S'Comparison.2'
p4012
Ntp4013
F0.2
s(S'Explicit'
p4014
Ntp4015
F0.26666666666666666
s(g4014
g4010
tp4016
F0.06666666666666667
s(NS'Expansion.1'
p4017
tp4018
F0.4
s(NS'Expansion.2'
p4019
tp4020
F0.26666666666666666
s(S'Comparison.1'
p4021
Ntp4022
F0.06666666666666667
ssS'doc_151.pair-01.perm.txt.pipe'
p4023
(dp4024
sS'doc_32.pair-01.perm.txt.pipe'
p4025
(dp4026
sS'doc_9.pair-00.perm.txt.pipe'
p4027
(dp4028
(NS'Explicit'
p4029
tp4030
F0.3157894736842105
s(NS'Comparison.2'
p4031
tp4032
F0.3157894736842105
s(g4029
Ntp4033
F0.6842105263157895
s(S'Comparison.1'
p4034
Ntp4035
F0.6842105263157895
ssS'doc_21.pair-00.perm.txt.pipe'
p4036
(dp4037
sS'doc_146.pair-01.perm.txt.pipe'
p4038
(dp4039
(NS'Explicit'
p4040
tp4041
F0.6363636363636364
s(S'Expansion.1'
p4042
Ntp4043
F0.36363636363636365
s(g4040
Ntp4044
F0.36363636363636365
s(NS'Expansion.2'
p4045
tp4046
F0.6363636363636364
ssS'doc_6.pair-00.perm.txt.pipe'
p4047
(dp4048
sS'doc_26.pair-01.perm.txt.pipe'
p4049
(dp4050
sS'doc_26.pair-00.txt.pipe'
p4051
(dp4052
sS'doc_106.pair-01.txt.pipe'
p4053
(dp4054
sS'doc_19.pair-00.txt.pipe'
p4055
(dp4056
sS'doc_42.pair-01.txt.pipe'
p4057
(dp4058
(S'Expansion.1'
p4059
Ntp4060
F0.15384615384615385
s(NS'Temporal.2'
p4061
tp4062
F0.3076923076923077
s(NS'Temporal.1'
p4063
tp4064
F0.07692307692307693
s(NS'Explicit'
p4065
tp4066
F0.38461538461538464
s(S'Explicit'
p4067
Ntp4068
F0.5384615384615384
s(g4067
g4065
tp4069
F0.07692307692307693
s(S'Expansion.1'
p4070
S'Temporal.1'
p4071
tp4072
F0.07692307692307693
s(S'Expansion.2'
p4073
Ntp4074
F0.38461538461538464
ssS'doc_173.pair-00.txt.pipe'
p4075
(dp4076
sS'doc_62.pair-00.perm.txt.pipe'
p4077
(dp4078
(NS'Explicit'
p4079
tp4080
F0.5925925925925926
s(S'Expansion.1'
p4081
Ntp4082
F0.4074074074074074
s(g4079
Ntp4083
F0.4074074074074074
s(NS'Expansion.2'
p4084
tp4085
F0.5925925925925926
ssS'doc_101.pair-01.perm.txt.pipe'
p4086
(dp4087
sS'doc_158.pair-01.txt.pipe'
p4088
(dp4089
sS'doc_81.pair-00.txt.pipe'
p4090
(dp4091
(NS'Explicit'
p4092
tp4093
F0.8
s(S'Expansion.1'
p4094
Ntp4095
F0.2
s(g4092
Ntp4096
F0.2
s(NS'Expansion.2'
p4097
tp4098
F0.8
ssS'doc_11.pair-00.txt.pipe'
p4099
(dp4100
sS'doc_148.pair-00.perm.txt.pipe'
p4101
(dp4102
s.