(dp0
S'doc_65.pair-00.perm.txt.pipe'
p1
(dp2
sS'doc_58.pair-01.txt.pipe'
p3
(dp4
sS'doc_197.pair-01.txt.pipe'
p5
(dp6
sS'doc_125.pair-00.perm.txt.pipe'
p7
(dp8
sS'doc_47.pair-00.perm.txt.pipe'
p9
(dp10
sS'doc_63.pair-00.txt.pipe'
p11
(dp12
(NS'Temporal.Synchrony.1'
p13
tp14
F0.13333333333333333
s(S'Expansion.Conjunction.1'
p15
Ntp16
F0.03333333333333333
s(NS'Explicit'
p17
tp18
F0.95
s(g17
Ntp19
F0.05
s(NS'Temporal.Synchrony.2'
p20
tp21
F0.2
s(NS'Expansion.Conjunction.2'
p22
tp23
F0.6333333333333333
ssS'doc_102.pair-01.perm.txt.pipe'
p24
(dp25
(NS'Explicit'
p26
tp27
F0.9523809523809523
s(g26
Ntp28
F0.047619047619047616
s(NS'Expansion.Conjunction.2'
p29
tp30
F0.9523809523809523
s(S'Expansion.Conjunction.1'
p31
Ntp32
F0.047619047619047616
ssS'doc_36.pair-00.txt.pipe'
p33
(dp34
(NS'Explicit'
p35
tp36
F0.6666666666666666
s(S'Comparison.Contrast.1'
p37
Ntp38
F0.3333333333333333
s(g35
Ntp39
F0.3333333333333333
s(NS'Comparison.Contrast.2'
p40
tp41
F0.6666666666666666
ssS'doc_32.pair-00.txt.pipe'
p42
(dp43
sS'doc_99.pair-01.perm.txt.pipe'
p44
(dp45
sS'doc_85.pair-00.perm.txt.pipe'
p46
(dp47
(NS'Explicit'
p48
tp49
F0.5806451612903226
s(g48
Ntp50
F0.41935483870967744
s(NS'Expansion.Conjunction.2'
p51
tp52
F0.5806451612903226
s(S'Expansion.Conjunction.1'
p53
Ntp54
F0.41935483870967744
ssS'doc_139.pair-00.perm.txt.pipe'
p55
(dp56
sS'doc_136.pair-01.perm.txt.pipe'
p57
(dp58
sS'doc_2.pair-01.txt.pipe'
p59
(dp60
sS'doc_133.pair-01.perm.txt.pipe'
p61
(dp62
sS'doc_44.pair-00.txt.pipe'
p63
(dp64
sS'doc_152.pair-01.perm.txt.pipe'
p65
(dp66
(NS'Explicit'
p67
tp68
F0.375
s(S'Comparison.Contrast.1'
p69
Ntp70
F0.625
s(g67
Ntp71
F0.625
s(NS'Comparison.Contrast.2'
p72
tp73
F0.375
ssS'doc_179.pair-01.perm.txt.pipe'
p74
(dp75
sS'doc_198.pair-01.perm.txt.pipe'
p76
(dp77
sS'doc_113.pair-01.txt.pipe'
p78
(dp79
sS'doc_88.pair-00.perm.txt.pipe'
p80
(dp81
(S'Comparison.Contrast.2'
p82
S'Temporal.Synchrony.1'
p83
tp84
F0.041666666666666664
s(NS'Temporal.Synchrony.1'
p85
tp86
F0.2916666666666667
s(S'Explicit'
p87
S'Explicit'
p88
tp89
F0.08333333333333333
s(S'Comparison.Contrast.2'
p90
S'Temporal.Synchrony.2'
p91
tp92
F0.041666666666666664
s(S'Comparison.Contrast.2'
p93
Ntp94
F0.20833333333333334
s(S'Comparison.Contrast.1'
p95
Ntp96
F0.2916666666666667
s(Ng88
tp97
F0.4166666666666667
s(g87
Ntp98
F0.5
s(NS'Temporal.Synchrony.2'
p99
tp100
F0.125
ssS'doc_21.pair-01.txt.pipe'
p101
(dp102
(NS'Explicit'
p103
tp104
F0.8235294117647058
s(g103
Ntp105
F0.17647058823529413
s(NS'Expansion.Conjunction.2'
p106
tp107
F0.8235294117647058
s(S'Expansion.Conjunction.1'
p108
Ntp109
F0.17647058823529413
ssS'doc_117.pair-01.perm.txt.pipe'
p110
(dp111
(S'Temporal.Synchrony.2'
p112
Ntp113
F0.2553191489361702
s(NS'Explicit'
p114
tp115
F0.27586206896551724
s(S'Explicit'
p116
Ntp117
F0.6206896551724138
s(g116
g114
tp118
F0.10344827586206896
s(NS'Comparison.Contrast.2'
p119
tp120
F0.1702127659574468
s(S'Comparison.Contrast.1'
p121
Ntp122
F0.3829787234042553
s(S'Temporal.Synchrony.2'
p123
S'Comparison.Contrast.2'
p124
tp125
F0.06382978723404255
s(S'Temporal.Synchrony.1'
p126
Ntp127
F0.1276595744680851
ssS'doc_80.pair-01.txt.pipe'
p128
(dp129
sS'doc_185.pair-00.perm.txt.pipe'
p130
(dp131
sS'doc_56.pair-00.perm.txt.pipe'
p132
(dp133
sS'doc_27.pair-01.perm.txt.pipe'
p134
(dp135
(NS'Explicit'
p136
tp137
F0.48148148148148145
s(g136
Ntp138
F0.5185185185185185
s(NS'Expansion.Conjunction.2'
p139
tp140
F0.48148148148148145
s(S'Expansion.Conjunction.1'
p141
Ntp142
F0.5185185185185185
ssS'doc_150.pair-00.perm.txt.pipe'
p143
(dp144
sS'doc_136.pair-01.txt.pipe'
p145
(dp146
sS'doc_73.pair-00.txt.pipe'
p147
(dp148
sS'doc_14.pair-01.perm.txt.pipe'
p149
(dp150
(NS'Explicit'
p151
tp152
F0.4166666666666667
s(NS'Expansion.Instantiation.2'
p153
tp154
F0.4166666666666667
s(g151
Ntp155
F0.5833333333333334
s(S'Expansion.Instantiation.1'
p156
Ntp157
F0.5833333333333334
ssS'doc_31.pair-00.txt.pipe'
p158
(dp159
sS'doc_190.pair-00.txt.pipe'
p160
(dp161
sS'doc_127.pair-00.perm.txt.pipe'
p162
(dp163
sS'doc_169.pair-01.perm.txt.pipe'
p164
(dp165
sS'doc_12.pair-00.perm.txt.pipe'
p166
(dp167
sS'doc_20.pair-00.txt.pipe'
p168
(dp169
(S'Expansion.Alternative.2'
p170
Ntp171
F0.125
s(NS'Contingency.Cause.2'
p172
tp173
F0.28125
s(NS'Explicit'
p174
tp175
F0.46875
s(S'Explicit'
p176
Ntp177
F0.15625
s(g176
g174
tp178
F0.03125
s(NNtp179
F0.34375
s(S'Expansion.Alternative.2'
p180
S'Contingency.Cause.2'
p181
tp182
F0.03125
s(S'Expansion.Alternative.1'
p183
Ntp184
F0.03125
s(Ng170
tp185
F0.15625
s(NS'Contingency.Cause.1'
p186
tp187
F0.03125
ssS'doc_63.pair-00.perm.txt.pipe'
p188
(dp189
(NS'Temporal.Synchrony.1'
p190
tp191
F0.10526315789473684
s(S'Expansion.Conjunction.1'
p192
Ntp193
F0.2631578947368421
s(NS'Explicit'
p194
tp195
F0.6428571428571429
s(g194
Ntp196
F0.35714285714285715
s(NS'Temporal.Synchrony.2'
p197
tp198
F0.15789473684210525
s(NS'Expansion.Conjunction.2'
p199
tp200
F0.47368421052631576
ssS'doc_145.pair-00.perm.txt.pipe'
p201
(dp202
sS'doc_71.pair-00.txt.pipe'
p203
(dp204
(S'Expansion.Conjunction.2'
p205
Ntp206
F0.13513513513513514
s(S'Explicit'
p207
S'Explicit'
p208
tp209
F0.125
s(S'Expansion.Conjunction.2'
p210
S'Expansion.Conjunction.2'
p211
tp212
F0.10810810810810811
s(Ng208
tp213
F0.25
s(g207
Ntp214
F0.625
s(S'Expansion.Conjunction.1'
p215
Ntp216
F0.5405405405405406
s(NS'Expansion.Conjunction.2'
p217
tp218
F0.21621621621621623
ssS'doc_3.pair-01.perm.txt.pipe'
p219
(dp220
sS'doc_69.pair-01.perm.txt.pipe'
p221
(dp222
sS'doc_53.pair-01.perm.txt.pipe'
p223
(dp224
(S'Comparison.Contrast.1'
p225
Ntp226
F0.22580645161290322
s(S'Explicit'
p227
S'Explicit'
p228
tp229
F0.06451612903225806
s(NS'Temporal.Asynchronous.2'
p230
tp231
F0.2903225806451613
s(S'Comparison.Contrast.2'
p232
Ntp233
F0.3548387096774194
s(S'Comparison.Contrast.2'
p234
S'Temporal.Asynchronous.1'
p235
tp236
F0.03225806451612903
s(NS'Temporal.Asynchronous.1'
p237
tp238
F0.06451612903225806
s(g227
Ntp239
F0.5806451612903226
s(Ng228
tp240
F0.3548387096774194
s(S'Comparison.Contrast.2'
p241
S'Temporal.Asynchronous.2'
p242
tp243
F0.03225806451612903
ssS'doc_122.pair-00.perm.txt.pipe'
p244
(dp245
(NS'Explicit'
p246
tp247
F0.8636363636363636
s(S'Comparison.Contrast.1'
p248
Ntp249
F0.13636363636363635
s(g246
Ntp250
F0.13636363636363635
s(NS'Comparison.Contrast.2'
p251
tp252
F0.8636363636363636
ssS'doc_16.pair-01.perm.txt.pipe'
p253
(dp254
sS'doc_5.pair-01.txt.pipe'
p255
(dp256
(NS'Explicit'
p257
tp258
F0.8571428571428571
s(S'Comparison.Contrast.1'
p259
Ntp260
F0.14285714285714285
s(g257
Ntp261
F0.14285714285714285
s(NS'Comparison.Contrast.2'
p262
tp263
F0.8571428571428571
ssS'doc_2.pair-00.txt.pipe'
p264
(dp265
sS'doc_124.pair-00.txt.pipe'
p266
(dp267
sS'doc_31.pair-00.perm.txt.pipe'
p268
(dp269
sS'doc_197.pair-00.perm.txt.pipe'
p270
(dp271
sS'doc_133.pair-00.perm.txt.pipe'
p272
(dp273
sS'doc_200.pair-01.perm.txt.pipe'
p274
(dp275
(S'Expansion.Conjunction.2'
p276
Ntp277
F0.25925925925925924
s(S'Explicit'
p278
S'Explicit'
p279
tp280
F0.018518518518518517
s(S'Expansion.Conjunction.2'
p281
S'Expansion.Conjunction.1'
p282
tp283
F0.018518518518518517
s(S'Expansion.Conjunction.1'
p284
Ntp285
F0.018518518518518517
s(Ng279
tp286
F0.48148148148148145
s(g278
Ntp287
F0.2777777777777778
s(NS'Expansion.Conjunction.1'
p288
tp289
F0.09259259259259259
s(NNtp290
F0.2222222222222222
s(NS'Expansion.Conjunction.2'
p291
tp292
F0.3888888888888889
ssS'doc_8.pair-01.txt.pipe'
p293
(dp294
sS'doc_110.pair-01.txt.pipe'
p295
(dp296
(S'Expansion.Conjunction.1'
p297
Ntp298
F0.25
s(NS'Explicit'
p299
tp300
F0.55
s(S'Explicit'
p301
Ntp302
F0.35
s(g301
g299
tp303
F0.1
s(S'Expansion.Conjunction.1'
p304
S'Temporal.Synchrony.1'
p305
tp306
F0.07142857142857142
s(NS'Expansion.Conjunction.2'
p307
tp308
F0.35714285714285715
s(NS'Temporal.Synchrony.1'
p309
tp310
F0.14285714285714285
s(NS'Temporal.Synchrony.2'
p311
tp312
F0.17857142857142858
ssS'doc_65.pair-01.txt.pipe'
p313
(dp314
sS'doc_98.pair-00.txt.pipe'
p315
(dp316
sS'doc_79.pair-00.txt.pipe'
p317
(dp318
(S'Expansion.Conjunction.2'
p319
Ntp320
F0.10256410256410256
s(S'Explicit'
p321
S'Explicit'
p322
tp323
F0.04838709677419355
s(S'Expansion.Conjunction.1'
p324
Ntp325
F0.11538461538461539
s(Ng322
tp326
F0.4838709677419355
s(S'Expansion.Conjunction.2'
p327
S'Expansion.Conjunction.2'
p328
tp329
F0.038461538461538464
s(g322
Ntp330
F0.14516129032258066
s(Ng324
tp331
F0.10256410256410256
s(NNtp332
F0.3225806451612903
s(NS'Expansion.Conjunction.2'
p333
tp334
F0.38461538461538464
ssS'doc_153.pair-01.txt.pipe'
p335
(dp336
(S'Expansion.Conjunction.1'
p337
Ntp338
F0.020833333333333332
s(NS'Explicit'
p339
tp340
F0.4791666666666667
s(g339
Ntp341
F0.20833333333333334
s(g339
S'Explicit'
p342
tp343
F0.041666666666666664
s(NNtp344
F0.2708333333333333
s(NS'Expansion.Conjunction.2'
p345
tp346
F0.22916666666666666
s(g345
Ntp347
F0.1875
s(S'Expansion.Conjunction.2'
p348
S'Contingency.Condition.2'
p349
tp350
F0.020833333333333332
s(NS'Contingency.Condition.2'
p351
tp352
F0.16666666666666666
s(NS'Contingency.Condition.1'
p353
tp354
F0.08333333333333333
s(S'Expansion.Conjunction.2'
p355
S'Contingency.Condition.1'
p356
tp357
F0.020833333333333332
ssS'doc_160.pair-00.txt.pipe'
p358
(dp359
sS'doc_75.pair-01.perm.txt.pipe'
p360
(dp361
(S'Comparison.Contrast.1'
p362
Ntp363
F0.05
s(NS'Expansion.Conjunction.1'
p364
tp365
F0.15
s(NS'Explicit'
p366
tp367
F0.9090909090909091
s(g366
Ntp368
F0.09090909090909091
s(NS'Comparison.Contrast.2'
p369
tp370
F0.5
s(NS'Expansion.Conjunction.2'
p371
tp372
F0.3
ssS'doc_134.pair-01.perm.txt.pipe'
p373
(dp374
sS'doc_153.pair-01.perm.txt.pipe'
p375
(dp376
(S'Contingency.Condition.2'
p377
Ntp378
F0.2
s(S'Contingency.Condition.2'
p379
S'Expansion.Conjunction.2'
p380
tp381
F0.05714285714285714
s(S'Expansion.Conjunction.1'
p382
Ntp383
F0.34285714285714286
s(NS'Explicit'
p384
tp385
F0.391304347826087
s(S'Explicit'
p386
Ntp387
F0.5217391304347826
s(g386
g384
tp388
F0.08695652173913043
s(NS'Expansion.Conjunction.2'
p389
tp390
F0.2571428571428571
s(S'Contingency.Condition.1'
p391
Ntp392
F0.14285714285714285
ssS'doc_173.pair-00.perm.txt.pipe'
p393
(dp394
sS'doc_46.pair-00.txt.pipe'
p395
(dp396
(S'Expansion.Conjunction.1'
p397
Ntp398
F0.02702702702702703
s(NS'Explicit'
p399
tp400
F0.9473684210526315
s(NS'Comparison.Contrast.1'
p401
tp402
F0.2702702702702703
s(g399
Ntp403
F0.05263157894736842
s(NS'Comparison.Contrast.2'
p404
tp405
F0.21621621621621623
s(NS'Expansion.Conjunction.2'
p406
tp407
F0.4864864864864865
ssS'doc_179.pair-00.perm.txt.pipe'
p408
(dp409
sS'doc_91.pair-00.txt.pipe'
p410
(dp411
sS'doc_79.pair-01.txt.pipe'
p412
(dp413
sS'doc_30.pair-00.perm.txt.pipe'
p414
(dp415
sS'doc_79.pair-00.perm.txt.pipe'
p416
(dp417
(S'Expansion.Conjunction.2'
p418
Ntp419
F0.17708333333333334
s(S'Explicit'
p420
S'Explicit'
p421
tp422
F0.04838709677419355
s(S'Expansion.Conjunction.1'
p423
Ntp424
F0.19791666666666666
s(Ng421
tp425
F0.4838709677419355
s(S'Expansion.Conjunction.2'
p426
S'Expansion.Conjunction.2'
p427
tp428
F0.03125
s(g421
Ntp429
F0.3064516129032258
s(Ng423
tp430
F0.1875
s(NNtp431
F0.16129032258064516
s(Ng418
tp432
F0.3020833333333333
ssS'doc_1.pair-00.txt.pipe'
p433
(dp434
sS'doc_132.pair-00.txt.pipe'
p435
(dp436
sS'doc_136.pair-00.perm.txt.pipe'
p437
(dp438
sS'doc_94.pair-00.txt.pipe'
p439
(dp440
sS'doc_35.pair-00.perm.txt.pipe'
p441
(dp442
(NS'Explicit'
p443
tp444
F0.5
s(S'Comparison.Contrast.1'
p445
Ntp446
F0.5
s(g443
Ntp447
F0.5
s(NS'Comparison.Contrast.2'
p448
tp449
F0.5
ssS'doc_115.pair-01.perm.txt.pipe'
p450
(dp451
sS'doc_171.pair-01.txt.pipe'
p452
(dp453
sS'doc_48.pair-01.txt.pipe'
p454
(dp455
sS'doc_167.pair-01.perm.txt.pipe'
p456
(dp457
(NS'Explicit'
p458
tp459
F0.6296296296296297
s(NS'Expansion.Instantiation.2'
p460
tp461
F0.6296296296296297
s(g458
Ntp462
F0.37037037037037035
s(S'Expansion.Instantiation.1'
p463
Ntp464
F0.37037037037037035
ssS'doc_78.pair-00.perm.txt.pipe'
p465
(dp466
sS'doc_170.pair-00.txt.pipe'
p467
(dp468
(S'Contingency.Condition.2'
p469
Ntp470
F0.2727272727272727
s(S'Contingency.Condition.1'
p471
S'Comparison.Contrast.1'
p472
tp473
F0.030303030303030304
s(NS'Explicit'
p474
tp475
F0.24242424242424243
s(NS'Comparison.Contrast.1'
p476
tp477
F0.15151515151515152
s(S'Contingency.Condition.1'
p478
Ntp479
F0.3939393939393939
s(S'Explicit'
p480
g474
tp481
F0.09090909090909091
s(NS'Comparison.Contrast.2'
p482
tp483
F0.09090909090909091
s(g480
Ntp484
F0.6666666666666666
s(S'Contingency.Condition.1'
p485
S'Comparison.Contrast.2'
p486
tp487
F0.06060606060606061
ssS'doc_37.pair-01.perm.txt.pipe'
p488
(dp489
(S'Contingency.Cause.1'
p490
Ntp491
F0.21052631578947367
s(S'Contingency.Cause.2'
p492
Ntp493
F0.15789473684210525
s(NS'Explicit'
p494
tp495
F0.631578947368421
s(S'Explicit'
p496
Ntp497
F0.3684210526315789
s(NS'Expansion.Conjunction.1'
p498
tp499
F0.47368421052631576
s(NS'Expansion.Conjunction.2'
p500
tp501
F0.15789473684210525
ssS'doc_28.pair-01.txt.pipe'
p502
(dp503
(S'Contingency.Cause.1'
p504
Ntp505
F0.07936507936507936
s(S'Expansion.Conjunction.1'
p506
S'Contingency.Cause.1'
p507
tp508
F0.015873015873015872
s(S'Explicit'
p509
S'Explicit'
p510
tp511
F0.07692307692307693
s(S'Expansion.Conjunction.1'
p512
Ntp513
F0.2698412698412698
s(Ng510
tp514
F0.48717948717948717
s(g510
Ntp515
F0.4358974358974359
s(NS'Contingency.Cause.2'
p516
tp517
F0.09523809523809523
s(S'Expansion.Conjunction.1'
p518
S'Contingency.Cause.2'
p519
tp520
F0.015873015873015872
s(NS'Expansion.Conjunction.2'
p521
tp522
F0.30158730158730157
s(S'Contingency.Cause.2'
p523
S'Expansion.Conjunction.2'
p524
tp525
F0.015873015873015872
s(S'Contingency.Cause.2'
p526
Ntp527
F0.1111111111111111
s(g523
S'Contingency.Cause.2'
p528
tp529
F0.031746031746031744
s(NS'Contingency.Cause.1'
p530
tp531
F0.06349206349206349
ssS'doc_53.pair-00.txt.pipe'
p532
(dp533
sS'doc_111.pair-01.perm.txt.pipe'
p534
(dp535
sS'doc_107.pair-00.perm.txt.pipe'
p536
(dp537
sS'doc_114.pair-00.perm.txt.pipe'
p538
(dp539
(S'Expansion.Conjunction.1'
p540
Ntp541
F0.3235294117647059
s(NS'Explicit'
p542
tp543
F0.5333333333333333
s(S'Temporal.Asynchronous.1'
p544
Ntp545
F0.029411764705882353
s(S'Explicit'
p546
g542
tp547
F0.1
s(NS'Expansion.Conjunction.2'
p548
tp549
F0.47058823529411764
s(S'Temporal.Asynchronous.2'
p550
Ntp551
F0.08823529411764706
s(S'Temporal.Asynchronous.2'
p552
S'Expansion.Conjunction.2'
p553
tp554
F0.08823529411764706
s(g542
Ntp555
F0.36666666666666664
ssS'doc_53.pair-00.perm.txt.pipe'
p556
(dp557
sS'doc_41.pair-01.perm.txt.pipe'
p558
(dp559
(NS'Explicit'
p560
tp561
F0.8571428571428571
s(S'Comparison.Contrast.1'
p562
Ntp563
F0.14285714285714285
s(g560
Ntp564
F0.14285714285714285
s(NS'Comparison.Contrast.2'
p565
tp566
F0.8571428571428571
ssS'doc_185.pair-01.perm.txt.pipe'
p567
(dp568
(S'Comparison.Contrast.1'
p569
Ntp570
F0.32
s(NS'Temporal.Synchrony.1'
p571
tp572
F0.12
s(S'Explicit'
p573
S'Explicit'
p574
tp575
F0.12
s(S'Comparison.Contrast.1'
p576
S'Temporal.Synchrony.1'
p577
tp578
F0.08
s(S'Comparison.Contrast.2'
p579
Ntp580
F0.24
s(Ng574
tp581
F0.32
s(g573
Ntp582
F0.56
s(NS'Temporal.Synchrony.2'
p583
tp584
F0.2
s(S'Comparison.Contrast.1'
p585
S'Temporal.Synchrony.2'
p586
tp587
F0.04
ssS'doc_194.pair-01.perm.txt.pipe'
p588
(dp589
sS'doc_77.pair-01.perm.txt.pipe'
p590
(dp591
sS'doc_136.pair-00.txt.pipe'
p592
(dp593
sS'doc_151.pair-00.txt.pipe'
p594
(dp595
sS'doc_122.pair-01.txt.pipe'
p596
(dp597
sS'doc_174.pair-00.perm.txt.pipe'
p598
(dp599
sS'doc_17.pair-00.perm.txt.pipe'
p600
(dp601
sS'doc_40.pair-01.perm.txt.pipe'
p602
(dp603
sS'doc_166.pair-01.txt.pipe'
p604
(dp605
sS'doc_2.pair-01.perm.txt.pipe'
p606
(dp607
sS'doc_108.pair-01.perm.txt.pipe'
p608
(dp609
sS'doc_33.pair-00.txt.pipe'
p610
(dp611
sS'doc_33.pair-00.perm.txt.pipe'
p612
(dp613
sS'doc_166.pair-01.perm.txt.pipe'
p614
(dp615
sS'doc_196.pair-01.txt.pipe'
p616
(dp617
sS'doc_189.pair-01.perm.txt.pipe'
p618
(dp619
sS'doc_94.pair-00.perm.txt.pipe'
p620
(dp621
sS'doc_157.pair-01.perm.txt.pipe'
p622
(dp623
sS'doc_135.pair-01.perm.txt.pipe'
p624
(dp625
(NS'Explicit'
p626
tp627
F0.8571428571428571
s(S'Comparison.Contrast.1'
p628
Ntp629
F0.14285714285714285
s(g626
Ntp630
F0.14285714285714285
s(NS'Comparison.Contrast.2'
p631
tp632
F0.8571428571428571
ssS'doc_159.pair-00.perm.txt.pipe'
p633
(dp634
(NS'Explicit'
p635
tp636
F0.8888888888888888
s(S'Comparison.Contrast.1'
p637
Ntp638
F0.1111111111111111
s(g635
Ntp639
F0.1111111111111111
s(NS'Comparison.Contrast.2'
p640
tp641
F0.8888888888888888
ssS'doc_171.pair-00.txt.pipe'
p642
(dp643
sS'doc_153.pair-00.perm.txt.pipe'
p644
(dp645
sS'doc_186.pair-00.perm.txt.pipe'
p646
(dp647
sS'doc_161.pair-01.txt.pipe'
p648
(dp649
(S'Explicit'
p650
S'Explicit'
p651
tp652
F0.07142857142857142
s(NS'Contingency.Cause.2'
p653
tp654
F0.23076923076923078
s(Ng651
tp655
F0.6190476190476191
s(g650
Ntp656
F0.30952380952380953
s(S'Expansion.Conjunction.1'
p657
Ntp658
F0.2
s(NS'Expansion.Conjunction.2'
p659
tp660
F0.38461538461538464
s(S'Expansion.Conjunction.1'
p661
S'Contingency.Cause.1'
p662
tp663
F0.046153846153846156
s(NS'Contingency.Cause.1'
p664
tp665
F0.13846153846153847
ssS'doc_124.pair-01.txt.pipe'
p666
(dp667
sS'doc_83.pair-00.perm.txt.pipe'
p668
(dp669
sS'doc_81.pair-00.perm.txt.pipe'
p670
(dp671
(NS'Explicit'
p672
tp673
F0.9583333333333334
s(NS'Expansion.Instantiation.2'
p674
tp675
F0.9583333333333334
s(g672
Ntp676
F0.041666666666666664
s(S'Expansion.Instantiation.1'
p677
Ntp678
F0.041666666666666664
ssS'doc_86.pair-00.perm.txt.pipe'
p679
(dp680
(S'Contingency.Condition.2'
p681
Ntp682
F0.4117647058823529
s(NS'Explicit'
p683
tp684
F0.35294117647058826
s(S'Explicit'
p685
Ntp686
F0.5882352941176471
s(g685
g683
tp687
F0.058823529411764705
s(NS'Contingency.Condition.2'
p688
tp689
F0.23529411764705882
s(NS'Contingency.Condition.1'
p690
tp691
F0.11764705882352941
s(S'Contingency.Condition.1'
p692
Ntp693
F0.17647058823529413
s(S'Contingency.Condition.2'
p694
S'Contingency.Condition.2'
p695
tp696
F0.058823529411764705
ssS'doc_44.pair-00.perm.txt.pipe'
p697
(dp698
sS'doc_100.pair-00.txt.pipe'
p699
(dp700
sS'doc_30.pair-01.txt.pipe'
p701
(dp702
sS'doc_62.pair-01.perm.txt.pipe'
p703
(dp704
sS'doc_10.pair-00.txt.pipe'
p705
(dp706
sS'doc_13.pair-00.perm.txt.pipe'
p707
(dp708
sS'doc_78.pair-01.txt.pipe'
p709
(dp710
sS'doc_10.pair-01.txt.pipe'
p711
(dp712
sS'doc_141.pair-01.perm.txt.pipe'
p713
(dp714
sS'doc_177.pair-01.txt.pipe'
p715
(dp716
sS'doc_113.pair-00.txt.pipe'
p717
(dp718
sS'doc_166.pair-00.perm.txt.pipe'
p719
(dp720
sS'doc_33.pair-01.perm.txt.pipe'
p721
(dp722
sS'doc_91.pair-01.perm.txt.pipe'
p723
(dp724
sS'doc_125.pair-01.perm.txt.pipe'
p725
(dp726
sS'doc_11.pair-01.perm.txt.pipe'
p727
(dp728
sS'doc_199.pair-00.perm.txt.pipe'
p729
(dp730
sS'doc_102.pair-01.txt.pipe'
p731
(dp732
(NS'Explicit'
p733
tp734
F0.5625
s(g733
Ntp735
F0.4375
s(NS'Expansion.Conjunction.2'
p736
tp737
F0.5625
s(S'Expansion.Conjunction.1'
p738
Ntp739
F0.4375
ssS'doc_144.pair-00.txt.pipe'
p740
(dp741
sS'doc_39.pair-01.txt.pipe'
p742
(dp743
(NS'Explicit'
p744
tp745
F0.8888888888888888
s(g744
Ntp746
F0.1111111111111111
s(NS'Expansion.Conjunction.2'
p747
tp748
F0.8888888888888888
s(S'Expansion.Conjunction.1'
p749
Ntp750
F0.1111111111111111
ssS'doc_137.pair-01.txt.pipe'
p751
(dp752
sS'doc_178.pair-01.txt.pipe'
p753
(dp754
sS'doc_129.pair-00.txt.pipe'
p755
(dp756
sS'doc_70.pair-00.txt.pipe'
p757
(dp758
sS'doc_154.pair-01.txt.pipe'
p759
(dp760
sS'doc_74.pair-00.perm.txt.pipe'
p761
(dp762
sS'doc_170.pair-01.perm.txt.pipe'
p763
(dp764
sS'doc_6.pair-01.txt.pipe'
p765
(dp766
sS'doc_37.pair-01.txt.pipe'
p767
(dp768
(S'Expansion.Conjunction.2'
p769
Ntp770
F0.15789473684210525
s(NS'Contingency.Cause.2'
p771
tp772
F0.15789473684210525
s(NS'Explicit'
p773
tp774
F0.3684210526315789
s(S'Explicit'
p775
Ntp776
F0.631578947368421
s(S'Expansion.Conjunction.1'
p777
Ntp778
F0.47368421052631576
s(NS'Contingency.Cause.1'
p779
tp780
F0.21052631578947367
ssS'doc_54.pair-00.perm.txt.pipe'
p781
(dp782
sS'doc_149.pair-01.perm.txt.pipe'
p783
(dp784
(NS'Explicit'
p785
tp786
F0.9545454545454546
s(g785
Ntp787
F0.045454545454545456
s(NS'Expansion.Conjunction.2'
p788
tp789
F0.9545454545454546
s(S'Expansion.Conjunction.1'
p790
Ntp791
F0.045454545454545456
ssS'doc_181.pair-01.txt.pipe'
p792
(dp793
sS'doc_100.pair-01.txt.pipe'
p794
(dp795
sS'doc_159.pair-01.txt.pipe'
p796
(dp797
(S'Contingency.Cause.1'
p798
Ntp799
F0.015625
s(NS'Temporal.Synchrony.1'
p800
tp801
F0.0625
s(NS'Temporal.Synchrony.2'
p802
tp803
F0.109375
s(NS'Contingency.Cause.2'
p804
tp805
F0.3125
s(NS'Explicit'
p806
tp807
F0.484375
s(g806
Ntp808
F0.328125
s(g804
Ntp809
F0.3125
s(NNtp810
F0.1875
ssS'doc_15.pair-00.perm.txt.pipe'
p811
(dp812
sS'doc_140.pair-01.perm.txt.pipe'
p813
(dp814
sS'doc_29.pair-01.txt.pipe'
p815
(dp816
sS'doc_77.pair-01.txt.pipe'
p817
(dp818
sS'doc_45.pair-00.txt.pipe'
p819
(dp820
sS'doc_186.pair-01.perm.txt.pipe'
p821
(dp822
sS'doc_54.pair-00.txt.pipe'
p823
(dp824
sS'doc_110.pair-00.perm.txt.pipe'
p825
(dp826
sS'doc_106.pair-00.txt.pipe'
p827
(dp828
(S'Comparison.Concession.1'
p829
Ntp830
F0.32
s(NS'Contingency.Cause.2'
p831
tp832
F0.12
s(NS'Explicit'
p833
tp834
F0.32
s(S'Comparison.Concession.2'
p835
Ntp836
F0.36
s(S'Explicit'
p837
Ntp838
F0.68
s(NS'Contingency.Cause.1'
p839
tp840
F0.2
ssS'doc_135.pair-00.perm.txt.pipe'
p841
(dp842
sS'doc_116.pair-01.txt.pipe'
p843
(dp844
(NS'Explicit'
p845
tp846
F0.9166666666666666
s(S'Temporal.Asynchronous.1'
p847
Ntp848
F0.08333333333333333
s(NS'Temporal.Asynchronous.2'
p849
tp850
F0.9166666666666666
s(g845
Ntp851
F0.08333333333333333
ssS'doc_68.pair-00.txt.pipe'
p852
(dp853
(S'Comparison.Contrast.1'
p854
Ntp855
F0.22972972972972974
s(S'Comparison.Contrast.2'
p856
S'Comparison.Contrast.2'
p857
tp858
F0.013513513513513514
s(S'Comparison.Contrast.2'
p859
Ntp860
F0.20270270270270271
s(NS'Explicit'
p861
tp862
F0.4772727272727273
s(Ng854
tp863
F0.21621621621621623
s(g861
Ntp864
F0.38636363636363635
s(S'Explicit'
p865
g861
tp866
F0.022727272727272728
s(Ng859
tp867
F0.2702702702702703
s(NNtp868
F0.11363636363636363
ssS'doc_90.pair-00.perm.txt.pipe'
p869
(dp870
sS'doc_163.pair-01.perm.txt.pipe'
p871
(dp872
sS'doc_132.pair-01.perm.txt.pipe'
p873
(dp874
(S'Expansion.Conjunction.1'
p875
Ntp876
F0.037037037037037035
s(NS'Explicit'
p877
tp878
F0.9444444444444444
s(NS'Comparison.Contrast.1'
p879
tp880
F0.2222222222222222
s(g877
Ntp881
F0.05555555555555555
s(NS'Comparison.Contrast.2'
p882
tp883
F0.1111111111111111
s(NS'Expansion.Conjunction.2'
p884
tp885
F0.6296296296296297
ssS'doc_171.pair-00.perm.txt.pipe'
p886
(dp887
sS'doc_164.pair-00.perm.txt.pipe'
p888
(dp889
(NS'Explicit'
p890
tp891
F0.5641025641025641
s(g890
Ntp892
F0.4358974358974359
s(NS'Expansion.Conjunction.2'
p893
tp894
F0.5641025641025641
s(S'Expansion.Conjunction.1'
p895
Ntp896
F0.4358974358974359
ssS'doc_18.pair-00.perm.txt.pipe'
p897
(dp898
(NS'Explicit'
p899
tp900
F0.52
s(g899
Ntp901
F0.48
s(NS'Expansion.Conjunction.2'
p902
tp903
F0.52
s(S'Expansion.Conjunction.1'
p904
Ntp905
F0.48
ssS'doc_140.pair-00.perm.txt.pipe'
p906
(dp907
sS'doc_15.pair-01.perm.txt.pipe'
p908
(dp909
sS'doc_24.pair-01.txt.pipe'
p910
(dp911
(S'Explicit'
p912
S'Explicit'
p913
tp914
F0.18333333333333332
s(S'Expansion.Conjunction.1'
p915
Ntp916
F0.1
s(Ng913
tp917
F0.48333333333333334
s(NS'Comparison.Contrast.1'
p918
tp919
F0.09166666666666666
s(g913
Ntp920
F0.2
s(S'Expansion.Conjunction.2'
p921
S'Expansion.Conjunction.2'
p922
tp923
F0.09166666666666666
s(NS'Comparison.Contrast.2'
p924
tp925
F0.058333333333333334
s(NNtp926
F0.13333333333333333
s(NS'Expansion.Conjunction.2'
p927
tp928
F0.23333333333333334
s(S'Expansion.Conjunction.2'
p929
Ntp930
F0.08333333333333333
s(g918
Ntp931
F0.09166666666666666
s(Ng915
tp932
F0.09166666666666666
s(g921
S'Comparison.Contrast.2'
p933
tp934
F0.09166666666666666
ssS'doc_98.pair-01.txt.pipe'
p935
(dp936
sS'doc_104.pair-01.txt.pipe'
p937
(dp938
(NS'Explicit'
p939
tp940
F0.5
s(g939
Ntp941
F0.5
s(NS'Expansion.Conjunction.2'
p942
tp943
F0.5
s(S'Expansion.Conjunction.1'
p944
Ntp945
F0.5
ssS'doc_9.pair-01.perm.txt.pipe'
p946
(dp947
sS'doc_129.pair-00.perm.txt.pipe'
p948
(dp949
sS'doc_19.pair-00.perm.txt.pipe'
p950
(dp951
sS'doc_184.pair-01.txt.pipe'
p952
(dp953
(NS'Explicit'
p954
tp955
F0.9523809523809523
s(g954
Ntp956
F0.047619047619047616
s(NS'Expansion.Conjunction.2'
p957
tp958
F0.9523809523809523
s(S'Expansion.Conjunction.1'
p959
Ntp960
F0.047619047619047616
ssS'doc_55.pair-01.txt.pipe'
p961
(dp962
sS'doc_9.pair-00.txt.pipe'
p963
(dp964
(NS'Explicit'
p965
tp966
F0.8333333333333334
s(S'Comparison.Contrast.1'
p967
Ntp968
F0.16666666666666666
s(g965
Ntp969
F0.16666666666666666
s(NS'Comparison.Contrast.2'
p970
tp971
F0.8333333333333334
ssS'doc_74.pair-01.txt.pipe'
p972
(dp973
sS'doc_196.pair-00.txt.pipe'
p974
(dp975
(NS'Explicit'
p976
tp977
F0.9166666666666666
s(S'Temporal.Asynchronous.1'
p978
Ntp979
F0.08333333333333333
s(NS'Temporal.Asynchronous.2'
p980
tp981
F0.9166666666666666
s(g976
Ntp982
F0.08333333333333333
ssS'doc_196.pair-00.perm.txt.pipe'
p983
(dp984
(NS'Explicit'
p985
tp986
F0.8571428571428571
s(S'Temporal.Asynchronous.1'
p987
Ntp988
F0.14285714285714285
s(NS'Temporal.Asynchronous.2'
p989
tp990
F0.8571428571428571
s(g985
Ntp991
F0.14285714285714285
ssS'doc_103.pair-00.txt.pipe'
p992
(dp993
sS'doc_123.pair-00.txt.pipe'
p994
(dp995
sS'doc_60.pair-01.txt.pipe'
p996
(dp997
(S'Expansion.Conjunction.1'
p998
Ntp999
F0.26666666666666666
s(NS'Explicit'
p1000
tp1001
F0.6086956521739131
s(S'Temporal.Asynchronous.1'
p1002
Ntp1003
F0.1
s(S'Explicit'
p1004
g1000
tp1005
F0.043478260869565216
s(NS'Expansion.Conjunction.2'
p1006
tp1007
F0.4666666666666667
s(S'Temporal.Asynchronous.2'
p1008
Ntp1009
F0.13333333333333333
s(S'Temporal.Asynchronous.2'
p1010
S'Expansion.Conjunction.2'
p1011
tp1012
F0.03333333333333333
s(g1004
Ntp1013
F0.34782608695652173
ssS'doc_12.pair-00.txt.pipe'
p1014
(dp1015
sS'doc_94.pair-01.txt.pipe'
p1016
(dp1017
sS'doc_47.pair-01.perm.txt.pipe'
p1018
(dp1019
sS'doc_132.pair-01.txt.pipe'
p1020
(dp1021
(S'Expansion.Conjunction.1'
p1022
Ntp1023
F0.17142857142857143
s(NS'Explicit'
p1024
tp1025
F0.7692307692307693
s(NS'Comparison.Contrast.1'
p1026
tp1027
F0.17142857142857143
s(S'Explicit'
p1028
Ntp1029
F0.23076923076923078
s(NS'Comparison.Contrast.2'
p1030
tp1031
F0.08571428571428572
s(NS'Expansion.Conjunction.2'
p1032
tp1033
F0.5714285714285714
ssS'doc_169.pair-01.txt.pipe'
p1034
(dp1035
sS'doc_164.pair-01.txt.pipe'
p1036
(dp1037
sS'doc_175.pair-00.txt.pipe'
p1038
(dp1039
sS'doc_49.pair-00.txt.pipe'
p1040
(dp1041
sS'doc_123.pair-01.perm.txt.pipe'
p1042
(dp1043
sS'doc_142.pair-00.txt.pipe'
p1044
(dp1045
(NS'Explicit'
p1046
tp1047
F0.9411764705882353
s(S'Comparison.Contrast.1'
p1048
Ntp1049
F0.058823529411764705
s(g1046
Ntp1050
F0.058823529411764705
s(NS'Comparison.Contrast.2'
p1051
tp1052
F0.9411764705882353
ssS'doc_43.pair-01.txt.pipe'
p1053
(dp1054
(NS'Explicit'
p1055
tp1056
F0.4666666666666667
s(g1055
Ntp1057
F0.3
s(S'Comparison.Concession.1'
p1058
Ntp1059
F0.03333333333333333
s(NS'Expansion.Conjunction.1'
p1060
tp1061
F0.06666666666666667
s(NS'Comparison.Concession.2'
p1062
tp1063
F0.26666666666666666
s(g1062
Ntp1064
F0.26666666666666666
s(NNtp1065
F0.23333333333333334
s(NS'Expansion.Conjunction.2'
p1066
tp1067
F0.13333333333333333
ssS'doc_36.pair-01.perm.txt.pipe'
p1068
(dp1069
sS'doc_111.pair-01.txt.pipe'
p1070
(dp1071
sS'doc_76.pair-01.txt.pipe'
p1072
(dp1073
(NS'Explicit'
p1074
tp1075
F0.9642857142857143
s(NS'Comparison.Contrast.1'
p1076
tp1077
F0.28205128205128205
s(S'Explicit'
p1078
Ntp1079
F0.03571428571428571
s(NS'Comparison.Contrast.2'
p1080
tp1081
F0.6923076923076923
s(S'Comparison.Contrast.1'
p1082
Ntp1083
F0.02564102564102564
ssS'doc_57.pair-01.txt.pipe'
p1084
(dp1085
sS'doc_194.pair-00.perm.txt.pipe'
p1086
(dp1087
(NS'Explicit'
p1088
tp1089
F0.5909090909090909
s(S'Comparison.Contrast.1'
p1090
Ntp1091
F0.4090909090909091
s(g1088
Ntp1092
F0.4090909090909091
s(NS'Comparison.Contrast.2'
p1093
tp1094
F0.5909090909090909
ssS'doc_17.pair-01.txt.pipe'
p1095
(dp1096
sS'doc_200.pair-00.perm.txt.pipe'
p1097
(dp1098
sS'doc_51.pair-01.txt.pipe'
p1099
(dp1100
sS'doc_59.pair-01.perm.txt.pipe'
p1101
(dp1102
sS'doc_103.pair-00.perm.txt.pipe'
p1103
(dp1104
sS'doc_57.pair-00.txt.pipe'
p1105
(dp1106
(NS'Explicit'
p1107
tp1108
F0.4
s(S'Comparison.Contrast.1'
p1109
Ntp1110
F0.6
s(g1107
Ntp1111
F0.6
s(NS'Comparison.Contrast.2'
p1112
tp1113
F0.4
ssS'doc_44.pair-01.perm.txt.pipe'
p1114
(dp1115
sS'doc_146.pair-01.txt.pipe'
p1116
(dp1117
(NS'Explicit'
p1118
tp1119
F0.8571428571428571
s(g1118
Ntp1120
F0.14285714285714285
s(NS'Expansion.Conjunction.2'
p1121
tp1122
F0.8571428571428571
s(S'Expansion.Conjunction.1'
p1123
Ntp1124
F0.14285714285714285
ssS'doc_18.pair-01.txt.pipe'
p1125
(dp1126
sS'doc_29.pair-00.txt.pipe'
p1127
(dp1128
(NS'Explicit'
p1129
tp1130
F0.5625
s(S'Comparison.Contrast.1'
p1131
Ntp1132
F0.4375
s(g1129
Ntp1133
F0.4375
s(NS'Comparison.Contrast.2'
p1134
tp1135
F0.5625
ssS'doc_44.pair-01.txt.pipe'
p1136
(dp1137
sS'doc_62.pair-01.txt.pipe'
p1138
(dp1139
sS'doc_187.pair-00.perm.txt.pipe'
p1140
(dp1141
sS'doc_145.pair-01.perm.txt.pipe'
p1142
(dp1143
sS'doc_4.pair-01.perm.txt.pipe'
p1144
(dp1145
(NS'Temporal.Asynchronous.2'
p1146
tp1147
F0.24074074074074073
s(NS'Contingency.Cause.2'
p1148
tp1149
F0.16666666666666666
s(NS'Explicit'
p1150
tp1151
F0.9642857142857143
s(S'Temporal.Asynchronous.1'
p1152
Ntp1153
F0.009259259259259259
s(NS'Comparison.Contrast.2'
p1154
tp1155
F0.25
s(NS'Expansion.Conjunction.2'
p1156
tp1157
F0.10185185185185185
s(S'Comparison.Contrast.1'
p1158
Ntp1159
F0.009259259259259259
s(NS'Expansion.Conjunction.1'
p1160
tp1161
F0.05555555555555555
s(g1150
Ntp1162
F0.03571428571428571
s(NS'Contingency.Cause.1'
p1163
tp1164
F0.16666666666666666
ssS'doc_179.pair-00.txt.pipe'
p1165
(dp1166
sS'doc_165.pair-01.txt.pipe'
p1167
(dp1168
sS'doc_142.pair-00.perm.txt.pipe'
p1169
(dp1170
(NS'Explicit'
p1171
tp1172
F0.5
s(S'Comparison.Contrast.1'
p1173
Ntp1174
F0.5
s(g1171
Ntp1175
F0.5
s(NS'Comparison.Contrast.2'
p1176
tp1177
F0.5
ssS'doc_109.pair-01.txt.pipe'
p1178
(dp1179
sS'doc_69.pair-00.txt.pipe'
p1180
(dp1181
sS'doc_170.pair-00.perm.txt.pipe'
p1182
(dp1183
(S'Comparison.Contrast.1'
p1184
Ntp1185
F0.15151515151515152
s(S'Explicit'
p1186
S'Explicit'
p1187
tp1188
F0.09090909090909091
s(NS'Contingency.Condition.2'
p1189
tp1190
F0.2727272727272727
s(S'Comparison.Contrast.2'
p1191
Ntp1192
F0.09090909090909091
s(S'Comparison.Contrast.2'
p1193
S'Contingency.Condition.1'
p1194
tp1195
F0.06060606060606061
s(NS'Contingency.Condition.1'
p1196
tp1197
F0.3939393939393939
s(g1186
Ntp1198
F0.24242424242424243
s(Ng1187
tp1199
F0.6666666666666666
s(S'Comparison.Contrast.1'
p1200
S'Contingency.Condition.1'
p1201
tp1202
F0.030303030303030304
ssS'doc_120.pair-00.txt.pipe'
p1203
(dp1204
sS'doc_107.pair-01.txt.pipe'
p1205
(dp1206
sS'doc_45.pair-01.perm.txt.pipe'
p1207
(dp1208
(S'Expansion.Conjunction.1'
p1209
Ntp1210
F0.4
s(NS'Explicit'
p1211
tp1212
F0.26666666666666666
s(S'Expansion.Conjunction.2'
p1213
S'Comparison.Contrast.2'
p1214
tp1215
F0.06666666666666667
s(S'Explicit'
p1216
Ntp1217
F0.6666666666666666
s(g1216
g1211
tp1218
F0.06666666666666667
s(NS'Comparison.Contrast.2'
p1219
tp1220
F0.2
s(S'Expansion.Conjunction.2'
p1221
Ntp1222
F0.26666666666666666
s(NS'Comparison.Contrast.1'
p1223
tp1224
F0.06666666666666667
ssS'doc_185.pair-00.txt.pipe'
p1225
(dp1226
sS'doc_130.pair-01.txt.pipe'
p1227
(dp1228
sS'doc_114.pair-01.perm.txt.pipe'
p1229
(dp1230
(NS'Explicit'
p1231
tp1232
F0.9444444444444444
s(S'Expansion.Restatement.1'
p1233
Ntp1234
F0.05555555555555555
s(g1231
Ntp1235
F0.05555555555555555
s(NS'Expansion.Restatement.2'
p1236
tp1237
F0.9444444444444444
ssS'doc_73.pair-00.perm.txt.pipe'
p1238
(dp1239
sS'doc_198.pair-01.txt.pipe'
p1240
(dp1241
sS'doc_66.pair-01.perm.txt.pipe'
p1242
(dp1243
(NS'Explicit'
p1244
tp1245
F0.9166666666666666
s(g1244
Ntp1246
F0.08333333333333333
s(NS'Expansion.Conjunction.2'
p1247
tp1248
F0.9166666666666666
s(S'Expansion.Conjunction.1'
p1249
Ntp1250
F0.08333333333333333
ssS'doc_76.pair-01.perm.txt.pipe'
p1251
(dp1252
(S'Comparison.Contrast.1'
p1253
Ntp1254
F0.1568627450980392
s(NS'Explicit'
p1255
tp1256
F0.775
s(S'Comparison.Contrast.1'
p1257
S'Comparison.Contrast.2'
p1258
tp1259
F0.0196078431372549
s(NS'Comparison.Contrast.1'
p1260
tp1261
F0.21568627450980393
s(S'Explicit'
p1262
Ntp1263
F0.2
s(g1262
g1255
tp1264
F0.025
s(NS'Comparison.Contrast.2'
p1265
tp1266
F0.6078431372549019
ssS'doc_14.pair-01.txt.pipe'
p1267
(dp1268
(NS'Explicit'
p1269
tp1270
F1.0
s(NS'Expansion.Instantiation.2'
p1271
tp1272
F1.0
ssS'doc_172.pair-01.txt.pipe'
p1273
(dp1274
sS'doc_151.pair-00.perm.txt.pipe'
p1275
(dp1276
sS'doc_117.pair-00.perm.txt.pipe'
p1277
(dp1278
sS'doc_37.pair-00.txt.pipe'
p1279
(dp1280
sS'doc_81.pair-01.perm.txt.pipe'
p1281
(dp1282
sS'doc_59.pair-00.txt.pipe'
p1283
(dp1284
(NS'Explicit'
p1285
tp1286
F0.8125
s(S'Temporal.Asynchronous.1'
p1287
Ntp1288
F0.1875
s(NS'Temporal.Asynchronous.2'
p1289
tp1290
F0.8125
s(g1285
Ntp1291
F0.1875
ssS'doc_61.pair-00.perm.txt.pipe'
p1292
(dp1293
sS'doc_110.pair-00.txt.pipe'
p1294
(dp1295
sS'doc_22.pair-01.perm.txt.pipe'
p1296
(dp1297
sS'doc_133.pair-00.txt.pipe'
p1298
(dp1299
sS'doc_134.pair-00.txt.pipe'
p1300
(dp1301
sS'doc_97.pair-01.perm.txt.pipe'
p1302
(dp1303
sS'doc_92.pair-01.perm.txt.pipe'
p1304
(dp1305
sS'doc_49.pair-01.txt.pipe'
p1306
(dp1307
(S'EntRel'
p1308
Ntp1309
F0.32142857142857145
s(Ng1308
tp1310
F0.6785714285714286
s(NS'.2'
p1311
tp1312
F0.6785714285714286
s(S'.1'
p1313
Ntp1314
F0.32142857142857145
ssS'doc_154.pair-00.perm.txt.pipe'
p1315
(dp1316
sS'doc_20.pair-01.txt.pipe'
p1317
(dp1318
sS'doc_58.pair-01.perm.txt.pipe'
p1319
(dp1320
sS'doc_157.pair-01.txt.pipe'
p1321
(dp1322
sS'doc_67.pair-01.perm.txt.pipe'
p1323
(dp1324
sS'doc_7.pair-00.txt.pipe'
p1325
(dp1326
sS'doc_176.pair-00.perm.txt.pipe'
p1327
(dp1328
sS'doc_28.pair-01.perm.txt.pipe'
p1329
(dp1330
(S'Contingency.Cause.1'
p1331
Ntp1332
F0.0625
s(S'Explicit'
p1333
S'Explicit'
p1334
tp1335
F0.037037037037037035
s(S'Expansion.Conjunction.1'
p1336
Ntp1337
F0.0125
s(Ng1334
tp1338
F0.48148148148148145
s(g1333
Ntp1339
F0.24074074074074073
s(NS'Contingency.Cause.2'
p1340
tp1341
F0.1875
s(NNtp1342
F0.24074074074074073
s(NS'Expansion.Conjunction.2'
p1343
tp1344
F0.175
s(g1343
Ntp1345
F0.15
s(S'Expansion.Conjunction.2'
p1346
S'Contingency.Cause.2'
p1347
tp1348
F0.025
s(S'Contingency.Cause.2'
p1349
Ntp1350
F0.075
s(S'Contingency.Cause.2'
p1351
g1347
tp1352
F0.025
s(NS'Contingency.Cause.1'
p1353
tp1354
F0.125
ssS'doc_192.pair-00.perm.txt.pipe'
p1355
(dp1356
sS'doc_73.pair-01.txt.pipe'
p1357
(dp1358
(NS'Explicit'
p1359
tp1360
F0.875
s(S'Comparison.Contrast.1'
p1361
Ntp1362
F0.125
s(g1359
Ntp1363
F0.125
s(NS'Comparison.Contrast.2'
p1364
tp1365
F0.875
ssS'doc_121.pair-01.txt.pipe'
p1366
(dp1367
(NS'Explicit'
p1368
tp1369
F0.6666666666666666
s(g1368
Ntp1370
F0.3333333333333333
s(NS'Expansion.Conjunction.2'
p1371
tp1372
F0.6666666666666666
s(S'Expansion.Conjunction.1'
p1373
Ntp1374
F0.3333333333333333
ssS'doc_27.pair-00.txt.pipe'
p1375
(dp1376
(NS'Expansion.Instantiation.2'
p1377
tp1378
F0.3076923076923077
s(NS'Explicit'
p1379
tp1380
F0.48717948717948717
s(g1379
Ntp1381
F0.3076923076923077
s(g1379
S'Explicit'
p1382
tp1383
F0.01282051282051282
s(NNtp1384
F0.19230769230769232
s(NS'Expansion.Conjunction.2'
p1385
tp1386
F0.08974358974358974
s(S'Expansion.Instantiation.1'
p1387
Ntp1388
F0.01282051282051282
s(NS'Expansion.Conjunction.1'
p1389
tp1390
F0.08974358974358974
s(g1377
Ntp1391
F0.2948717948717949
s(S'Expansion.Instantiation.2'
p1392
S'Expansion.Conjunction.1'
p1393
tp1394
F0.01282051282051282
ssS'doc_90.pair-01.txt.pipe'
p1395
(dp1396
sS'doc_128.pair-00.perm.txt.pipe'
p1397
(dp1398
sS'doc_181.pair-01.perm.txt.pipe'
p1399
(dp1400
sS'doc_150.pair-01.txt.pipe'
p1401
(dp1402
sS'doc_180.pair-00.perm.txt.pipe'
p1403
(dp1404
(S'Comparison.Contrast.1'
p1405
Ntp1406
F0.32142857142857145
s(S'Comparison.Contrast.2'
p1407
Ntp1408
F0.17857142857142858
s(NS'Expansion.Conjunction.1'
p1409
tp1410
F0.14285714285714285
s(NS'Explicit'
p1411
tp1412
F0.5
s(S'Explicit'
p1413
Ntp1414
F0.5
s(NS'Expansion.Conjunction.2'
p1415
tp1416
F0.35714285714285715
ssS'doc_137.pair-01.perm.txt.pipe'
p1417
(dp1418
sS'doc_195.pair-00.perm.txt.pipe'
p1419
(dp1420
sS'doc_188.pair-00.txt.pipe'
p1421
(dp1422
sS'doc_117.pair-01.txt.pipe'
p1423
(dp1424
(S'Comparison.Contrast.2'
p1425
S'Temporal.Synchrony.1'
p1426
tp1427
F0.016666666666666666
s(S'Comparison.Contrast.2'
p1428
S'Temporal.Synchrony.2'
p1429
tp1430
F0.03333333333333333
s(S'Comparison.Contrast.2'
p1431
Ntp1432
F0.13333333333333333
s(NS'Explicit'
p1433
tp1434
F0.48333333333333334
s(g1433
Ntp1435
F0.15
s(g1433
S'Explicit'
p1436
tp1437
F0.05
s(Ng1428
tp1438
F0.18333333333333332
s(NNtp1439
F0.31666666666666665
s(S'Comparison.Contrast.1'
p1440
Ntp1441
F0.016666666666666666
s(NS'Temporal.Synchrony.1'
p1442
tp1443
F0.08333333333333333
s(NS'Temporal.Synchrony.2'
p1444
tp1445
F0.21666666666666667
ssS'doc_20.pair-00.perm.txt.pipe'
p1446
(dp1447
(S'Contingency.Cause.1'
p1448
Ntp1449
F0.043478260869565216
s(NS'Explicit'
p1450
tp1451
F0.26666666666666666
s(g1450
Ntp1452
F0.5333333333333333
s(S'Explicit'
p1453
g1450
tp1454
F0.2
s(S'Expansion.Alternative.1'
p1455
Ntp1456
F0.34782608695652173
s(S'Contingency.Cause.2'
p1457
Ntp1458
F0.30434782608695654
s(NS'Expansion.Alternative.2'
p1459
tp1460
F0.17391304347826086
s(S'Contingency.Cause.2'
p1461
S'Expansion.Alternative.2'
p1462
tp1463
F0.13043478260869565
ssS'doc_145.pair-01.txt.pipe'
p1464
(dp1465
sS'doc_7.pair-01.txt.pipe'
p1466
(dp1467
(NS'Explicit'
p1468
tp1469
F0.36363636363636365
s(g1468
Ntp1470
F0.6363636363636364
s(NS'Expansion.Conjunction.2'
p1471
tp1472
F0.36363636363636365
s(S'Expansion.Conjunction.1'
p1473
Ntp1474
F0.6363636363636364
ssS'doc_158.pair-00.txt.pipe'
p1475
(dp1476
(NS'Explicit'
p1477
tp1478
F0.9230769230769231
s(g1477
Ntp1479
F0.07692307692307693
s(NS'Expansion.Conjunction.2'
p1480
tp1481
F0.9230769230769231
s(S'Expansion.Conjunction.1'
p1482
Ntp1483
F0.07692307692307693
ssS'doc_111.pair-00.txt.pipe'
p1484
(dp1485
sS'doc_75.pair-00.txt.pipe'
p1486
(dp1487
sS'doc_116.pair-00.txt.pipe'
p1488
(dp1489
(NS'Explicit'
p1490
tp1491
F0.5384615384615384
s(S'Temporal.Asynchronous.1'
p1492
Ntp1493
F0.46153846153846156
s(NS'Temporal.Asynchronous.2'
p1494
tp1495
F0.5384615384615384
s(g1490
Ntp1496
F0.46153846153846156
ssS'doc_189.pair-00.perm.txt.pipe'
p1497
(dp1498
(NS'Explicit'
p1499
tp1500
F0.5
s(g1499
Ntp1501
F0.5
s(NS'Expansion.Conjunction.2'
p1502
tp1503
F0.5
s(S'Expansion.Conjunction.1'
p1504
Ntp1505
F0.5
ssS'doc_38.pair-01.perm.txt.pipe'
p1506
(dp1507
sS'doc_137.pair-00.perm.txt.pipe'
p1508
(dp1509
sS'doc_61.pair-01.txt.pipe'
p1510
(dp1511
sS'doc_86.pair-01.perm.txt.pipe'
p1512
(dp1513
sS'doc_195.pair-01.perm.txt.pipe'
p1514
(dp1515
sS'doc_84.pair-01.txt.pipe'
p1516
(dp1517
(NS'Explicit'
p1518
tp1519
F0.5294117647058824
s(S'Comparison.Contrast.1'
p1520
Ntp1521
F0.47058823529411764
s(g1518
Ntp1522
F0.47058823529411764
s(NS'Comparison.Contrast.2'
p1523
tp1524
F0.5294117647058824
ssS'doc_109.pair-00.perm.txt.pipe'
p1525
(dp1526
sS'doc_133.pair-01.txt.pipe'
p1527
(dp1528
sS'doc_144.pair-01.txt.pipe'
p1529
(dp1530
sS'doc_95.pair-01.perm.txt.pipe'
p1531
(dp1532
(S'Explicit'
p1533
S'Explicit'
p1534
tp1535
F0.05555555555555555
s(NS'Contingency.Cause.2'
p1536
tp1537
F0.2413793103448276
s(Ng1534
tp1538
F0.6666666666666666
s(g1533
Ntp1539
F0.2777777777777778
s(S'Expansion.Conjunction.1'
p1540
Ntp1541
F0.1724137931034483
s(NS'Expansion.Conjunction.2'
p1542
tp1543
F0.3793103448275862
s(S'Expansion.Conjunction.1'
p1544
S'Contingency.Cause.1'
p1545
tp1546
F0.034482758620689655
s(NS'Contingency.Cause.1'
p1547
tp1548
F0.1724137931034483
ssS'doc_92.pair-00.perm.txt.pipe'
p1549
(dp1550
sS'doc_187.pair-01.perm.txt.pipe'
p1551
(dp1552
(S'Contingency.Cause.1'
p1553
Ntp1554
F0.6666666666666666
s(NS'Explicit'
p1555
tp1556
F0.3333333333333333
s(g1555
Ntp1557
F0.6666666666666666
s(NS'Contingency.Cause.2'
p1558
tp1559
F0.3333333333333333
ssS'doc_199.pair-01.perm.txt.pipe'
p1560
(dp1561
sS'doc_32.pair-00.perm.txt.pipe'
p1562
(dp1563
sS'doc_109.pair-01.perm.txt.pipe'
p1564
(dp1565
sS'doc_41.pair-01.txt.pipe'
p1566
(dp1567
(NS'Explicit'
p1568
tp1569
F0.5384615384615384
s(S'Comparison.Contrast.1'
p1570
Ntp1571
F0.46153846153846156
s(g1568
Ntp1572
F0.46153846153846156
s(NS'Comparison.Contrast.2'
p1573
tp1574
F0.5384615384615384
ssS'doc_13.pair-00.txt.pipe'
p1575
(dp1576
sS'doc_132.pair-00.perm.txt.pipe'
p1577
(dp1578
sS'doc_179.pair-01.txt.pipe'
p1579
(dp1580
sS'doc_106.pair-01.perm.txt.pipe'
p1581
(dp1582
sS'doc_87.pair-00.txt.pipe'
p1583
(dp1584
sS'doc_5.pair-00.perm.txt.pipe'
p1585
(dp1586
sS'doc_52.pair-00.perm.txt.pipe'
p1587
(dp1588
sS'doc_58.pair-00.perm.txt.pipe'
p1589
(dp1590
sS'doc_121.pair-01.perm.txt.pipe'
p1591
(dp1592
(NS'Explicit'
p1593
tp1594
F0.9285714285714286
s(g1593
Ntp1595
F0.07142857142857142
s(NS'Expansion.Conjunction.2'
p1596
tp1597
F0.9285714285714286
s(S'Expansion.Conjunction.1'
p1598
Ntp1599
F0.07142857142857142
ssS'doc_48.pair-00.txt.pipe'
p1600
(dp1601
sS'doc_38.pair-00.txt.pipe'
p1602
(dp1603
(S'Comparison.Contrast.2'
p1604
Ntp1605
F0.10891089108910891
s(S'Expansion.Conjunction.1'
p1606
Ntp1607
F0.009900990099009901
s(NS'Explicit'
p1608
tp1609
F0.4807692307692308
s(NS'Comparison.Contrast.1'
p1610
tp1611
F0.10891089108910891
s(g1608
Ntp1612
F0.23076923076923078
s(g1608
S'Explicit'
p1613
tp1614
F0.057692307692307696
s(Ng1604
tp1615
F0.24752475247524752
s(NNtp1616
F0.23076923076923078
s(NS'Expansion.Conjunction.2'
p1617
tp1618
F0.12871287128712872
s(g1617
Ntp1619
F0.09900990099009901
s(g1610
Ntp1620
F0.1188118811881188
s(S'Comparison.Contrast.2'
p1621
S'Comparison.Contrast.2'
p1622
tp1623
F0.0297029702970297
s(S'Expansion.Conjunction.2'
p1624
g1622
tp1625
F0.0297029702970297
ssS'doc_8.pair-00.perm.txt.pipe'
p1626
(dp1627
sS'doc_101.pair-00.perm.txt.pipe'
p1628
(dp1629
sS'doc_13.pair-01.txt.pipe'
p1630
(dp1631
sS'doc_40.pair-01.txt.pipe'
p1632
(dp1633
sS'doc_167.pair-00.perm.txt.pipe'
p1634
(dp1635
(NS'Explicit'
p1636
tp1637
F0.696969696969697
s(g1636
Ntp1638
F0.30303030303030304
s(NS'Expansion.Conjunction.2'
p1639
tp1640
F0.696969696969697
s(S'Expansion.Conjunction.1'
p1641
Ntp1642
F0.30303030303030304
ssS'doc_175.pair-01.txt.pipe'
p1643
(dp1644
sS'doc_140.pair-00.txt.pipe'
p1645
(dp1646
sS'doc_15.pair-01.txt.pipe'
p1647
(dp1648
sS'doc_108.pair-00.perm.txt.pipe'
p1649
(dp1650
sS'doc_195.pair-00.txt.pipe'
p1651
(dp1652
sS'doc_1.pair-01.txt.pipe'
p1653
(dp1654
(NS'Temporal.Asynchronous.2'
p1655
tp1656
F0.3695652173913043
s(S'Expansion.Conjunction.1'
p1657
Ntp1658
F0.13043478260869565
s(NS'Explicit'
p1659
tp1660
F0.75
s(S'Temporal.Asynchronous.1'
p1661
Ntp1662
F0.13043478260869565
s(g1659
Ntp1663
F0.25
s(NS'Expansion.Conjunction.2'
p1664
tp1665
F0.3695652173913043
ssS'doc_121.pair-00.perm.txt.pipe'
p1666
(dp1667
sS'doc_118.pair-01.perm.txt.pipe'
p1668
(dp1669
(S'Contingency.Condition.2'
p1670
Ntp1671
F0.2
s(NS'Explicit'
p1672
tp1673
F0.3
s(S'Explicit'
p1674
Ntp1675
F0.6
s(g1674
g1672
tp1676
F0.1
s(NS'Contingency.Condition.2'
p1677
tp1678
F0.2
s(NS'Contingency.Condition.1'
p1679
tp1680
F0.1
s(S'Contingency.Condition.1'
p1681
Ntp1682
F0.4
s(S'Contingency.Condition.2'
p1683
S'Contingency.Condition.2'
p1684
tp1685
F0.1
ssS'doc_148.pair-01.perm.txt.pipe'
p1686
(dp1687
sS'doc_84.pair-00.perm.txt.pipe'
p1688
(dp1689
(NS'Explicit'
p1690
tp1691
F0.6666666666666666
s(S'Comparison.Contrast.1'
p1692
Ntp1693
F0.3333333333333333
s(g1690
Ntp1694
F0.3333333333333333
s(NS'Comparison.Contrast.2'
p1695
tp1696
F0.6666666666666666
ssS'doc_85.pair-01.txt.pipe'
p1697
(dp1698
(NS'Explicit'
p1699
tp1700
F0.64
s(S'Comparison.Contrast.1'
p1701
Ntp1702
F0.36
s(g1699
Ntp1703
F0.36
s(NS'Comparison.Contrast.2'
p1704
tp1705
F0.64
ssS'doc_188.pair-00.perm.txt.pipe'
p1706
(dp1707
sS'doc_101.pair-01.txt.pipe'
p1708
(dp1709
sS'doc_21.pair-01.perm.txt.pipe'
p1710
(dp1711
(NS'Explicit'
p1712
tp1713
F0.9333333333333333
s(g1712
Ntp1714
F0.06666666666666667
s(NS'Expansion.Conjunction.2'
p1715
tp1716
F0.9333333333333333
s(S'Expansion.Conjunction.1'
p1717
Ntp1718
F0.06666666666666667
ssS'doc_110.pair-01.perm.txt.pipe'
p1719
(dp1720
(NS'Temporal.Synchrony.1'
p1721
tp1722
F0.2727272727272727
s(S'Expansion.Conjunction.1'
p1723
Ntp1724
F0.045454545454545456
s(NS'Explicit'
p1725
tp1726
F0.9166666666666666
s(S'Explicit'
p1727
Ntp1728
F0.08333333333333333
s(NS'Temporal.Synchrony.2'
p1729
tp1730
F0.22727272727272727
s(NS'Expansion.Conjunction.2'
p1731
tp1732
F0.45454545454545453
ssS'doc_150.pair-00.txt.pipe'
p1733
(dp1734
sS'doc_3.pair-00.txt.pipe'
p1735
(dp1736
(S'Expansion.Conjunction.1'
p1737
S'Expansion.Conjunction.2'
p1738
tp1739
F0.02631578947368421
s(S'Comparison.Contrast.2'
p1740
g1738
tp1741
F0.013157894736842105
s(S'Comparison.Contrast.2'
p1742
Ntp1743
F0.13157894736842105
s(S'Expansion.Conjunction.1'
p1744
Ntp1745
F0.13157894736842105
s(S'Comparison.Contrast.2'
p1746
S'Expansion.Conjunction.1'
p1747
tp1748
F0.013157894736842105
s(S'Explicit'
p1749
Ntp1750
F0.22916666666666666
s(g1749
S'Explicit'
p1751
tp1752
F0.0625
s(Ng1746
tp1753
F0.15789473684210525
s(NNtp1754
F0.22916666666666666
s(NS'Expansion.Conjunction.2'
p1755
tp1756
F0.13157894736842105
s(S'Comparison.Contrast.1'
p1757
Ntp1758
F0.013157894736842105
s(Ng1751
tp1759
F0.4791666666666667
s(NS'Expansion.Conjunction.1'
p1760
tp1761
F0.2236842105263158
s(g1760
g1747
tp1762
F0.013157894736842105
ssS'doc_148.pair-01.txt.pipe'
p1763
(dp1764
sS'doc_176.pair-01.txt.pipe'
p1765
(dp1766
sS'doc_26.pair-00.perm.txt.pipe'
p1767
(dp1768
sS'doc_55.pair-00.perm.txt.pipe'
p1769
(dp1770
sS'doc_27.pair-01.txt.pipe'
p1771
(dp1772
(NS'Explicit'
p1773
tp1774
F0.9
s(g1773
Ntp1775
F0.1
s(NS'Expansion.Conjunction.2'
p1776
tp1777
F0.9
s(S'Expansion.Conjunction.1'
p1778
Ntp1779
F0.1
ssS'doc_163.pair-00.perm.txt.pipe'
p1780
(dp1781
sS'doc_88.pair-01.txt.pipe'
p1782
(dp1783
sS'doc_2.pair-00.perm.txt.pipe'
p1784
(dp1785
sS'doc_14.pair-00.perm.txt.pipe'
p1786
(dp1787
(NS'Explicit'
p1788
tp1789
F0.6111111111111112
s(g1788
Ntp1790
F0.3888888888888889
s(NS'Expansion.Conjunction.2'
p1791
tp1792
F0.6111111111111112
s(S'Expansion.Conjunction.1'
p1793
Ntp1794
F0.3888888888888889
ssS'doc_95.pair-01.txt.pipe'
p1795
(dp1796
(NS'Explicit'
p1797
tp1798
F1.0
s(NS'Contingency.Cause.1'
p1799
tp1800
F0.24
s(NS'Expansion.Conjunction.2'
p1801
tp1802
F0.48
s(NS'Contingency.Cause.2'
p1803
tp1804
F0.28
ssS'doc_70.pair-00.perm.txt.pipe'
p1805
(dp1806
sS'doc_97.pair-00.perm.txt.pipe'
p1807
(dp1808
(NS'Explicit'
p1809
tp1810
F0.5555555555555556
s(g1809
Ntp1811
F0.4444444444444444
s(NS'Expansion.Conjunction.2'
p1812
tp1813
F0.5555555555555556
s(S'Expansion.Conjunction.1'
p1814
Ntp1815
F0.4444444444444444
ssS'doc_109.pair-00.txt.pipe'
p1816
(dp1817
sS'doc_60.pair-01.perm.txt.pipe'
p1818
(dp1819
(S'Expansion.Conjunction.2'
p1820
Ntp1821
F0.30434782608695654
s(NS'Explicit'
p1822
tp1823
F0.4782608695652174
s(NS'Temporal.Asynchronous.2'
p1824
tp1825
F0.10869565217391304
s(S'Expansion.Conjunction.1'
p1826
Ntp1827
F0.021739130434782608
s(NS'Temporal.Asynchronous.1'
p1828
tp1829
F0.06521739130434782
s(g1822
Ntp1830
F0.32608695652173914
s(NNtp1831
F0.1956521739130435
s(Ng1820
tp1832
F0.30434782608695654
ssS'doc_94.pair-01.perm.txt.pipe'
p1833
(dp1834
sS'doc_18.pair-01.perm.txt.pipe'
p1835
(dp1836
sS'doc_199.pair-00.txt.pipe'
p1837
(dp1838
sS'doc_168.pair-00.txt.pipe'
p1839
(dp1840
(S'Expansion.Conjunction.2'
p1841
Ntp1842
F0.2619047619047619
s(S'Expansion.Conjunction.2'
p1843
S'Temporal.Synchrony.2'
p1844
tp1845
F0.023809523809523808
s(S'Expansion.Conjunction.1'
p1846
Ntp1847
F0.023809523809523808
s(NS'Explicit'
p1848
tp1849
F0.47619047619047616
s(NS'Temporal.Synchrony.1'
p1850
tp1851
F0.19047619047619047
s(g1848
Ntp1852
F0.2857142857142857
s(g1848
S'Explicit'
p1853
tp1854
F0.023809523809523808
s(NNtp1855
F0.21428571428571427
s(Ng1841
tp1856
F0.2857142857142857
ssS'doc_169.pair-00.txt.pipe'
p1857
(dp1858
sS'doc_171.pair-01.perm.txt.pipe'
p1859
(dp1860
sS'doc_3.pair-00.perm.txt.pipe'
p1861
(dp1862
(S'Expansion.Conjunction.1'
p1863
Ntp1864
F0.07894736842105263
s(NS'Explicit'
p1865
tp1866
F0.4791666666666667
s(S'Expansion.Conjunction.2'
p1867
S'Comparison.Contrast.2'
p1868
tp1869
F0.039473684210526314
s(g1865
Ntp1870
F0.22916666666666666
s(g1865
S'Explicit'
p1871
tp1872
F0.0625
s(NS'Comparison.Contrast.2'
p1873
tp1874
F0.13157894736842105
s(NNtp1875
F0.22916666666666666
s(Ng1867
tp1876
F0.15789473684210525
s(S'Expansion.Conjunction.2'
p1877
Ntp1878
F0.11842105263157894
s(S'Comparison.Contrast.1'
p1879
Ntp1880
F0.13157894736842105
s(Ng1863
tp1881
F0.06578947368421052
s(Ng1879
tp1882
F0.13157894736842105
ssS'doc_9.pair-01.txt.pipe'
p1883
(dp1884
sS'doc_75.pair-00.perm.txt.pipe'
p1885
(dp1886
sS'doc_141.pair-00.perm.txt.pipe'
p1887
(dp1888
sS'doc_176.pair-01.perm.txt.pipe'
p1889
(dp1890
sS'doc_36.pair-01.txt.pipe'
p1891
(dp1892
(S'Contingency.Cause.1'
p1893
Ntp1894
F0.45454545454545453
s(NS'Implicit'
p1895
tp1896
F0.5454545454545454
s(g1895
Ntp1897
F0.45454545454545453
s(NS'Contingency.Cause.2'
p1898
tp1899
F0.5454545454545454
ssS'doc_98.pair-00.perm.txt.pipe'
p1900
(dp1901
sS'doc_42.pair-01.perm.txt.pipe'
p1902
(dp1903
(S'Temporal.Synchrony.2'
p1904
Ntp1905
F0.3076923076923077
s(NS'Explicit'
p1906
tp1907
F0.5384615384615384
s(S'Explicit'
p1908
Ntp1909
F0.38461538461538464
s(g1908
g1906
tp1910
F0.07692307692307693
s(NS'Expansion.Conjunction.2'
p1911
tp1912
F0.38461538461538464
s(S'Temporal.Synchrony.1'
p1913
S'Expansion.Conjunction.1'
p1914
tp1915
F0.07692307692307693
s(NS'Expansion.Conjunction.1'
p1916
tp1917
F0.15384615384615385
s(S'Temporal.Synchrony.1'
p1918
Ntp1919
F0.07692307692307693
ssS'doc_61.pair-00.txt.pipe'
p1920
(dp1921
sS'doc_16.pair-00.txt.pipe'
p1922
(dp1923
sS'doc_177.pair-00.txt.pipe'
p1924
(dp1925
(S'Expansion.Conjunction.2'
p1926
Ntp1927
F0.08333333333333333
s(S'Comparison.Contrast.1'
p1928
Ntp1929
F0.1
s(S'Expansion.Conjunction.1'
p1930
Ntp1931
F0.016666666666666666
s(NS'Explicit'
p1932
tp1933
F0.48
s(Ng1928
tp1934
F0.1
s(g1932
Ntp1935
F0.14
s(NS'Comparison.Contrast.2'
p1936
tp1937
F0.3
s(NNtp1938
F0.38
s(Ng1926
tp1939
F0.08333333333333333
ssS'doc_175.pair-01.perm.txt.pipe'
p1940
(dp1941
sS'doc_64.pair-01.txt.pipe'
p1942
(dp1943
sS'doc_36.pair-00.perm.txt.pipe'
p1944
(dp1945
(NS'Explicit'
p1946
tp1947
F0.8571428571428571
s(S'Comparison.Contrast.1'
p1948
Ntp1949
F0.14285714285714285
s(g1946
Ntp1950
F0.14285714285714285
s(NS'Comparison.Contrast.2'
p1951
tp1952
F0.8571428571428571
ssS'doc_122.pair-01.perm.txt.pipe'
p1953
(dp1954
sS'doc_162.pair-00.txt.pipe'
p1955
(dp1956
sS'doc_126.pair-00.perm.txt.pipe'
p1957
(dp1958
sS'doc_191.pair-00.perm.txt.pipe'
p1959
(dp1960
sS'doc_151.pair-01.txt.pipe'
p1961
(dp1962
sS'doc_76.pair-00.txt.pipe'
p1963
(dp1964
sS'doc_31.pair-01.txt.pipe'
p1965
(dp1966
sS'doc_143.pair-00.txt.pipe'
p1967
(dp1968
sS'doc_116.pair-00.perm.txt.pipe'
p1969
(dp1970
(NS'Explicit'
p1971
tp1972
F0.9166666666666666
s(S'Temporal.Asynchronous.1'
p1973
Ntp1974
F0.08333333333333333
s(NS'Temporal.Asynchronous.2'
p1975
tp1976
F0.9166666666666666
s(g1971
Ntp1977
F0.08333333333333333
ssS'doc_192.pair-01.perm.txt.pipe'
p1978
(dp1979
sS'doc_174.pair-00.txt.pipe'
p1980
(dp1981
sS'doc_51.pair-01.perm.txt.pipe'
p1982
(dp1983
sS'doc_81.pair-01.txt.pipe'
p1984
(dp1985
sS'doc_113.pair-01.perm.txt.pipe'
p1986
(dp1987
sS'doc_66.pair-00.perm.txt.pipe'
p1988
(dp1989
sS'doc_178.pair-00.perm.txt.pipe'
p1990
(dp1991
sS'doc_173.pair-01.txt.pipe'
p1992
(dp1993
sS'doc_43.pair-01.perm.txt.pipe'
p1994
(dp1995
(S'Comparison.Concession.1'
p1996
Ntp1997
F0.4444444444444444
s(S'Expansion.Conjunction.1'
p1998
Ntp1999
F0.07407407407407407
s(NS'Explicit'
p2000
tp2001
F0.4090909090909091
s(g2000
Ntp2002
F0.5454545454545454
s(S'Explicit'
p2003
g2000
tp2004
F0.045454545454545456
s(S'Expansion.Conjunction.2'
p2005
Ntp2006
F0.1111111111111111
s(S'Expansion.Conjunction.2'
p2007
S'Comparison.Concession.2'
p2008
tp2009
F0.037037037037037035
s(NS'Comparison.Concession.2'
p2010
tp2011
F0.3333333333333333
ssS'doc_90.pair-01.perm.txt.pipe'
p2012
(dp2013
sS'doc_197.pair-00.txt.pipe'
p2014
(dp2015
sS'doc_122.pair-00.txt.pipe'
p2016
(dp2017
(S'Contingency.Cause.1'
p2018
Ntp2019
F0.18333333333333332
s(NS'Implicit'
p2020
tp2021
F0.2833333333333333
s(g2020
Ntp2022
F0.18333333333333332
s(S'Comparison.Contrast.2'
p2023
Ntp2024
F0.18333333333333332
s(NS'Contingency.Cause.2'
p2025
tp2026
F0.1
s(NS'Explicit'
p2027
tp2028
F0.2
s(g2027
Ntp2029
F0.2
s(Ng2023
tp2030
F0.2
s(NNtp2031
F0.11666666666666667
s(S'Comparison.Contrast.1'
p2032
Ntp2033
F0.016666666666666666
s(S'Comparison.Contrast.2'
p2034
S'Contingency.Cause.2'
p2035
tp2036
F0.016666666666666666
s(g2027
g2020
tp2037
F0.016666666666666666
s(Ng2018
tp2038
F0.18333333333333332
ssS'doc_26.pair-01.txt.pipe'
p2039
(dp2040
sS'doc_71.pair-00.perm.txt.pipe'
p2041
(dp2042
(S'Expansion.Conjunction.1'
p2043
Ntp2044
F0.015625
s(NS'Explicit'
p2045
tp2046
F0.484375
s(g2045
Ntp2047
F0.15625
s(NNtp2048
F0.359375
s(NS'Expansion.Conjunction.2'
p2049
tp2050
F0.28125
s(g2049
Ntp2051
F0.140625
s(NS'Expansion.Conjunction.1'
p2052
tp2053
F0.203125
ssS'doc_127.pair-01.txt.pipe'
p2054
(dp2055
sS'doc_50.pair-01.txt.pipe'
p2056
(dp2057
sS'doc_141.pair-00.txt.pipe'
p2058
(dp2059
sS'doc_38.pair-00.perm.txt.pipe'
p2060
(dp2061
(S'Comparison.Contrast.2'
p2062
S'Expansion.Conjunction.2'
p2063
tp2064
F0.018518518518518517
s(S'Comparison.Contrast.2'
p2065
Ntp2066
F0.09259259259259259
s(S'Expansion.Conjunction.1'
p2067
Ntp2068
F0.10185185185185185
s(NS'Explicit'
p2069
tp2070
F0.5
s(NS'Comparison.Contrast.1'
p2071
tp2072
F0.10185185185185185
s(g2069
Ntp2073
F0.21153846153846154
s(S'Explicit'
p2074
g2069
tp2075
F0.038461538461538464
s(NS'Comparison.Contrast.2'
p2076
tp2077
F0.23148148148148148
s(NNtp2078
F0.25
s(NS'Expansion.Conjunction.2'
p2079
tp2080
F0.1111111111111111
s(g2071
Ntp2081
F0.10185185185185185
s(g2062
S'Comparison.Contrast.2'
p2082
tp2083
F0.018518518518518517
s(Ng2067
tp2084
F0.10185185185185185
ssS'doc_50.pair-00.perm.txt.pipe'
p2085
(dp2086
sS'doc_200.pair-01.txt.pipe'
p2087
(dp2088
(S'Expansion.Conjunction.2'
p2089
Ntp2090
F0.13333333333333333
s(S'Explicit'
p2091
S'Explicit'
p2092
tp2093
F0.07692307692307693
s(S'Expansion.Conjunction.2'
p2094
S'Expansion.Conjunction.2'
p2095
tp2096
F0.06666666666666667
s(Ng2092
tp2097
F0.5384615384615384
s(g2091
Ntp2098
F0.38461538461538464
s(S'Expansion.Conjunction.1'
p2099
Ntp2100
F0.3333333333333333
s(NS'Expansion.Conjunction.2'
p2101
tp2102
F0.4666666666666667
ssS'doc_6.pair-00.txt.pipe'
p2103
(dp2104
sS'doc_87.pair-00.perm.txt.pipe'
p2105
(dp2106
sS'doc_43.pair-00.perm.txt.pipe'
p2107
(dp2108
sS'doc_102.pair-00.perm.txt.pipe'
p2109
(dp2110
sS'doc_120.pair-01.perm.txt.pipe'
p2111
(dp2112
sS'doc_190.pair-01.txt.pipe'
p2113
(dp2114
sS'doc_1.pair-01.perm.txt.pipe'
p2115
(dp2116
(NS'Temporal.Asynchronous.2'
p2117
tp2118
F0.47058823529411764
s(S'Expansion.Conjunction.1'
p2119
Ntp2120
F0.029411764705882353
s(NS'Explicit'
p2121
tp2122
F0.9444444444444444
s(S'Temporal.Asynchronous.1'
p2123
Ntp2124
F0.029411764705882353
s(g2121
Ntp2125
F0.05555555555555555
s(NS'Expansion.Conjunction.2'
p2126
tp2127
F0.47058823529411764
ssS'doc_10.pair-00.perm.txt.pipe'
p2128
(dp2129
sS'doc_141.pair-01.txt.pipe'
p2130
(dp2131
sS'doc_77.pair-00.perm.txt.pipe'
p2132
(dp2133
(S'Expansion.Conjunction.1'
p2134
Ntp2135
F0.018518518518518517
s(NS'Explicit'
p2136
tp2137
F0.4782608695652174
s(NS'Comparison.Contrast.1'
p2138
tp2139
F0.12962962962962962
s(S'Explicit'
p2140
Ntp2141
F0.10869565217391304
s(NS'Comparison.Contrast.2'
p2142
tp2143
F0.18518518518518517
s(NNtp2144
F0.41304347826086957
s(NS'Expansion.Conjunction.2'
p2145
tp2146
F0.07407407407407407
s(g2145
Ntp2147
F0.07407407407407407
s(NS'Temporal.Synchrony.1'
p2148
tp2149
F0.05555555555555555
s(NS'Temporal.Synchrony.2'
p2150
tp2151
F0.1111111111111111
ssS'doc_19.pair-01.perm.txt.pipe'
p2152
(dp2153
sS'doc_188.pair-01.txt.pipe'
p2154
(dp2155
(S'Expansion.Conjunction.2'
p2156
Ntp2157
F0.13513513513513514
s(NS'Expansion.Conjunction.1'
p2158
tp2159
F0.14864864864864866
s(S'Explicit'
p2160
S'Explicit'
p2161
tp2162
F0.037037037037037035
s(g2158
Ntp2163
F0.16216216216216217
s(Ng2160
tp2164
F0.48148148148148145
s(g2161
Ntp2165
F0.2222222222222222
s(S'Expansion.Conjunction.2'
p2166
S'Expansion.Conjunction.2'
p2167
tp2168
F0.02702702702702703
s(NNtp2169
F0.25925925925925924
s(Ng2166
tp2170
F0.33783783783783783
ssS'doc_126.pair-01.perm.txt.pipe'
p2171
(dp2172
sS'doc_51.pair-00.txt.pipe'
p2173
(dp2174
sS'doc_82.pair-00.txt.pipe'
p2175
(dp2176
sS'doc_75.pair-01.txt.pipe'
p2177
(dp2178
(NS'Explicit'
p2179
tp2180
F0.5263157894736842
s(S'Explicit'
p2181
Ntp2182
F0.42105263157894735
s(g2181
g2179
tp2183
F0.05263157894736842
s(NS'Comparison.Contrast.2'
p2184
tp2185
F0.37037037037037035
s(NS'Expansion.Conjunction.2'
p2186
tp2187
F0.2222222222222222
s(S'Comparison.Contrast.1'
p2188
Ntp2189
F0.2962962962962963
s(S'Comparison.Contrast.1'
p2190
S'Expansion.Conjunction.1'
p2191
tp2192
F0.037037037037037035
s(NS'Expansion.Conjunction.1'
p2193
tp2194
F0.07407407407407407
ssS'doc_191.pair-00.txt.pipe'
p2195
(dp2196
sS'doc_102.pair-00.txt.pipe'
p2197
(dp2198
sS'doc_134.pair-01.txt.pipe'
p2199
(dp2200
sS'doc_149.pair-00.txt.pipe'
p2201
(dp2202
sS'doc_189.pair-00.txt.pipe'
p2203
(dp2204
(NS'Explicit'
p2205
tp2206
F0.8
s(g2205
Ntp2207
F0.2
s(NS'Expansion.Conjunction.2'
p2208
tp2209
F0.8
s(S'Expansion.Conjunction.1'
p2210
Ntp2211
F0.2
ssS'doc_34.pair-00.txt.pipe'
p2212
(dp2213
sS'doc_104.pair-00.perm.txt.pipe'
p2214
(dp2215
(NS'Explicit'
p2216
tp2217
F0.8333333333333334
s(g2216
Ntp2218
F0.16666666666666666
s(NS'Expansion.Conjunction.2'
p2219
tp2220
F0.8333333333333334
s(S'Expansion.Conjunction.1'
p2221
Ntp2222
F0.16666666666666666
ssS'doc_187.pair-00.txt.pipe'
p2223
(dp2224
sS'doc_5.pair-01.perm.txt.pipe'
p2225
(dp2226
(NS'Explicit'
p2227
tp2228
F0.6923076923076923
s(S'Comparison.Contrast.1'
p2229
Ntp2230
F0.3076923076923077
s(g2227
Ntp2231
F0.3076923076923077
s(NS'Comparison.Contrast.2'
p2232
tp2233
F0.6923076923076923
ssS'doc_99.pair-00.perm.txt.pipe'
p2234
(dp2235
(NS'Explicit'
p2236
tp2237
F0.5666666666666667
s(g2236
Ntp2238
F0.43333333333333335
s(NS'Expansion.Conjunction.2'
p2239
tp2240
F0.5666666666666667
s(S'Expansion.Conjunction.1'
p2241
Ntp2242
F0.43333333333333335
ssS'doc_97.pair-00.txt.pipe'
p2243
(dp2244
(NS'Explicit'
p2245
tp2246
F0.8333333333333334
s(g2245
Ntp2247
F0.16666666666666666
s(NS'Expansion.Conjunction.2'
p2248
tp2249
F0.8333333333333334
s(S'Expansion.Conjunction.1'
p2250
Ntp2251
F0.16666666666666666
ssS'doc_174.pair-01.perm.txt.pipe'
p2252
(dp2253
sS'doc_22.pair-00.txt.pipe'
p2254
(dp2255
(S'Contingency.Cause.1'
p2256
Ntp2257
F0.16666666666666666
s(S'Explicit'
p2258
S'Explicit'
p2259
tp2260
F0.038461538461538464
s(S'Expansion.Conjunction.1'
p2261
Ntp2262
F0.013888888888888888
s(Ng2258
tp2263
F0.4807692307692308
s(g2258
Ntp2264
F0.25
s(NS'Contingency.Cause.2'
p2265
tp2266
F0.1527777777777778
s(NNtp2267
F0.23076923076923078
s(NS'Expansion.Conjunction.2'
p2268
tp2269
F0.16666666666666666
s(S'Expansion.Conjunction.2'
p2270
Ntp2271
F0.1388888888888889
s(g2268
S'Contingency.Cause.2'
p2272
tp2273
F0.027777777777777776
s(Ng2256
tp2274
F0.16666666666666666
ssS'doc_23.pair-00.txt.pipe'
p2275
(dp2276
sS'doc_152.pair-00.perm.txt.pipe'
p2277
(dp2278
sS'doc_198.pair-00.perm.txt.pipe'
p2279
(dp2280
(NS'Explicit'
p2281
tp2282
F0.6666666666666666
s(g2281
Ntp2283
F0.3333333333333333
s(NS'Temporal.Synchrony.2'
p2284
tp2285
F0.6666666666666666
s(S'Temporal.Synchrony.1'
p2286
Ntp2287
F0.3333333333333333
ssS'doc_164.pair-00.txt.pipe'
p2288
(dp2289
(NS'Explicit'
p2290
tp2291
F0.96
s(g2290
Ntp2292
F0.04
s(NS'Expansion.Conjunction.2'
p2293
tp2294
F0.96
s(S'Expansion.Conjunction.1'
p2295
Ntp2296
F0.04
ssS'doc_50.pair-00.txt.pipe'
p2297
(dp2298
sS'doc_60.pair-00.txt.pipe'
p2299
(dp2300
sS'doc_63.pair-01.perm.txt.pipe'
p2301
(dp2302
sS'doc_99.pair-01.txt.pipe'
p2303
(dp2304
sS'doc_147.pair-00.txt.pipe'
p2305
(dp2306
sS'doc_64.pair-00.txt.pipe'
p2307
(dp2308
(S'Contingency.Cause.1'
p2309
Ntp2310
F0.125
s(S'Contingency.Cause.2'
p2311
S'Comparison.Contrast.2'
p2312
tp2313
F0.03571428571428571
s(NS'Explicit'
p2314
tp2315
F0.5813953488372093
s(S'Explicit'
p2316
Ntp2317
F0.37209302325581395
s(g2316
g2314
tp2318
F0.046511627906976744
s(NS'Comparison.Contrast.2'
p2319
tp2320
F0.44642857142857145
s(S'Comparison.Contrast.1'
p2321
Ntp2322
F0.2857142857142857
s(S'Contingency.Cause.2'
p2323
Ntp2324
F0.10714285714285714
ssS'doc_7.pair-00.perm.txt.pipe'
p2325
(dp2326
sS'doc_80.pair-00.perm.txt.pipe'
p2327
(dp2328
sS'doc_83.pair-00.txt.pipe'
p2329
(dp2330
sS'doc_199.pair-01.txt.pipe'
p2331
(dp2332
sS'doc_8.pair-00.txt.pipe'
p2333
(dp2334
sS'doc_177.pair-01.perm.txt.pipe'
p2335
(dp2336
sS'doc_107.pair-01.perm.txt.pipe'
p2337
(dp2338
sS'doc_180.pair-01.txt.pipe'
p2339
(dp2340
(NS'Temporal.Synchrony.1'
p2341
tp2342
F0.11538461538461539
s(S'Temporal.Synchrony.2'
p2343
Ntp2344
F0.11538461538461539
s(NS'Expansion.Conjunction.1'
p2345
tp2346
F0.23076923076923078
s(NS'Explicit'
p2347
tp2348
F0.5789473684210527
s(S'Explicit'
p2349
Ntp2350
F0.42105263157894735
s(NS'Temporal.Synchrony.2'
p2351
tp2352
F0.15384615384615385
s(S'Temporal.Synchrony.1'
p2353
Ntp2354
F0.19230769230769232
s(NS'Expansion.Conjunction.2'
p2355
tp2356
F0.19230769230769232
ssS'doc_46.pair-01.perm.txt.pipe'
p2357
(dp2358
(S'Expansion.Conjunction.2'
p2359
Ntp2360
F0.3333333333333333
s(S'Explicit'
p2361
S'Explicit'
p2362
tp2363
F0.09375
s(S'Expansion.Conjunction.2'
p2364
S'Expansion.Conjunction.2'
p2365
tp2366
F0.0625
s(Ng2362
tp2367
F0.375
s(g2362
Ntp2368
F0.53125
s(S'Expansion.Conjunction.1'
p2369
Ntp2370
F0.3541666666666667
s(NS'Expansion.Conjunction.2'
p2371
tp2372
F0.25
ssS'doc_41.pair-00.perm.txt.pipe'
p2373
(dp2374
sS'doc_51.pair-00.perm.txt.pipe'
p2375
(dp2376
sS'doc_120.pair-00.perm.txt.pipe'
p2377
(dp2378
sS'doc_80.pair-01.perm.txt.pipe'
p2379
(dp2380
sS'doc_68.pair-01.txt.pipe'
p2381
(dp2382
(S'Contingency.Cause.1'
p2383
Ntp2384
F0.2
s(S'Contingency.Cause.2'
p2385
S'Comparison.Contrast.2'
p2386
tp2387
F0.04
s(NS'Explicit'
p2388
tp2389
F0.43333333333333335
s(g2388
Ntp2390
F0.5
s(S'Explicit'
p2391
g2388
tp2392
F0.06666666666666667
s(NS'Comparison.Contrast.2'
p2393
tp2394
F0.26
s(S'Comparison.Contrast.1'
p2395
Ntp2396
F0.3
s(S'Contingency.Cause.2'
p2397
Ntp2398
F0.2
ssS'doc_184.pair-00.perm.txt.pipe'
p2399
(dp2400
sS'doc_56.pair-01.txt.pipe'
p2401
(dp2402
(S'Contingency.Condition.2'
p2403
Ntp2404
F0.06060606060606061
s(NS'.2'
p2405
tp2406
F0.30303030303030304
s(S'EntRel'
p2407
Ntp2408
F0.21212121212121213
s(S'Explicit'
p2409
Ntp2410
F0.21212121212121213
s(S'Contingency.Condition.2'
p2411
S'.2'
p2412
tp2413
F0.2727272727272727
s(S'.1'
p2414
Ntp2415
F0.21212121212121213
s(Ng2407
tp2416
F0.30303030303030304
s(g2409
g2407
tp2417
F0.2727272727272727
s(S'Contingency.Condition.1'
p2418
Ntp2419
F0.15151515151515152
ssS'doc_156.pair-01.txt.pipe'
p2420
(dp2421
sS'doc_47.pair-00.txt.pipe'
p2422
(dp2423
sS'doc_139.pair-01.perm.txt.pipe'
p2424
(dp2425
sS'doc_194.pair-00.txt.pipe'
p2426
(dp2427
(NS'Explicit'
p2428
tp2429
F0.9285714285714286
s(S'Comparison.Contrast.1'
p2430
Ntp2431
F0.07142857142857142
s(g2428
Ntp2432
F0.07142857142857142
s(NS'Comparison.Contrast.2'
p2433
tp2434
F0.9285714285714286
ssS'doc_126.pair-01.txt.pipe'
p2435
(dp2436
sS'doc_180.pair-00.txt.pipe'
p2437
(dp2438
(S'Expansion.Conjunction.2'
p2439
Ntp2440
F0.35714285714285715
s(S'Expansion.Conjunction.1'
p2441
Ntp2442
F0.14285714285714285
s(NS'Explicit'
p2443
tp2444
F0.5
s(NS'Comparison.Contrast.1'
p2445
tp2446
F0.32142857142857145
s(S'Explicit'
p2447
Ntp2448
F0.5
s(NS'Comparison.Contrast.2'
p2449
tp2450
F0.17857142857142858
ssS'doc_73.pair-01.perm.txt.pipe'
p2451
(dp2452
(NS'Explicit'
p2453
tp2454
F0.4230769230769231
s(S'Comparison.Contrast.1'
p2455
Ntp2456
F0.5769230769230769
s(g2453
Ntp2457
F0.5769230769230769
s(NS'Comparison.Contrast.2'
p2458
tp2459
F0.4230769230769231
ssS'doc_22.pair-01.txt.pipe'
p2460
(dp2461
sS'doc_157.pair-00.txt.pipe'
p2462
(dp2463
sS'doc_32.pair-01.txt.pipe'
p2464
(dp2465
sS'doc_59.pair-01.txt.pipe'
p2466
(dp2467
sS'doc_61.pair-01.perm.txt.pipe'
p2468
(dp2469
sS'doc_96.pair-01.txt.pipe'
p2470
(dp2471
(NS'Explicit'
p2472
tp2473
F0.5
s(g2472
Ntp2474
F0.5
s(NS'Expansion.Conjunction.2'
p2475
tp2476
F0.5
s(S'Expansion.Conjunction.1'
p2477
Ntp2478
F0.5
ssS'doc_23.pair-00.perm.txt.pipe'
p2479
(dp2480
sS'doc_4.pair-00.txt.pipe'
p2481
(dp2482
sS'doc_185.pair-01.txt.pipe'
p2483
(dp2484
(S'Temporal.Synchrony.1'
p2485
S'Comparison.Contrast.1'
p2486
tp2487
F0.08
s(S'Temporal.Synchrony.2'
p2488
Ntp2489
F0.2
s(S'Temporal.Synchrony.1'
p2490
Ntp2491
F0.12
s(NS'Explicit'
p2492
tp2493
F0.56
s(NS'Comparison.Contrast.1'
p2494
tp2495
F0.32
s(S'Explicit'
p2496
Ntp2497
F0.32
s(g2496
g2492
tp2498
F0.12
s(NS'Comparison.Contrast.2'
p2499
tp2500
F0.24
s(S'Temporal.Synchrony.2'
p2501
S'Comparison.Contrast.1'
p2502
tp2503
F0.04
ssS'doc_162.pair-00.perm.txt.pipe'
p2504
(dp2505
sS'doc_125.pair-01.txt.pipe'
p2506
(dp2507
sS'doc_128.pair-01.txt.pipe'
p2508
(dp2509
sS'doc_139.pair-00.txt.pipe'
p2510
(dp2511
sS'doc_67.pair-00.perm.txt.pipe'
p2512
(dp2513
sS'doc_108.pair-00.txt.pipe'
p2514
(dp2515
sS'doc_152.pair-00.txt.pipe'
p2516
(dp2517
sS'doc_134.pair-00.perm.txt.pipe'
p2518
(dp2519
sS'doc_173.pair-01.perm.txt.pipe'
p2520
(dp2521
sS'doc_29.pair-00.perm.txt.pipe'
p2522
(dp2523
(NS'Explicit'
p2524
tp2525
F0.8888888888888888
s(S'Comparison.Contrast.1'
p2526
Ntp2527
F0.1111111111111111
s(g2524
Ntp2528
F0.1111111111111111
s(NS'Comparison.Contrast.2'
p2529
tp2530
F0.8888888888888888
ssS'doc_123.pair-01.txt.pipe'
p2531
(dp2532
sS'doc_145.pair-00.txt.pipe'
p2533
(dp2534
sS'doc_85.pair-00.txt.pipe'
p2535
(dp2536
(NS'Explicit'
p2537
tp2538
F0.9411764705882353
s(g2537
Ntp2539
F0.058823529411764705
s(NS'Expansion.Conjunction.2'
p2540
tp2541
F0.9411764705882353
s(S'Expansion.Conjunction.1'
p2542
Ntp2543
F0.058823529411764705
ssS'doc_28.pair-00.perm.txt.pipe'
p2544
(dp2545
(NS'Explicit'
p2546
tp2547
F0.7560975609756098
s(g2546
Ntp2548
F0.24390243902439024
s(NS'Expansion.Conjunction.2'
p2549
tp2550
F0.7560975609756098
s(S'Expansion.Conjunction.1'
p2551
Ntp2552
F0.24390243902439024
ssS'doc_186.pair-01.txt.pipe'
p2553
(dp2554
sS'doc_4.pair-00.perm.txt.pipe'
p2555
(dp2556
sS'doc_91.pair-00.perm.txt.pipe'
p2557
(dp2558
sS'doc_121.pair-00.txt.pipe'
p2559
(dp2560
sS'doc_48.pair-01.perm.txt.pipe'
p2561
(dp2562
sS'doc_65.pair-00.txt.pipe'
p2563
(dp2564
sS'doc_183.pair-01.perm.txt.pipe'
p2565
(dp2566
(S'Comparison.Contrast.1'
p2567
Ntp2568
F0.20588235294117646
s(S'Comparison.Contrast.2'
p2569
S'Comparison.Contrast.2'
p2570
tp2571
F0.11764705882352941
s(S'Temporal.Asynchronous.2'
p2572
g2570
tp2573
F0.08823529411764706
s(S'Temporal.Asynchronous.2'
p2574
Ntp2575
F0.058823529411764705
s(S'Comparison.Contrast.2'
p2576
Ntp2577
F0.08823529411764706
s(NS'Explicit'
p2578
tp2579
F0.56
s(S'Temporal.Asynchronous.1'
p2580
Ntp2581
F0.029411764705882353
s(S'Explicit'
p2582
g2578
tp2583
F0.16
s(NS'Comparison.Contrast.2'
p2584
tp2585
F0.4117647058823529
s(g2578
Ntp2586
F0.28
ssS'doc_130.pair-00.txt.pipe'
p2587
(dp2588
(S'Comparison.Contrast.2'
p2589
S'Expansion.Conjunction.2'
p2590
tp2591
F0.02631578947368421
s(S'Comparison.Contrast.2'
p2592
Ntp2593
F0.15789473684210525
s(NS'Explicit'
p2594
tp2595
F0.4868421052631579
s(S'Explicit'
p2596
Ntp2597
F0.17105263157894737
s(g2596
g2594
tp2598
F0.02631578947368421
s(Ng2592
tp2599
F0.18421052631578946
s(NNtp2600
F0.3157894736842105
s(NS'Expansion.Conjunction.2'
p2601
tp2602
F0.18421052631578946
s(S'Comparison.Contrast.1'
p2603
Ntp2604
F0.013157894736842105
s(NS'Expansion.Conjunction.1'
p2605
tp2606
F0.11842105263157894
ssS'doc_19.pair-01.txt.pipe'
p2607
(dp2608
sS'doc_182.pair-01.perm.txt.pipe'
p2609
(dp2610
(NS'Explicit'
p2611
tp2612
F0.7222222222222222
s(S'Comparison.Contrast.1'
p2613
Ntp2614
F0.2777777777777778
s(g2611
Ntp2615
F0.2777777777777778
s(NS'Comparison.Contrast.2'
p2616
tp2617
F0.7222222222222222
ssS'doc_168.pair-01.txt.pipe'
p2618
(dp2619
(NS'Explicit'
p2620
tp2621
F0.8421052631578947
s(g2620
Ntp2622
F0.15789473684210525
s(NS'Expansion.Conjunction.2'
p2623
tp2624
F0.8421052631578947
s(S'Expansion.Conjunction.1'
p2625
Ntp2626
F0.15789473684210525
ssS'doc_135.pair-00.txt.pipe'
p2627
(dp2628
sS'doc_129.pair-01.txt.pipe'
p2629
(dp2630
sS'doc_180.pair-01.perm.txt.pipe'
p2631
(dp2632
(S'Expansion.Conjunction.2'
p2633
Ntp2634
F0.19230769230769232
s(NS'Temporal.Synchrony.1'
p2635
tp2636
F0.19230769230769232
s(S'Temporal.Synchrony.2'
p2637
Ntp2638
F0.15384615384615385
s(S'Expansion.Conjunction.1'
p2639
Ntp2640
F0.23076923076923078
s(NS'Explicit'
p2641
tp2642
F0.42105263157894735
s(S'Explicit'
p2643
Ntp2644
F0.5789473684210527
s(NS'Temporal.Synchrony.2'
p2645
tp2646
F0.11538461538461539
s(S'Temporal.Synchrony.1'
p2647
Ntp2648
F0.11538461538461539
ssS'doc_107.pair-00.txt.pipe'
p2649
(dp2650
sS'doc_82.pair-01.perm.txt.pipe'
p2651
(dp2652
sS'doc_21.pair-00.txt.pipe'
p2653
(dp2654
sS'doc_104.pair-01.perm.txt.pipe'
p2655
(dp2656
(NS'Explicit'
p2657
tp2658
F0.875
s(g2657
Ntp2659
F0.125
s(NS'Expansion.Conjunction.2'
p2660
tp2661
F0.875
s(S'Expansion.Conjunction.1'
p2662
Ntp2663
F0.125
ssS'doc_39.pair-00.perm.txt.pipe'
p2664
(dp2665
sS'doc_127.pair-00.txt.pipe'
p2666
(dp2667
sS'doc_48.pair-00.perm.txt.pipe'
p2668
(dp2669
sS'doc_163.pair-01.txt.pipe'
p2670
(dp2671
sS'doc_83.pair-01.txt.pipe'
p2672
(dp2673
sS'doc_159.pair-00.txt.pipe'
p2674
(dp2675
(NS'Explicit'
p2676
tp2677
F0.5
s(S'Comparison.Contrast.1'
p2678
Ntp2679
F0.5
s(g2676
Ntp2680
F0.5
s(NS'Comparison.Contrast.2'
p2681
tp2682
F0.5
ssS'doc_172.pair-00.txt.pipe'
p2683
(dp2684
sS'doc_87.pair-01.txt.pipe'
p2685
(dp2686
sS'doc_71.pair-01.perm.txt.pipe'
p2687
(dp2688
sS'doc_100.pair-01.perm.txt.pipe'
p2689
(dp2690
sS'doc_96.pair-00.perm.txt.pipe'
p2691
(dp2692
sS'doc_192.pair-01.txt.pipe'
p2693
(dp2694
sS'doc_86.pair-00.txt.pipe'
p2695
(dp2696
(S'Contingency.Condition.2'
p2697
Ntp2698
F0.23529411764705882
s(NS'Explicit'
p2699
tp2700
F0.5882352941176471
s(S'Explicit'
p2701
Ntp2702
F0.35294117647058826
s(g2701
g2699
tp2703
F0.058823529411764705
s(NS'Contingency.Condition.2'
p2704
tp2705
F0.4117647058823529
s(NS'Contingency.Condition.1'
p2706
tp2707
F0.17647058823529413
s(S'Contingency.Condition.1'
p2708
Ntp2709
F0.11764705882352941
s(S'Contingency.Condition.2'
p2710
S'Contingency.Condition.2'
p2711
tp2712
F0.058823529411764705
ssS'doc_30.pair-01.perm.txt.pipe'
p2713
(dp2714
sS'doc_67.pair-00.txt.pipe'
p2715
(dp2716
sS'doc_117.pair-00.txt.pipe'
p2717
(dp2718
sS'doc_55.pair-00.txt.pipe'
p2719
(dp2720
sS'doc_144.pair-00.perm.txt.pipe'
p2721
(dp2722
sS'doc_193.pair-01.perm.txt.pipe'
p2723
(dp2724
sS'doc_177.pair-00.perm.txt.pipe'
p2725
(dp2726
(S'Comparison.Contrast.2'
p2727
S'Expansion.Conjunction.2'
p2728
tp2729
F0.023809523809523808
s(S'Comparison.Contrast.2'
p2730
Ntp2731
F0.21428571428571427
s(S'Expansion.Conjunction.1'
p2732
Ntp2733
F0.21428571428571427
s(NS'Explicit'
p2734
tp2735
F0.4791666666666667
s(g2734
Ntp2736
F0.3958333333333333
s(g2734
S'Explicit'
p2737
tp2738
F0.041666666666666664
s(Ng2727
tp2739
F0.23809523809523808
s(NNtp2740
F0.08333333333333333
s(NS'Expansion.Conjunction.2'
p2741
tp2742
F0.03571428571428571
s(S'Comparison.Contrast.1'
p2743
Ntp2744
F0.011904761904761904
s(Ng2732
tp2745
F0.21428571428571427
ssS'doc_162.pair-01.txt.pipe'
p2746
(dp2747
sS'doc_45.pair-00.perm.txt.pipe'
p2748
(dp2749
sS'doc_14.pair-00.txt.pipe'
p2750
(dp2751
(NS'Explicit'
p2752
tp2753
F0.9
s(g2752
Ntp2754
F0.1
s(NS'Expansion.Conjunction.2'
p2755
tp2756
F0.9
s(S'Expansion.Conjunction.1'
p2757
Ntp2758
F0.1
ssS'doc_95.pair-00.perm.txt.pipe'
p2759
(dp2760
(NS'Explicit'
p2761
tp2762
F0.9565217391304348
s(g2761
Ntp2763
F0.043478260869565216
s(NS'Expansion.Conjunction.2'
p2764
tp2765
F0.9565217391304348
s(S'Expansion.Conjunction.1'
p2766
Ntp2767
F0.043478260869565216
ssS'doc_41.pair-00.txt.pipe'
p2768
(dp2769
sS'doc_113.pair-00.perm.txt.pipe'
p2770
(dp2771
sS'doc_159.pair-01.perm.txt.pipe'
p2772
(dp2773
(S'Contingency.Cause.1'
p2774
Ntp2775
F0.2926829268292683
s(S'Temporal.Synchrony.2'
p2776
Ntp2777
F0.14634146341463414
s(NS'Contingency.Cause.2'
p2778
tp2779
F0.43902439024390244
s(NS'Explicit'
p2780
tp2781
F0.5806451612903226
s(S'Explicit'
p2782
Ntp2783
F0.3870967741935484
s(g2782
g2780
tp2784
F0.03225806451612903
s(S'Temporal.Synchrony.2'
p2785
S'Contingency.Cause.2'
p2786
tp2787
F0.024390243902439025
s(S'Temporal.Synchrony.1'
p2788
Ntp2789
F0.0975609756097561
ssS'doc_193.pair-00.perm.txt.pipe'
p2790
(dp2791
sS'doc_52.pair-01.perm.txt.pipe'
p2792
(dp2793
sS'doc_35.pair-00.txt.pipe'
p2794
(dp2795
(NS'Explicit'
p2796
tp2797
F0.9285714285714286
s(S'Comparison.Contrast.1'
p2798
Ntp2799
F0.07142857142857142
s(g2796
Ntp2800
F0.07142857142857142
s(NS'Comparison.Contrast.2'
p2801
tp2802
F0.9285714285714286
ssS'doc_96.pair-01.perm.txt.pipe'
p2803
(dp2804
(NS'Explicit'
p2805
tp2806
F0.9090909090909091
s(g2805
Ntp2807
F0.09090909090909091
s(NS'Expansion.Conjunction.2'
p2808
tp2809
F0.9090909090909091
s(S'Expansion.Conjunction.1'
p2810
Ntp2811
F0.09090909090909091
ssS'doc_25.pair-00.perm.txt.pipe'
p2812
(dp2813
sS'doc_85.pair-01.perm.txt.pipe'
p2814
(dp2815
(NS'Explicit'
p2816
tp2817
F0.9473684210526315
s(S'Comparison.Contrast.1'
p2818
Ntp2819
F0.05263157894736842
s(g2816
Ntp2820
F0.05263157894736842
s(NS'Comparison.Contrast.2'
p2821
tp2822
F0.9473684210526315
ssS'doc_62.pair-00.txt.pipe'
p2823
(dp2824
(NS'Explicit'
p2825
tp2826
F0.9285714285714286
s(g2825
Ntp2827
F0.07142857142857142
s(NS'Expansion.Conjunction.2'
p2828
tp2829
F0.9285714285714286
s(S'Expansion.Conjunction.1'
p2830
Ntp2831
F0.07142857142857142
ssS'doc_23.pair-01.perm.txt.pipe'
p2832
(dp2833
(NS'Explicit'
p2834
tp2835
F0.631578947368421
s(S'Comparison.Contrast.1'
p2836
Ntp2837
F0.3684210526315789
s(g2834
Ntp2838
F0.3684210526315789
s(NS'Comparison.Contrast.2'
p2839
tp2840
F0.631578947368421
ssS'doc_115.pair-01.txt.pipe'
p2841
(dp2842
sS'doc_101.pair-00.txt.pipe'
p2843
(dp2844
sS'doc_35.pair-01.txt.pipe'
p2845
(dp2846
(S'Comparison.Contrast.1'
p2847
Ntp2848
F0.025
s(NS'Temporal.Synchrony.1'
p2849
tp2850
F0.25
s(NS'Contingency.Condition.2'
p2851
tp2852
F0.1
s(NS'Explicit'
p2853
tp2854
F0.9411764705882353
s(NS'Contingency.Condition.1'
p2855
tp2856
F0.075
s(S'Explicit'
p2857
Ntp2858
F0.058823529411764705
s(NS'Temporal.Synchrony.2'
p2859
tp2860
F0.15
s(NS'Comparison.Contrast.2'
p2861
tp2862
F0.4
ssS'doc_181.pair-00.txt.pipe'
p2863
(dp2864
sS'doc_115.pair-00.txt.pipe'
p2865
(dp2866
sS'doc_82.pair-00.perm.txt.pipe'
p2867
(dp2868
sS'doc_189.pair-01.txt.pipe'
p2869
(dp2870
sS'doc_103.pair-01.txt.pipe'
p2871
(dp2872
sS'doc_28.pair-00.txt.pipe'
p2873
(dp2874
(NS'Explicit'
p2875
tp2876
F0.95
s(g2875
Ntp2877
F0.05
s(NS'Expansion.Conjunction.2'
p2878
tp2879
F0.95
s(S'Expansion.Conjunction.1'
p2880
Ntp2881
F0.05
ssS'doc_58.pair-00.txt.pipe'
p2882
(dp2883
sS'doc_193.pair-00.txt.pipe'
p2884
(dp2885
sS'doc_91.pair-01.txt.pipe'
p2886
(dp2887
sS'doc_118.pair-01.txt.pipe'
p2888
(dp2889
(S'Contingency.Condition.2'
p2890
Ntp2891
F0.2
s(NS'Explicit'
p2892
tp2893
F0.6
s(S'Explicit'
p2894
Ntp2895
F0.3
s(g2894
g2892
tp2896
F0.1
s(NS'Contingency.Condition.2'
p2897
tp2898
F0.2
s(NS'Contingency.Condition.1'
p2899
tp2900
F0.4
s(S'Contingency.Condition.1'
p2901
Ntp2902
F0.1
s(S'Contingency.Condition.2'
p2903
S'Contingency.Condition.2'
p2904
tp2905
F0.1
ssS'doc_166.pair-00.txt.pipe'
p2906
(dp2907
sS'doc_17.pair-00.txt.pipe'
p2908
(dp2909
sS'doc_190.pair-01.perm.txt.pipe'
p2910
(dp2911
sS'doc_57.pair-01.perm.txt.pipe'
p2912
(dp2913
sS'doc_33.pair-01.txt.pipe'
p2914
(dp2915
sS'doc_40.pair-00.perm.txt.pipe'
p2916
(dp2917
sS'doc_90.pair-00.txt.pipe'
p2918
(dp2919
sS'doc_7.pair-01.perm.txt.pipe'
p2920
(dp2921
(NS'Explicit'
p2922
tp2923
F0.8571428571428571
s(g2922
Ntp2924
F0.14285714285714285
s(NS'Expansion.Conjunction.2'
p2925
tp2926
F0.8571428571428571
s(S'Expansion.Conjunction.1'
p2927
Ntp2928
F0.14285714285714285
ssS'doc_127.pair-01.perm.txt.pipe'
p2929
(dp2930
sS'doc_160.pair-00.perm.txt.pipe'
p2931
(dp2932
sS'doc_172.pair-01.perm.txt.pipe'
p2933
(dp2934
sS'doc_108.pair-01.txt.pipe'
p2935
(dp2936
sS'doc_70.pair-01.txt.pipe'
p2937
(dp2938
sS'doc_164.pair-01.perm.txt.pipe'
p2939
(dp2940
sS'doc_53.pair-01.txt.pipe'
p2941
(dp2942
(S'Temporal.Asynchronous.2'
p2943
S'Comparison.Contrast.2'
p2944
tp2945
F0.03225806451612903
s(S'Temporal.Asynchronous.2'
p2946
Ntp2947
F0.2903225806451613
s(NS'Explicit'
p2948
tp2949
F0.5806451612903226
s(NS'Comparison.Contrast.1'
p2950
tp2951
F0.22580645161290322
s(S'Temporal.Asynchronous.1'
p2952
Ntp2953
F0.06451612903225806
s(S'Explicit'
p2954
g2948
tp2955
F0.06451612903225806
s(NS'Comparison.Contrast.2'
p2956
tp2957
F0.3548387096774194
s(g2954
Ntp2958
F0.3548387096774194
s(S'Temporal.Asynchronous.1'
p2959
S'Comparison.Contrast.2'
p2960
tp2961
F0.03225806451612903
ssS'doc_165.pair-00.perm.txt.pipe'
p2962
(dp2963
sS'doc_71.pair-01.txt.pipe'
p2964
(dp2965
sS'doc_190.pair-00.perm.txt.pipe'
p2966
(dp2967
sS'doc_114.pair-01.txt.pipe'
p2968
(dp2969
(NS'Explicit'
p2970
tp2971
F0.4117647058823529
s(S'Expansion.Restatement.1'
p2972
Ntp2973
F0.5882352941176471
s(g2970
Ntp2974
F0.5882352941176471
s(NS'Expansion.Restatement.2'
p2975
tp2976
F0.4117647058823529
ssS'doc_126.pair-00.txt.pipe'
p2977
(dp2978
sS'doc_165.pair-01.perm.txt.pipe'
p2979
(dp2980
sS'doc_25.pair-01.txt.pipe'
p2981
(dp2982
(NS'Explicit'
p2983
tp2984
F0.8888888888888888
s(S'Comparison.Contrast.1'
p2985
Ntp2986
F0.1111111111111111
s(g2983
Ntp2987
F0.1111111111111111
s(NS'Comparison.Contrast.2'
p2988
tp2989
F0.8888888888888888
ssS'doc_18.pair-00.txt.pipe'
p2990
(dp2991
(NS'Explicit'
p2992
tp2993
F0.9333333333333333
s(g2992
Ntp2994
F0.06666666666666667
s(NS'Expansion.Conjunction.2'
p2995
tp2996
F0.9333333333333333
s(S'Expansion.Conjunction.1'
p2997
Ntp2998
F0.06666666666666667
ssS'doc_20.pair-01.perm.txt.pipe'
p2999
(dp3000
sS'doc_182.pair-00.perm.txt.pipe'
p3001
(dp3002
(S'Expansion.Conjunction.2'
p3003
Ntp3004
F0.3181818181818182
s(NS'Explicit'
p3005
tp3006
F0.45454545454545453
s(NS'Contingency.Condition.2'
p3007
tp3008
F0.09090909090909091
s(S'Expansion.Conjunction.1'
p3009
Ntp3010
F0.045454545454545456
s(NS'Contingency.Condition.1'
p3011
tp3012
F0.045454545454545456
s(g3005
Ntp3013
F0.36363636363636365
s(NNtp3014
F0.18181818181818182
s(Ng3003
tp3015
F0.3181818181818182
ssS'doc_95.pair-00.txt.pipe'
p3016
(dp3017
(NS'Explicit'
p3018
tp3019
F0.8064516129032258
s(g3018
Ntp3020
F0.1935483870967742
s(NS'Expansion.Conjunction.2'
p3021
tp3022
F0.8064516129032258
s(S'Expansion.Conjunction.1'
p3023
Ntp3024
F0.1935483870967742
ssS'doc_106.pair-00.perm.txt.pipe'
p3025
(dp3026
(S'Contingency.Cause.1'
p3027
Ntp3028
F0.2
s(NS'Explicit'
p3029
tp3030
F0.68
s(NS'Comparison.Concession.1'
p3031
tp3032
F0.32
s(S'Contingency.Cause.2'
p3033
Ntp3034
F0.12
s(NS'Comparison.Concession.2'
p3035
tp3036
F0.36
s(S'Explicit'
p3037
Ntp3038
F0.32
ssS'doc_92.pair-00.txt.pipe'
p3039
(dp3040
sS'doc_115.pair-00.perm.txt.pipe'
p3041
(dp3042
sS'doc_35.pair-01.perm.txt.pipe'
p3043
(dp3044
(S'Comparison.Contrast.1'
p3045
Ntp3046
F0.16326530612244897
s(NS'Temporal.Synchrony.1'
p3047
tp3048
F0.20408163265306123
s(NS'Contingency.Condition.2'
p3049
tp3050
F0.08163265306122448
s(NS'Explicit'
p3051
tp3052
F0.6923076923076923
s(NS'Contingency.Condition.1'
p3053
tp3054
F0.061224489795918366
s(S'Explicit'
p3055
Ntp3056
F0.3076923076923077
s(NS'Temporal.Synchrony.2'
p3057
tp3058
F0.12244897959183673
s(NS'Comparison.Contrast.2'
p3059
tp3060
F0.3673469387755102
ssS'doc_187.pair-01.txt.pipe'
p3061
(dp3062
(S'Contingency.Cause.1'
p3063
Ntp3064
F0.3333333333333333
s(NS'Explicit'
p3065
tp3066
F0.6666666666666666
s(g3065
Ntp3067
F0.3333333333333333
s(NS'Contingency.Cause.2'
p3068
tp3069
F0.6666666666666666
ssS'doc_135.pair-01.txt.pipe'
p3070
(dp3071
(NS'Explicit'
p3072
tp3073
F0.3
s(S'Comparison.Contrast.1'
p3074
Ntp3075
F0.7
s(g3072
Ntp3076
F0.7
s(NS'Comparison.Contrast.2'
p3077
tp3078
F0.3
ssS'doc_174.pair-01.txt.pipe'
p3079
(dp3080
sS'doc_64.pair-00.perm.txt.pipe'
p3081
(dp3082
(S'Comparison.Contrast.2'
p3083
Ntp3084
F0.2948717948717949
s(NS'Contingency.Cause.2'
p3085
tp3086
F0.0641025641025641
s(NS'Explicit'
p3087
tp3088
F0.48717948717948717
s(g3087
Ntp3089
F0.3076923076923077
s(g3087
S'Explicit'
p3090
tp3091
F0.038461538461538464
s(Ng3083
tp3092
F0.3333333333333333
s(NNtp3093
F0.16666666666666666
s(S'Comparison.Contrast.1'
p3094
Ntp3095
F0.01282051282051282
s(S'Comparison.Contrast.2'
p3096
S'Contingency.Cause.2'
p3097
tp3098
F0.038461538461538464
s(NS'Contingency.Cause.1'
p3099
tp3100
F0.08974358974358974
ssS'doc_146.pair-00.txt.pipe'
p3101
(dp3102
(NS'Explicit'
p3103
tp3104
F0.3333333333333333
s(g3103
Ntp3105
F0.6666666666666666
s(NS'Expansion.Conjunction.2'
p3106
tp3107
F0.3333333333333333
s(S'Expansion.Conjunction.1'
p3108
Ntp3109
F0.6666666666666666
ssS'doc_70.pair-01.perm.txt.pipe'
p3110
(dp3111
sS'doc_10.pair-01.perm.txt.pipe'
p3112
(dp3113
sS'doc_168.pair-00.perm.txt.pipe'
p3114
(dp3115
(S'Temporal.Synchrony.2'
p3116
Ntp3117
F0.034482758620689655
s(S'Expansion.Conjunction.1'
p3118
Ntp3119
F0.3103448275862069
s(NS'Explicit'
p3120
tp3121
F0.55
s(S'Explicit'
p3122
Ntp3123
F0.45
s(S'Temporal.Synchrony.1'
p3124
Ntp3125
F0.27586206896551724
s(NS'Expansion.Conjunction.2'
p3126
tp3127
F0.3793103448275862
ssS'doc_86.pair-01.txt.pipe'
p3128
(dp3129
sS'doc_181.pair-00.perm.txt.pipe'
p3130
(dp3131
sS'doc_114.pair-00.txt.pipe'
p3132
(dp3133
(NS'Temporal.Asynchronous.2'
p3134
tp3135
F0.10869565217391304
s(S'Expansion.Conjunction.1'
p3136
Ntp3137
F0.021739130434782608
s(S'Expansion.Conjunction.2'
p3138
S'Temporal.Asynchronous.2'
p3139
tp3140
F0.021739130434782608
s(S'Explicit'
p3141
Ntp3142
F0.34782608695652173
s(g3141
S'Explicit'
p3143
tp3144
F0.021739130434782608
s(NNtp3145
F0.15217391304347827
s(NS'Expansion.Conjunction.2'
p3146
tp3147
F0.34782608695652173
s(g3146
Ntp3148
F0.32608695652173914
s(NS'Temporal.Asynchronous.1'
p3149
tp3150
F0.021739130434782608
s(Ng3141
tp3151
F0.4782608695652174
ssS'doc_65.pair-01.perm.txt.pipe'
p3152
(dp3153
sS'doc_74.pair-00.txt.pipe'
p3154
(dp3155
sS'doc_161.pair-00.perm.txt.pipe'
p3156
(dp3157
sS'doc_50.pair-01.perm.txt.pipe'
p3158
(dp3159
sS'doc_42.pair-00.perm.txt.pipe'
p3160
(dp3161
(S'Explicit'
p3162
S'Explicit'
p3163
tp3164
F0.041666666666666664
s(S'Expansion.Conjunction.1'
p3165
Ntp3166
F0.020833333333333332
s(Ng3163
tp3167
F0.4791666666666667
s(g3162
Ntp3168
F0.20833333333333334
s(S'Expansion.Conjunction.2'
p3169
S'Contingency.Cause.1'
p3170
tp3171
F0.020833333333333332
s(NNtp3172
F0.2708333333333333
s(Ng3169
tp3173
F0.22916666666666666
s(S'Expansion.Conjunction.2'
p3174
Ntp3175
F0.1875
s(NS'Contingency.Cause.1'
p3176
tp3177
F0.10416666666666667
s(NS'Contingency.Cause.2'
p3178
tp3179
F0.14583333333333334
s(S'Expansion.Conjunction.2'
p3180
S'Contingency.Cause.2'
p3181
tp3182
F0.020833333333333332
ssS'doc_34.pair-01.txt.pipe'
p3183
(dp3184
sS'doc_197.pair-01.perm.txt.pipe'
p3185
(dp3186
sS'doc_139.pair-01.txt.pipe'
p3187
(dp3188
sS'doc_149.pair-00.perm.txt.pipe'
p3189
(dp3190
sS'doc_30.pair-00.txt.pipe'
p3191
(dp3192
sS'doc_156.pair-01.perm.txt.pipe'
p3193
(dp3194
sS'doc_69.pair-01.txt.pipe'
p3195
(dp3196
sS'doc_24.pair-00.perm.txt.pipe'
p3197
(dp3198
(S'Expansion.Conjunction.1'
p3199
Ntp3200
F0.03571428571428571
s(NS'Explicit'
p3201
tp3202
F0.9473684210526315
s(NS'Comparison.Contrast.1'
p3203
tp3204
F0.10714285714285714
s(S'Explicit'
p3205
Ntp3206
F0.05263157894736842
s(NS'Comparison.Contrast.2'
p3207
tp3208
F0.25
s(NS'Expansion.Conjunction.2'
p3209
tp3210
F0.6071428571428571
ssS'doc_49.pair-01.perm.txt.pipe'
p3211
(dp3212
sS'doc_54.pair-01.perm.txt.pipe'
p3213
(dp3214
(NS'Explicit'
p3215
tp3216
F0.8333333333333334
s(g3215
Ntp3217
F0.16666666666666666
s(NS'Expansion.Conjunction.2'
p3218
tp3219
F0.8333333333333334
s(S'Expansion.Conjunction.1'
p3220
Ntp3221
F0.16666666666666666
ssS'doc_168.pair-01.perm.txt.pipe'
p3222
(dp3223
(NS'Explicit'
p3224
tp3225
F0.9230769230769231
s(g3224
Ntp3226
F0.07692307692307693
s(NS'Expansion.Conjunction.2'
p3227
tp3228
F0.9230769230769231
s(S'Expansion.Conjunction.1'
p3229
Ntp3230
F0.07692307692307693
ssS'doc_183.pair-00.perm.txt.pipe'
p3231
(dp3232
sS'doc_6.pair-01.perm.txt.pipe'
p3233
(dp3234
sS'doc_84.pair-00.txt.pipe'
p3235
(dp3236
(NS'Explicit'
p3237
tp3238
F0.9166666666666666
s(S'Comparison.Contrast.1'
p3239
Ntp3240
F0.08333333333333333
s(g3237
Ntp3241
F0.08333333333333333
s(NS'Comparison.Contrast.2'
p3242
tp3243
F0.9166666666666666
ssS'doc_46.pair-01.txt.pipe'
p3244
(dp3245
(S'Expansion.Conjunction.2'
p3246
Ntp3247
F0.18181818181818182
s(NS'Expansion.Conjunction.1'
p3248
tp3249
F0.015151515151515152
s(S'Explicit'
p3250
S'Explicit'
p3251
tp3252
F0.030303030303030304
s(S'Expansion.Conjunction.1'
p3253
Ntp3254
F0.015151515151515152
s(Ng3250
tp3255
F0.48484848484848486
s(g3250
Ntp3256
F0.19696969696969696
s(S'Expansion.Conjunction.2'
p3257
S'Expansion.Conjunction.2'
p3258
tp3259
F0.030303030303030304
s(NNtp3260
F0.2878787878787879
s(Ng3257
tp3261
F0.4696969696969697
ssS'doc_146.pair-00.perm.txt.pipe'
p3262
(dp3263
(NS'Explicit'
p3264
tp3265
F0.8571428571428571
s(g3264
Ntp3266
F0.14285714285714285
s(NS'Expansion.Conjunction.2'
p3267
tp3268
F0.8571428571428571
s(S'Expansion.Conjunction.1'
p3269
Ntp3270
F0.14285714285714285
ssS'doc_64.pair-01.perm.txt.pipe'
p3271
(dp3272
sS'doc_158.pair-01.perm.txt.pipe'
p3273
(dp3274
sS'doc_118.pair-00.perm.txt.pipe'
p3275
(dp3276
sS'doc_142.pair-01.perm.txt.pipe'
p3277
(dp3278
sS'doc_143.pair-00.perm.txt.pipe'
p3279
(dp3280
sS'doc_165.pair-00.txt.pipe'
p3281
(dp3282
sS'doc_23.pair-01.txt.pipe'
p3283
(dp3284
(NS'Explicit'
p3285
tp3286
F0.9090909090909091
s(S'Comparison.Contrast.1'
p3287
Ntp3288
F0.09090909090909091
s(g3285
Ntp3289
F0.09090909090909091
s(NS'Comparison.Contrast.2'
p3290
tp3291
F0.9090909090909091
ssS'doc_47.pair-01.txt.pipe'
p3292
(dp3293
sS'doc_92.pair-01.txt.pipe'
p3294
(dp3295
sS'doc_34.pair-01.perm.txt.pipe'
p3296
(dp3297
sS'doc_77.pair-00.txt.pipe'
p3298
(dp3299
(S'Temporal.Synchrony.2'
p3300
Ntp3301
F0.11363636363636363
s(S'Temporal.Synchrony.2'
p3302
S'Expansion.Conjunction.2'
p3303
tp3304
F0.022727272727272728
s(S'Comparison.Contrast.2'
p3305
S'Expansion.Conjunction.2'
p3306
tp3307
F0.06818181818181818
s(S'Comparison.Contrast.2'
p3308
Ntp3309
F0.1590909090909091
s(S'Expansion.Conjunction.1'
p3310
Ntp3311
F0.3409090909090909
s(NS'Explicit'
p3312
tp3313
F0.13636363636363635
s(S'Explicit'
p3314
Ntp3315
F0.7272727272727273
s(g3314
g3312
tp3316
F0.13636363636363635
s(NS'Expansion.Conjunction.2'
p3317
tp3318
F0.06818181818181818
s(S'Comparison.Contrast.1'
p3319
Ntp3320
F0.1590909090909091
s(S'Temporal.Synchrony.1'
p3321
Ntp3322
F0.06818181818181818
ssS'doc_200.pair-00.txt.pipe'
p3323
(dp3324
sS'doc_143.pair-01.perm.txt.pipe'
p3325
(dp3326
sS'doc_140.pair-01.txt.pipe'
p3327
(dp3328
sS'doc_59.pair-00.perm.txt.pipe'
p3329
(dp3330
(NS'Explicit'
p3331
tp3332
F0.9285714285714286
s(S'Temporal.Asynchronous.1'
p3333
Ntp3334
F0.07142857142857142
s(NS'Temporal.Asynchronous.2'
p3335
tp3336
F0.9285714285714286
s(g3331
Ntp3337
F0.07142857142857142
ssS'doc_192.pair-00.txt.pipe'
p3338
(dp3339
sS'doc_198.pair-00.txt.pipe'
p3340
(dp3341
(NS'Explicit'
p3342
tp3343
F0.9545454545454546
s(g3342
Ntp3344
F0.045454545454545456
s(NS'Temporal.Synchrony.2'
p3345
tp3346
F0.9545454545454546
s(S'Temporal.Synchrony.1'
p3347
Ntp3348
F0.045454545454545456
ssS'doc_13.pair-01.perm.txt.pipe'
p3349
(dp3350
sS'doc_97.pair-01.txt.pipe'
p3351
(dp3352
sS'doc_24.pair-01.perm.txt.pipe'
p3353
(dp3354
(S'Comparison.Contrast.2'
p3355
Ntp3356
F0.09473684210526316
s(S'Expansion.Conjunction.1'
p3357
Ntp3358
F0.11578947368421053
s(NS'Explicit'
p3359
tp3360
F0.48333333333333334
s(g3359
Ntp3361
F0.18333333333333332
s(Ng3355
tp3362
F0.09473684210526316
s(NNtp3363
F0.3333333333333333
s(NS'Expansion.Conjunction.2'
p3364
tp3365
F0.28421052631578947
s(g3364
Ntp3366
F0.08421052631578947
s(S'Comparison.Contrast.1'
p3367
Ntp3368
F0.010526315789473684
s(Ng3357
tp3369
F0.10526315789473684
ssS'doc_183.pair-00.txt.pipe'
p3370
(dp3371
sS'doc_170.pair-01.txt.pipe'
p3372
(dp3373
sS'doc_69.pair-00.perm.txt.pipe'
p3374
(dp3375
sS'doc_38.pair-01.txt.pipe'
p3376
(dp3377
sS'doc_148.pair-00.txt.pipe'
p3378
(dp3379
sS'doc_194.pair-01.txt.pipe'
p3380
(dp3381
sS'doc_88.pair-00.txt.pipe'
p3382
(dp3383
(S'Temporal.Synchrony.2'
p3384
Ntp3385
F0.125
s(S'Temporal.Synchrony.2'
p3386
S'Comparison.Contrast.2'
p3387
tp3388
F0.041666666666666664
s(NS'Explicit'
p3389
tp3390
F0.5
s(NS'Comparison.Contrast.1'
p3391
tp3392
F0.2916666666666667
s(S'Explicit'
p3393
Ntp3394
F0.4166666666666667
s(g3393
g3389
tp3395
F0.08333333333333333
s(NS'Comparison.Contrast.2'
p3396
tp3397
F0.20833333333333334
s(S'Temporal.Synchrony.1'
p3398
S'Comparison.Contrast.2'
p3399
tp3400
F0.041666666666666664
s(S'Temporal.Synchrony.1'
p3401
Ntp3402
F0.2916666666666667
ssS'doc_3.pair-01.txt.pipe'
p3403
(dp3404
sS'doc_66.pair-01.txt.pipe'
p3405
(dp3406
(NS'Explicit'
p3407
tp3408
F0.5384615384615384
s(g3407
Ntp3409
F0.46153846153846156
s(NS'Expansion.Conjunction.2'
p3410
tp3411
F0.5384615384615384
s(S'Expansion.Conjunction.1'
p3412
Ntp3413
F0.46153846153846156
ssS'doc_116.pair-01.perm.txt.pipe'
p3414
(dp3415
(NS'Explicit'
p3416
tp3417
F0.6842105263157895
s(S'Temporal.Asynchronous.1'
p3418
Ntp3419
F0.3157894736842105
s(NS'Temporal.Asynchronous.2'
p3420
tp3421
F0.6842105263157895
s(g3416
Ntp3422
F0.3157894736842105
ssS'doc_147.pair-01.txt.pipe'
p3423
(dp3424
sS'doc_100.pair-00.perm.txt.pipe'
p3425
(dp3426
sS'doc_24.pair-00.txt.pipe'
p3427
(dp3428
(S'Expansion.Conjunction.1'
p3429
Ntp3430
F0.21212121212121213
s(NS'Explicit'
p3431
tp3432
F0.68
s(NS'Comparison.Contrast.1'
p3433
tp3434
F0.06060606060606061
s(g3431
Ntp3435
F0.28
s(g3431
S'Explicit'
p3436
tp3437
F0.04
s(NS'Comparison.Contrast.2'
p3438
tp3439
F0.21212121212121213
s(NS'Expansion.Conjunction.2'
p3440
tp3441
F0.48484848484848486
s(S'Expansion.Conjunction.1'
p3442
S'Comparison.Contrast.1'
p3443
tp3444
F0.030303030303030304
ssS'doc_157.pair-00.perm.txt.pipe'
p3445
(dp3446
sS'doc_8.pair-01.perm.txt.pipe'
p3447
(dp3448
sS'doc_176.pair-00.txt.pipe'
p3449
(dp3450
sS'doc_147.pair-00.perm.txt.pipe'
p3451
(dp3452
sS'doc_16.pair-01.txt.pipe'
p3453
(dp3454
sS'doc_125.pair-00.txt.pipe'
p3455
(dp3456
sS'doc_167.pair-00.txt.pipe'
p3457
(dp3458
(NS'Explicit'
p3459
tp3460
F0.9565217391304348
s(g3459
Ntp3461
F0.043478260869565216
s(NS'Expansion.Conjunction.2'
p3462
tp3463
F0.9565217391304348
s(S'Expansion.Conjunction.1'
p3464
Ntp3465
F0.043478260869565216
ssS'doc_154.pair-01.perm.txt.pipe'
p3466
(dp3467
sS'doc_118.pair-00.txt.pipe'
p3468
(dp3469
sS'doc_184.pair-01.perm.txt.pipe'
p3470
(dp3471
(NS'Explicit'
p3472
tp3473
F0.96
s(g3472
Ntp3474
F0.04
s(NS'Expansion.Conjunction.2'
p3475
tp3476
F0.96
s(S'Expansion.Conjunction.1'
p3477
Ntp3478
F0.04
ssS'doc_88.pair-01.perm.txt.pipe'
p3479
(dp3480
sS'doc_12.pair-01.txt.pipe'
p3481
(dp3482
(S'Comparison.Contrast.1'
p3483
Ntp3484
F0.021739130434782608
s(S'Comparison.Contrast.2'
p3485
Ntp3486
F0.21739130434782608
s(NS'Expansion.Conjunction.1'
p3487
tp3488
F0.06521739130434782
s(NS'Explicit'
p3489
tp3490
F0.4782608695652174
s(g3489
Ntp3491
F0.2391304347826087
s(Ng3485
tp3492
F0.21739130434782608
s(NNtp3493
F0.2826086956521739
s(NS'Expansion.Conjunction.2'
p3494
tp3495
F0.1956521739130435
ssS'doc_49.pair-00.perm.txt.pipe'
p3496
(dp3497
sS'doc_123.pair-00.perm.txt.pipe'
p3498
(dp3499
sS'doc_130.pair-01.perm.txt.pipe'
p3500
(dp3501
sS'doc_43.pair-00.txt.pipe'
p3502
(dp3503
sS'doc_160.pair-01.txt.pipe'
p3504
(dp3505
(NS'Explicit'
p3506
tp3507
F0.5789473684210527
s(g3506
Ntp3508
F0.42105263157894735
s(NS'Expansion.Conjunction.2'
p3509
tp3510
F0.5789473684210527
s(S'Expansion.Conjunction.1'
p3511
Ntp3512
F0.42105263157894735
ssS'doc_54.pair-01.txt.pipe'
p3513
(dp3514
(NS'Explicit'
p3515
tp3516
F0.4074074074074074
s(g3515
Ntp3517
F0.5925925925925926
s(NS'Expansion.Conjunction.2'
p3518
tp3519
F0.4074074074074074
s(S'Expansion.Conjunction.1'
p3520
Ntp3521
F0.5925925925925926
ssS'doc_167.pair-01.txt.pipe'
p3522
(dp3523
(NS'Explicit'
p3524
tp3525
F0.9411764705882353
s(NS'Expansion.Instantiation.2'
p3526
tp3527
F0.9411764705882353
s(g3524
Ntp3528
F0.058823529411764705
s(S'Expansion.Instantiation.1'
p3529
Ntp3530
F0.058823529411764705
ssS'doc_1.pair-00.perm.txt.pipe'
p3531
(dp3532
sS'doc_128.pair-01.perm.txt.pipe'
p3533
(dp3534
sS'doc_152.pair-01.txt.pipe'
p3535
(dp3536
(NS'Explicit'
p3537
tp3538
F0.9166666666666666
s(S'Comparison.Contrast.1'
p3539
Ntp3540
F0.08333333333333333
s(g3537
Ntp3541
F0.08333333333333333
s(NS'Comparison.Contrast.2'
p3542
tp3543
F0.9166666666666666
ssS'doc_82.pair-01.txt.pipe'
p3544
(dp3545
sS'doc_63.pair-01.txt.pipe'
p3546
(dp3547
sS'doc_76.pair-00.perm.txt.pipe'
p3548
(dp3549
sS'doc_172.pair-00.perm.txt.pipe'
p3550
(dp3551
sS'doc_137.pair-00.txt.pipe'
p3552
(dp3553
sS'doc_31.pair-01.perm.txt.pipe'
p3554
(dp3555
sS'doc_162.pair-01.perm.txt.pipe'
p3556
(dp3557
sS'doc_12.pair-01.perm.txt.pipe'
p3558
(dp3559
(S'Expansion.Conjunction.1'
p3560
Ntp3561
F0.08571428571428572
s(NS'Explicit'
p3562
tp3563
F0.44
s(S'Expansion.Conjunction.2'
p3564
S'Comparison.Contrast.2'
p3565
tp3566
F0.05714285714285714
s(g3562
Ntp3567
F0.48
s(S'Explicit'
p3568
g3562
tp3569
F0.08
s(NS'Comparison.Contrast.2'
p3570
tp3571
F0.3142857142857143
s(S'Expansion.Conjunction.2'
p3572
Ntp3573
F0.2
s(S'Comparison.Contrast.1'
p3574
Ntp3575
F0.34285714285714286
ssS'doc_169.pair-00.perm.txt.pipe'
p3576
(dp3577
sS'doc_129.pair-01.perm.txt.pipe'
p3578
(dp3579
sS'doc_191.pair-01.perm.txt.pipe'
p3580
(dp3581
sS'doc_55.pair-01.perm.txt.pipe'
p3582
(dp3583
sS'doc_175.pair-00.perm.txt.pipe'
p3584
(dp3585
sS'doc_156.pair-00.perm.txt.pipe'
p3586
(dp3587
sS'doc_182.pair-01.txt.pipe'
p3588
(dp3589
(NS'Explicit'
p3590
tp3591
F0.9
s(S'Comparison.Contrast.1'
p3592
Ntp3593
F0.1
s(g3590
Ntp3594
F0.1
s(NS'Comparison.Contrast.2'
p3595
tp3596
F0.9
ssS'doc_11.pair-01.txt.pipe'
p3597
(dp3598
sS'doc_11.pair-00.perm.txt.pipe'
p3599
(dp3600
sS'doc_79.pair-01.perm.txt.pipe'
p3601
(dp3602
sS'doc_182.pair-00.txt.pipe'
p3603
(dp3604
(S'Contingency.Condition.2'
p3605
Ntp3606
F0.05
s(S'Contingency.Condition.2'
p3607
S'Expansion.Conjunction.2'
p3608
tp3609
F0.05
s(S'Expansion.Conjunction.1'
p3610
Ntp3611
F0.4
s(NS'Explicit'
p3612
tp3613
F0.5
s(g3612
Ntp3614
F0.4444444444444444
s(S'Explicit'
p3615
g3612
tp3616
F0.05555555555555555
s(NS'Expansion.Conjunction.2'
p3617
tp3618
F0.45
s(S'Contingency.Condition.1'
p3619
Ntp3620
F0.05
ssS'doc_34.pair-00.perm.txt.pipe'
p3621
(dp3622
sS'doc_60.pair-00.perm.txt.pipe'
p3623
(dp3624
sS'doc_193.pair-01.txt.pipe'
p3625
(dp3626
sS'doc_161.pair-00.txt.pipe'
p3627
(dp3628
sS'doc_161.pair-01.perm.txt.pipe'
p3629
(dp3630
(NS'Contingency.Cause.1'
p3631
tp3632
F0.2222222222222222
s(S'Expansion.Conjunction.1'
p3633
Ntp3634
F0.018518518518518517
s(NS'Explicit'
p3635
tp3636
F0.9642857142857143
s(S'Explicit'
p3637
Ntp3638
F0.03571428571428571
s(NS'Contingency.Cause.2'
p3639
tp3640
F0.2777777777777778
s(NS'Expansion.Conjunction.2'
p3641
tp3642
F0.48148148148148145
ssS'doc_186.pair-00.txt.pipe'
p3643
(dp3644
sS'doc_124.pair-00.perm.txt.pipe'
p3645
(dp3646
sS'doc_5.pair-00.txt.pipe'
p3647
(dp3648
sS'doc_84.pair-01.perm.txt.pipe'
p3649
(dp3650
(NS'Explicit'
p3651
tp3652
F0.9375
s(S'Comparison.Contrast.1'
p3653
Ntp3654
F0.0625
s(g3651
Ntp3655
F0.0625
s(NS'Comparison.Contrast.2'
p3656
tp3657
F0.9375
ssS'doc_99.pair-00.txt.pipe'
p3658
(dp3659
(NS'Explicit'
p3660
tp3661
F0.9375
s(g3660
Ntp3662
F0.0625
s(NS'Expansion.Conjunction.2'
p3663
tp3664
F0.9375
s(S'Expansion.Conjunction.1'
p3665
Ntp3666
F0.0625
ssS'doc_25.pair-00.txt.pipe'
p3667
(dp3668
sS'doc_22.pair-00.perm.txt.pipe'
p3669
(dp3670
(S'Contingency.Cause.1'
p3671
Ntp3672
F0.013157894736842105
s(NS'Explicit'
p3673
tp3674
F0.4807692307692308
s(NS'Expansion.Conjunction.1'
p3675
tp3676
F0.15789473684210525
s(g3675
Ntp3677
F0.15789473684210525
s(S'Contingency.Cause.2'
p3678
Ntp3679
F0.15789473684210525
s(g3673
Ntp3680
F0.25
s(Ng3678
tp3681
F0.15789473684210525
s(NNtp3682
F0.2692307692307692
s(NS'Expansion.Conjunction.2'
p3683
tp3684
F0.17105263157894737
ssS'doc_56.pair-00.txt.pipe'
p3685
(dp3686
sS'doc_56.pair-01.perm.txt.pipe'
p3687
(dp3688
sS'doc_96.pair-00.txt.pipe'
p3689
(dp3690
sS'doc_195.pair-01.txt.pipe'
p3691
(dp3692
sS'doc_39.pair-00.txt.pipe'
p3693
(dp3694
sS'doc_160.pair-01.perm.txt.pipe'
p3695
(dp3696
(NS'Explicit'
p3697
tp3698
F0.9166666666666666
s(g3697
Ntp3699
F0.08333333333333333
s(NS'Expansion.Conjunction.2'
p3700
tp3701
F0.9166666666666666
s(S'Expansion.Conjunction.1'
p3702
Ntp3703
F0.08333333333333333
ssS'doc_68.pair-00.perm.txt.pipe'
p3704
(dp3705
(S'Comparison.Contrast.2'
p3706
Ntp3707
F0.09259259259259259
s(NS'Explicit'
p3708
tp3709
F0.4772727272727273
s(NS'Comparison.Contrast.1'
p3710
tp3711
F0.09259259259259259
s(g3708
Ntp3712
F0.13636363636363635
s(Ng3706
tp3713
F0.3888888888888889
s(NNtp3714
F0.38636363636363635
s(g3710
Ntp3715
F0.1111111111111111
ssS'doc_57.pair-00.perm.txt.pipe'
p3716
(dp3717
(NS'Explicit'
p3718
tp3719
F0.75
s(S'Comparison.Contrast.1'
p3720
Ntp3721
F0.25
s(g3718
Ntp3722
F0.25
s(NS'Comparison.Contrast.2'
p3723
tp3724
F0.75
ssS'doc_98.pair-01.perm.txt.pipe'
p3725
(dp3726
sS'doc_46.pair-00.perm.txt.pipe'
p3727
(dp3728
(S'Expansion.Conjunction.1'
p3729
Ntp3730
F0.1282051282051282
s(NS'Explicit'
p3731
tp3732
F0.6666666666666666
s(NS'Comparison.Contrast.1'
p3733
tp3734
F0.1794871794871795
s(S'Explicit'
p3735
Ntp3736
F0.20833333333333334
s(g3735
g3731
tp3737
F0.125
s(NS'Comparison.Contrast.2'
p3738
tp3739
F0.20512820512820512
s(NS'Expansion.Conjunction.2'
p3740
tp3741
F0.41025641025641024
s(S'Expansion.Conjunction.1'
p3742
S'Comparison.Contrast.1'
p3743
tp3744
F0.07692307692307693
ssS'doc_124.pair-01.perm.txt.pipe'
p3745
(dp3746
sS'doc_188.pair-01.perm.txt.pipe'
p3747
(dp3748
(S'Expansion.Conjunction.2'
p3749
Ntp3750
F0.14102564102564102
s(S'Explicit'
p3751
S'Explicit'
p3752
tp3753
F0.05357142857142857
s(S'Expansion.Conjunction.1'
p3754
Ntp3755
F0.15384615384615385
s(Ng3752
tp3756
F0.48214285714285715
s(S'Expansion.Conjunction.2'
p3757
S'Expansion.Conjunction.2'
p3758
tp3759
F0.038461538461538464
s(g3751
Ntp3760
F0.21428571428571427
s(Ng3754
tp3761
F0.14102564102564102
s(NNtp3762
F0.25
s(NS'Expansion.Conjunction.2'
p3763
tp3764
F0.34615384615384615
ssS'doc_80.pair-00.txt.pipe'
p3765
(dp3766
sS'doc_52.pair-00.txt.pipe'
p3767
(dp3768
sS'doc_29.pair-01.perm.txt.pipe'
p3769
(dp3770
sS'doc_191.pair-01.txt.pipe'
p3771
(dp3772
sS'doc_183.pair-01.txt.pipe'
p3773
(dp3774
(S'Comparison.Contrast.1'
p3775
Ntp3776
F0.019230769230769232
s(NS'Temporal.Asynchronous.2'
p3777
tp3778
F0.09615384615384616
s(S'Comparison.Contrast.2'
p3779
Ntp3780
F0.25
s(NS'Explicit'
p3781
tp3782
F0.4782608695652174
s(NS'Temporal.Asynchronous.1'
p3783
tp3784
F0.019230769230769232
s(NS'Comparison.Contrast.1'
p3785
tp3786
F0.038461538461538464
s(g3781
Ntp3787
F0.30434782608695654
s(Ng3779
tp3788
F0.38461538461538464
s(NNtp3789
F0.21739130434782608
ssS'doc_25.pair-01.perm.txt.pipe'
p3790
(dp3791
(NS'Explicit'
p3792
tp3793
F0.4375
s(S'Comparison.Contrast.1'
p3794
Ntp3795
F0.5625
s(g3792
Ntp3796
F0.5625
s(NS'Comparison.Contrast.2'
p3797
tp3798
F0.4375
ssS'doc_40.pair-00.txt.pipe'
p3799
(dp3800
sS'doc_67.pair-01.txt.pipe'
p3801
(dp3802
sS'doc_16.pair-00.perm.txt.pipe'
p3803
(dp3804
sS'doc_158.pair-00.perm.txt.pipe'
p3805
(dp3806
(NS'Explicit'
p3807
tp3808
F0.39285714285714285
s(g3807
Ntp3809
F0.6071428571428571
s(NS'Expansion.Conjunction.2'
p3810
tp3811
F0.39285714285714285
s(S'Expansion.Conjunction.1'
p3812
Ntp3813
F0.6071428571428571
ssS'doc_78.pair-00.txt.pipe'
p3814
(dp3815
sS'doc_17.pair-01.perm.txt.pipe'
p3816
(dp3817
sS'doc_144.pair-01.perm.txt.pipe'
p3818
(dp3819
sS'doc_78.pair-01.perm.txt.pipe'
p3820
(dp3821
sS'doc_184.pair-00.txt.pipe'
p3822
(dp3823
sS'doc_196.pair-01.perm.txt.pipe'
p3824
(dp3825
sS'doc_52.pair-01.txt.pipe'
p3826
(dp3827
sS'doc_142.pair-01.txt.pipe'
p3828
(dp3829
sS'doc_130.pair-00.perm.txt.pipe'
p3830
(dp3831
(S'Expansion.Conjunction.1'
p3832
Ntp3833
F0.1836734693877551
s(NS'Explicit'
p3834
tp3835
F0.32432432432432434
s(S'Expansion.Conjunction.2'
p3836
S'Comparison.Contrast.2'
p3837
tp3838
F0.2653061224489796
s(S'Explicit'
p3839
Ntp3840
F0.32432432432432434
s(g3839
g3834
tp3841
F0.35135135135135137
s(NS'Comparison.Contrast.2'
p3842
tp3843
F0.24489795918367346
s(S'Expansion.Conjunction.2'
p3844
Ntp3845
F0.061224489795918366
s(S'Comparison.Contrast.1'
p3846
Ntp3847
F0.24489795918367346
ssS'doc_178.pair-00.txt.pipe'
p3848
(dp3849
sS'doc_150.pair-01.perm.txt.pipe'
p3850
(dp3851
sS'doc_27.pair-00.perm.txt.pipe'
p3852
(dp3853
(NS'Expansion.Instantiation.2'
p3854
tp3855
F0.45098039215686275
s(S'Expansion.Conjunction.2'
p3856
S'Expansion.Instantiation.2'
p3857
tp3858
F0.0392156862745098
s(S'Expansion.Conjunction.1'
p3859
Ntp3860
F0.1568627450980392
s(NS'Explicit'
p3861
tp3862
F0.6052631578947368
s(g3861
Ntp3863
F0.34210526315789475
s(S'Explicit'
p3864
g3861
tp3865
F0.05263157894736842
s(S'Expansion.Instantiation.1'
p3866
Ntp3867
F0.2549019607843137
s(S'Expansion.Conjunction.2'
p3868
Ntp3869
F0.09803921568627451
ssS'doc_128.pair-00.txt.pipe'
p3870
(dp3871
sS'doc_149.pair-01.txt.pipe'
p3872
(dp3873
(NS'Explicit'
p3874
tp3875
F0.8275862068965517
s(g3874
Ntp3876
F0.1724137931034483
s(NS'Expansion.Conjunction.2'
p3877
tp3878
F0.8275862068965517
s(S'Expansion.Conjunction.1'
p3879
Ntp3880
F0.1724137931034483
ssS'doc_163.pair-00.txt.pipe'
p3881
(dp3882
sS'doc_68.pair-01.perm.txt.pipe'
p3883
(dp3884
(S'Comparison.Contrast.2'
p3885
Ntp3886
F0.23943661971830985
s(NS'Contingency.Cause.2'
p3887
tp3888
F0.14084507042253522
s(NS'Explicit'
p3889
tp3890
F0.4838709677419355
s(g3889
Ntp3891
F0.2903225806451613
s(g3889
S'Explicit'
p3892
tp3893
F0.03225806451612903
s(Ng3885
tp3894
F0.2676056338028169
s(NNtp3895
F0.1935483870967742
s(S'Comparison.Contrast.1'
p3896
Ntp3897
F0.014084507042253521
s(S'Comparison.Contrast.2'
p3898
S'Contingency.Cause.1'
p3899
tp3900
F0.028169014084507043
s(g3898
S'Contingency.Cause.2'
p3901
tp3902
F0.028169014084507043
s(NS'Contingency.Cause.1'
p3903
tp3904
F0.11267605633802817
ssS'doc_103.pair-01.perm.txt.pipe'
p3905
(dp3906
sS'doc_104.pair-00.txt.pipe'
p3907
(dp3908
(NS'Explicit'
p3909
tp3910
F0.42857142857142855
s(g3909
Ntp3911
F0.5714285714285714
s(NS'Expansion.Conjunction.2'
p3912
tp3913
F0.42857142857142855
s(S'Expansion.Conjunction.1'
p3914
Ntp3915
F0.5714285714285714
ssS'doc_37.pair-00.perm.txt.pipe'
p3916
(dp3917
sS'doc_39.pair-01.perm.txt.pipe'
p3918
(dp3919
(NS'Explicit'
p3920
tp3921
F0.2727272727272727
s(g3920
Ntp3922
F0.7272727272727273
s(NS'Expansion.Conjunction.2'
p3923
tp3924
F0.2727272727272727
s(S'Expansion.Conjunction.1'
p3925
Ntp3926
F0.7272727272727273
ssS'doc_178.pair-01.perm.txt.pipe'
p3927
(dp3928
sS'doc_74.pair-01.perm.txt.pipe'
p3929
(dp3930
sS'doc_147.pair-01.perm.txt.pipe'
p3931
(dp3932
sS'doc_4.pair-01.txt.pipe'
p3933
(dp3934
(NS'Temporal.Asynchronous.2'
p3935
tp3936
F0.2288135593220339
s(NS'Contingency.Cause.2'
p3937
tp3938
F0.15254237288135594
s(NS'Explicit'
p3939
tp3940
F0.8484848484848485
s(S'Temporal.Asynchronous.1'
p3941
Ntp3942
F0.0423728813559322
s(NS'Comparison.Contrast.2'
p3943
tp3944
F0.23728813559322035
s(NS'Expansion.Conjunction.2'
p3945
tp3946
F0.09322033898305085
s(S'Comparison.Contrast.1'
p3947
Ntp3948
F0.0423728813559322
s(NS'Expansion.Conjunction.1'
p3949
tp3950
F0.05084745762711865
s(g3939
Ntp3951
F0.15151515151515152
s(NS'Contingency.Cause.1'
p3952
tp3953
F0.15254237288135594
ssS'doc_83.pair-01.perm.txt.pipe'
p3954
(dp3955
sS'doc_111.pair-00.perm.txt.pipe'
p3956
(dp3957
(S'Contingency.Cause.1'
p3958
Ntp3959
F0.3170731707317073
s(NS'Implicit'
p3960
tp3961
F0.34146341463414637
s(g3960
Ntp3962
F0.3170731707317073
s(S'Comparison.Contrast.2'
p3963
Ntp3964
F0.17073170731707318
s(NS'Contingency.Cause.2'
p3965
tp3966
F0.34146341463414637
s(S'Explicit'
p3967
Ntp3968
F0.3170731707317073
s(S'Comparison.Contrast.1'
p3969
Ntp3970
F0.14634146341463414
s(S'Comparison.Contrast.2'
p3971
S'Contingency.Cause.2'
p3972
tp3973
F0.024390243902439025
s(g3967
g3960
tp3974
F0.024390243902439025
ssS'doc_15.pair-00.txt.pipe'
p3975
(dp3976
sS'doc_156.pair-00.txt.pipe'
p3977
(dp3978
sS'doc_66.pair-00.txt.pipe'
p3979
(dp3980
sS'doc_154.pair-00.txt.pipe'
p3981
(dp3982
sS'doc_153.pair-00.txt.pipe'
p3983
(dp3984
sS'doc_143.pair-01.txt.pipe'
p3985
(dp3986
sS'doc_120.pair-01.txt.pipe'
p3987
(dp3988
sS'doc_42.pair-00.txt.pipe'
p3989
(dp3990
(S'Contingency.Cause.1'
p3991
Ntp3992
F0.16666666666666666
s(S'Expansion.Conjunction.1'
p3993
Ntp3994
F0.3888888888888889
s(NS'Explicit'
p3995
tp3996
F0.34782608695652173
s(S'Explicit'
p3997
Ntp3998
F0.6086956521739131
s(g3997
g3995
tp3999
F0.043478260869565216
s(NS'Expansion.Conjunction.2'
p4000
tp4001
F0.2222222222222222
s(S'Contingency.Cause.2'
p4002
S'Expansion.Conjunction.2'
p4003
tp4004
F0.027777777777777776
s(S'Contingency.Cause.2'
p4005
Ntp4006
F0.19444444444444445
ssS'doc_87.pair-01.perm.txt.pipe'
p4007
(dp4008
sS'doc_45.pair-01.txt.pipe'
p4009
(dp4010
(S'Comparison.Contrast.2'
p4011
S'Expansion.Conjunction.2'
p4012
tp4013
F0.06666666666666667
s(S'Comparison.Contrast.2'
p4014
Ntp4015
F0.2
s(NS'Explicit'
p4016
tp4017
F0.6666666666666666
s(S'Explicit'
p4018
Ntp4019
F0.26666666666666666
s(g4018
g4016
tp4020
F0.06666666666666667
s(NS'Expansion.Conjunction.2'
p4021
tp4022
F0.26666666666666666
s(S'Comparison.Contrast.1'
p4023
Ntp4024
F0.06666666666666667
s(NS'Expansion.Conjunction.1'
p4025
tp4026
F0.4
ssS'doc_151.pair-01.perm.txt.pipe'
p4027
(dp4028
sS'doc_32.pair-01.perm.txt.pipe'
p4029
(dp4030
sS'doc_9.pair-00.perm.txt.pipe'
p4031
(dp4032
(NS'Explicit'
p4033
tp4034
F0.3157894736842105
s(S'Comparison.Contrast.1'
p4035
Ntp4036
F0.6842105263157895
s(g4033
Ntp4037
F0.6842105263157895
s(NS'Comparison.Contrast.2'
p4038
tp4039
F0.3157894736842105
ssS'doc_21.pair-00.perm.txt.pipe'
p4040
(dp4041
sS'doc_146.pair-01.perm.txt.pipe'
p4042
(dp4043
(NS'Explicit'
p4044
tp4045
F0.6363636363636364
s(g4044
Ntp4046
F0.36363636363636365
s(NS'Expansion.Conjunction.2'
p4047
tp4048
F0.6363636363636364
s(S'Expansion.Conjunction.1'
p4049
Ntp4050
F0.36363636363636365
ssS'doc_6.pair-00.perm.txt.pipe'
p4051
(dp4052
sS'doc_26.pair-01.perm.txt.pipe'
p4053
(dp4054
sS'doc_26.pair-00.txt.pipe'
p4055
(dp4056
sS'doc_106.pair-01.txt.pipe'
p4057
(dp4058
sS'doc_19.pair-00.txt.pipe'
p4059
(dp4060
sS'doc_42.pair-01.txt.pipe'
p4061
(dp4062
(S'Expansion.Conjunction.1'
p4063
Ntp4064
F0.15384615384615385
s(NS'Explicit'
p4065
tp4066
F0.38461538461538464
s(S'Explicit'
p4067
Ntp4068
F0.5384615384615384
s(g4067
g4065
tp4069
F0.07692307692307693
s(S'Expansion.Conjunction.1'
p4070
S'Temporal.Synchrony.1'
p4071
tp4072
F0.07692307692307693
s(S'Expansion.Conjunction.2'
p4073
Ntp4074
F0.38461538461538464
s(NS'Temporal.Synchrony.1'
p4075
tp4076
F0.07692307692307693
s(NS'Temporal.Synchrony.2'
p4077
tp4078
F0.3076923076923077
ssS'doc_173.pair-00.txt.pipe'
p4079
(dp4080
sS'doc_62.pair-00.perm.txt.pipe'
p4081
(dp4082
(NS'Explicit'
p4083
tp4084
F0.5925925925925926
s(g4083
Ntp4085
F0.4074074074074074
s(NS'Expansion.Conjunction.2'
p4086
tp4087
F0.5925925925925926
s(S'Expansion.Conjunction.1'
p4088
Ntp4089
F0.4074074074074074
ssS'doc_101.pair-01.perm.txt.pipe'
p4090
(dp4091
sS'doc_158.pair-01.txt.pipe'
p4092
(dp4093
sS'doc_81.pair-00.txt.pipe'
p4094
(dp4095
(NS'Explicit'
p4096
tp4097
F0.8
s(NS'Expansion.Instantiation.2'
p4098
tp4099
F0.8
s(g4096
Ntp4100
F0.2
s(S'Expansion.Instantiation.1'
p4101
Ntp4102
F0.2
ssS'doc_11.pair-00.txt.pipe'
p4103
(dp4104
sS'doc_148.pair-00.perm.txt.pipe'
p4105
(dp4106
s.